ASxxxx Linker V03.00/V05.40 + sdld,  page 1.
Hexadecimal  [32-Bits]

Area                                    Addr        Size        Decimal Bytes (Attributes)
--------------------------------        ----        ----        ------- ----- ------------
.  .ABS.                            00000000    00000000 =           0. bytes (ABS,CON)

      Value  Global                              Global Defined In Module
      -----  --------------------------------   ------------------------
     00000000  .__.ABS.                           
     00000000  _rRAMG                             
     00000000  l__BASE                         
     00000000  l__BSS                          
     00000000  l__CABS                         
     00000000  l__CODE_0                       
     00000000  l__CRASH_HEADER                 
     00000000  l__CRASH_SCRATCH                
     00000000  l__DABS                         
     00000000  l__HEADER                       
     00000000  l__HEADER_LCD                   
     00000000  l__HEADER_SIO                   
     00000000  l__HEADER_TIMER                 
     00000000  l__HEAP                         
     00000000  l__HEAP_END                     
     00000000  l__HRAM                         
     00000000  l__LIT                          
     00000000  s__CABS                         
     00000000  s__CRASH_HEADER                 
     00000000  s__CRASH_HEADER0                
     00000000  s__CRASH_HEADER1                
     00000000  s__CRASH_SCRATCH                
     00000000  s__CRASH_SCRATCH2               
     00000000  s__DABS                         
     00000000  s__HEADER                       
     00000000  s__HEADER0                      
     00000000  s__HEADER1                      
     00000000  s__HEADER10                     
     00000000  s__HEADER11                     
     00000000  s__HEADER2                      
     00000000  s__HEADER3                      
     00000000  s__HEADER4                      
     00000000  s__HEADER5                      
     00000000  s__HEADER6                      
     00000000  s__HEADER7                      
     00000000  s__HEADER8                      
     00000000  s__HEADER9                      
     00000000  s__HEADER_LCD                   
     00000000  s__HEADER_LCD0                  
     00000000  s__HEADER_SIO                   
     00000000  s__HEADER_SIO0                  
     00000000  s__HEADER_TIMER                 
     00000000  s__HEADER_TIMER0                
     00000000  s__HEADERa                      
     00000000  s__HEADERb                      
     00000000  s__HEADERc                      
     00000000  s__HEADERd                      
     00000000  s__HEADERe                      
     00000000  s__HEADERf                      
     00000000  s__HRAM                         
ASxxxx Linker V03.00/V05.40 + sdld,  page 2.
Hexadecimal  [32-Bits]

Area                                    Addr        Size        Decimal Bytes (Attributes)
--------------------------------        ----        ----        ------- ----- ------------
.  .ABS.                            00000000    00000000 =           0. bytes (ABS,CON)

      Value  Global                              Global Defined In Module
      -----  --------------------------------   ------------------------
     00000000  s__HRAM12                       
     00000001  ___bank_VM_SGB                     vm_sgb
     00000001  ___bank_actor_24_interact          actor_24_interact
     00000001  ___bank_bg_earth_distortion_moun   bg_earth_distortion_mountai_
     00000001  ___bank_bg_mercury_projectile_pl   bg_mercury_projectile_platf_
     00000001  ___bank_script_input_27            script_input_27
     00000001  b_ui_draw_frame                    ui
     00000001  b_ui_draw_text_buffer_char         ui
     00000001  b_ui_init                          ui
     00000001  b_ui_load_tiles                    ui
     00000001  b_ui_run_menu                      ui
     00000001  b_ui_run_modal                     ui
     00000001  b_ui_set_start_tile                ui
     00000001  l__GSFINAL                      
     00000001  l__HEADER0                      
     00000001  l__HEADER5                      
     00000001  l__HEADERa                      
     00000001  l__HEADERb                      
     00000001  l__HEADERc                      
     00000001  l__HEADERe                      
     00000001  l__HEADERf                      
     00000002  ___bank_bg_luna_serenity_waterfr   bg_luna_serenity_waterfront_
     00000002  ___bank_bg_venus_landing_site_ti   bg_venus_landing_site_tilema
     00000002  ___bank_scene_5_init               scene_5_init
     00000002  l__HEADER10                     
     00000002  l__HEADER6                      
     00000002  l__HEADERd                      
     00000003  ___bank_bg_title_tileset           bg_title_tileset
     00000003  ___bank_bg_venus_landing_site_ti   bg_venus_landing_site_tilema
     00000003  ___bank_script_10                  script_10
     00000003  l__HEADER9                      
     00000003  l__HEADER_LCD0                  
     00000003  l__HRAM12                       
     00000004  ___bank_bg_venus_landing_site_ti   bg_venus_landing_site_tilese
     00000004  ___bank_scene_42_collisions        scene_42_collisions
     00000004  ___bank_script_12                  script_12
     00000004  l__CRASH_HEADER1                
     00000004  l__HEADER_SIO0                  
     00000004  l__HEADER_TIMER0                
     00000005  ___bank_bg_earth_distortion_moun   bg_earth_distortion_mountai_
     00000005  ___bank_bg_temporal_light_backgr   bg_temporal_light_backgroun_
     00000005  ___bank_trigger_104_interact       trigger_104_interact
     00000005  l__CRASH_HEADER0                
     00000005  l__HEADER1                      
     00000006  ___bank_bg_warning_tileset         bg_warning_tileset
     00000006  ___bank_scene_13_collisions        scene_13_collisions
     00000006  ___bank_scene_4_init               scene_4_init
     00000006  l__HEADER8                      
     00000007  ___bank_bg_earth_burnclaw_forest   bg_earth_burnclaw_forest_til
     00000007  ___bank_bg_placeholder_tileset     bg_placeholder_tileset
     00000007  ___bank_scene_1_sprites            scene_1_sprites
ASxxxx Linker V03.00/V05.40 + sdld,  page 3.
Hexadecimal  [32-Bits]

Area                                    Addr        Size        Decimal Bytes (Attributes)
--------------------------------        ----        ----        ------- ----- ------------
.  .ABS.                            00000000    00000000 =           0. bytes (ABS,CON)

      Value  Global                              Global Defined In Module
      -----  --------------------------------   ------------------------
     00000007  ___bank_tileset_hud_ui             tileset_hud_ui
     00000007  l__HEADER2                      
     00000008  ___bank_bg_earth_burnclaw_forest   bg_earth_burnclaw_forest_til
     00000008  ___bank_scene_19_sprites           scene_19_sprites
     00000008  ___bank_sprite_perlite_animated    sprite_perlite_animated
     00000008  b_platform_init                    platform
     00000008  b_platform_update                  platform
     00000008  l__HEADER3                      
     00000009  ___bank_bg_earth_shuttle_bay_upp   bg_earth_shuttle_bay_upper_t
     00000009  ___bank_scene_26_sprites           scene_26_sprites
     00000009  ___bank_scene_40_init              scene_40_init
     00000009  b_set_sgb_border                   sgb_border
     0000000A  ___bank_ACTOR                      actor
     0000000A  ___bank_bg_earth_shuttle_bay_upp   bg_earth_shuttle_bay_upper_t
     0000000A  ___bank_bg_luna_water_heater_til   bg_luna_water_heater_tileset
     0000000A  ___bank_scene_27_sprites           scene_27_sprites
     0000000A  b_activate_actor                   actor
     0000000A  b_activate_actors_in_col           actor
     0000000A  b_activate_actors_in_row           actor
     0000000A  b_actor_at_tile                    actor
     0000000A  b_actor_get_frame_offset           actor
     0000000A  b_actor_in_front_of_player         actor
     0000000A  b_actor_overlapping_bb             actor
     0000000A  b_actor_overlapping_player         actor
     0000000A  b_actor_set_anim_idle              actor
     0000000A  b_actor_set_anim_moving            actor
     0000000A  b_actor_set_dir                    actor
     0000000A  b_actor_set_frame_offset           actor
     0000000A  b_actor_set_frames                 actor
     0000000A  b_actors_handle_player_collision   actor
     0000000A  b_actors_init                      actor
     0000000A  b_check_collision_in_direction     actor
     0000000A  b_deactivate_actor                 actor
     0000000A  b_player_init                      actor
     0000000B  ___bank_SGB_border_chr             border
     0000000B  ___bank_SGB_border_map             border
     0000000B  ___bank_SGB_border_pal             border
     0000000B  ___bank_bg_blight_s_memory_p1      bg_blight_s_memory_p1
     0000000B  ___bank_scene_11_collisions        scene_11_collisions
     0000000B  ___bank_scene_17_init              scene_17_init
     0000000C  ___bank_bg_earth_level_1_intro_t   bg_earth_level_1_intro_tilem
     0000000C  ___bank_scene_14_collisions        scene_14_collisions
     0000000C  ___bank_scene_6_sprites            scene_6_sprites
     0000000C  ___bank_song_featherfire_deprese   song_featherfire_depresed_0_
     0000000D  ___bank_bg_luna_serenity_waterfr   bg_luna_serenity_waterfront_
     0000000D  ___bank_scene_10_triggers          scene_10_triggers
     0000000D  ___bank_scene_43_actors            scene_43_actors
     0000000D  ___bank_song_blight_of_light_0_D   song_blight_of_light_0_Data
     0000000E  ___bank_bg_luna_serenity_waterfr   bg_luna_serenity_waterfront_
     0000000E  ___bank_scene_11_triggers          scene_11_triggers
     0000000E  ___bank_scene_6_actors             scene_6_actors
ASxxxx Linker V03.00/V05.40 + sdld,  page 4.
Hexadecimal  [32-Bits]

Area                                    Addr        Size        Decimal Bytes (Attributes)
--------------------------------        ----        ----        ------- ----- ------------
.  .ABS.                            00000000    00000000 =           0. bytes (ABS,CON)

      Value  Global                              Global Defined In Module
      -----  --------------------------------   ------------------------
     0000000E  ___bank_song_featherfire_deprese   song_featherfire_depresed_Da
     0000000F  ___bank_bg_luna_peryil_s_house_t   bg_luna_peryil_s_house_tilem
     0000000F  ___bank_bg_luna_water_heater_til   bg_luna_water_heater_tilemap
     0000000F  ___bank_scene_29_sprites           scene_29_sprites
     0000000F  ___bank_sprite_jem_animated        sprite_jem_animated
     00000010  ___bank_bg_hud_ui_tilemap_attr     bg_hud_ui_tilemap_attr
     00000010  ___bank_bg_luna_peryil_s_house_t   bg_luna_peryil_s_house_tilem
     00000010  ___bank_bg_luna_water_heater_til   bg_luna_water_heater_tilemap
     00000010  ___bank_scene_14_triggers          scene_14_triggers
     00000011  ___bank_bg_hud_ui_tilemap          bg_hud_ui_tilemap
     00000011  ___bank_bg_mercury_landing_site_   bg_mercury_landing_site_tile
     00000011  ___bank_scene_15_triggers          scene_15_triggers
     00000011  ___bank_scene_17_collisions        scene_17_collisions
     00000012  ___bank_bg_jems_background_tilem   bg_jems_background_tilemap_a
     00000012  ___bank_bg_mercury_landing_site_   bg_mercury_landing_site_tile
     00000012  ___bank_scene_19_collisions        scene_19_collisions
     00000012  ___bank_scene_27_triggers          scene_27_triggers
     00000013  ___bank_bg_jems_background_tilem   bg_jems_background_tilemap
     00000013  ___bank_bg_mercury_overflow_pass   bg_mercury_overflow_passage_
     00000013  ___bank_scene_20_collisions        scene_20_collisions
     00000013  ___bank_scene_43_triggers          scene_43_triggers
     00000014  ___bank_bg_menu_load_background_   bg_menu_load_background_tile
     00000014  ___bank_bg_mercury_overflow_pass   bg_mercury_overflow_passage_
     00000014  ___bank_scene_29_collisions        scene_29_collisions
     00000014  ___bank_script_timer_89            script_timer_89
     00000015  ___bank_bg_menu_load_background_   bg_menu_load_background_tile
     00000015  ___bank_bg_mercury_poison_proces   bg_mercury_poison_processin_
     00000015  ___bank_scene_1_projectiles        scene_1_projectiles
     00000015  ___bank_scene_30_collisions        scene_30_collisions
     00000016  ___bank_bg_mercury_poison_proces   bg_mercury_poison_processin_
     00000016  ___bank_bg_placeholder_tilemap_a   bg_placeholder_tilemap_attr
     00000016  ___bank_scene_10_projectiles       scene_10_projectiles
     00000016  ___bank_scene_39_collisions        scene_39_collisions
     00000017  ___bank_bg_mercury_poison_storag   bg_mercury_poison_storage_ti
     00000017  ___bank_bg_placeholder_tilemap     bg_placeholder_tilemap
     00000017  ___bank_scene_11_projectiles       scene_11_projectiles
     00000017  ___bank_scene_52_collisions        scene_52_collisions
     00000018  ___bank_bg_mercury_poison_storag   bg_mercury_poison_storage_ti
     00000018  ___bank_bg_temporal_light_backgr   bg_temporal_light_backgroun_
     00000018  ___bank_scene_12_projectiles       scene_12_projectiles
     00000018  ___bank_scene_53_collisions        scene_53_collisions
     00000019  ___bank_bg_mercury_projectile_pl   bg_mercury_projectile_platf_
     00000019  ___bank_bg_platformer_test01_til   bg_platformer_test01_tilemap
     00000019  ___bank_scene_52_init              scene_52_init
     00000019  ___bank_trigger_180_interact       trigger_180_interact
     0000001A  ___bank_bg_luna_sewer_system_til   bg_luna_sewer_system_tileset
     0000001A  ___bank_bg_mercury_projectile_pl   bg_mercury_projectile_platf_
     0000001A  ___bank_bg_platformer_test01_til   bg_platformer_test01_tilemap
     0000001A  ___bank_scene_19_init              scene_19_init
     0000001A  l__INITIALIZED                  
     0000001A  l__INITIALIZER                  
ASxxxx Linker V03.00/V05.40 + sdld,  page 5.
Hexadecimal  [32-Bits]

Area                                    Addr        Size        Decimal Bytes (Attributes)
--------------------------------        ----        ----        ------- ----- ------------
.  .ABS.                            00000000    00000000 =           0. bytes (ABS,CON)

      Value  Global                              Global Defined In Module
      -----  --------------------------------   ------------------------
     0000001B  ___bank_bg_mercury_viewing_area_   bg_mercury_viewing_area_tile
     0000001B  ___bank_bg_venus_dropshaft_0_til   bg_venus_dropshaft_0_tileset
     0000001B  ___bank_scene_8_collisions         scene_8_collisions
     0000001B  ___bank_trigger_184_interact       trigger_184_interact
     0000001C  ___bank_bg_blight_s_memory_p1_ti   bg_blight_s_memory_p1_tilese
     0000001C  ___bank_bg_mercury_viewing_area_   bg_mercury_viewing_area_tile
     0000001C  ___bank_script_timer_0             script_timer_0
     0000001C  ___bank_song_featherfire_deprese   song_featherfire_depresed0_D
     0000001D  ___bank_actor_44_update            actor_44_update
     0000001D  ___bank_scene_22_collisions        scene_22_collisions
     0000001D  ___bank_scene_30_sprites           scene_30_sprites
     0000001D  ___bank_script_7                   script_7
     0000001D  ___bank_song_featherfire_ember_D   song_featherfire_ember_Data
     0000001E  ___bank_VM_GAMEBOY                 vm_gameboy
     0000001E  ___bank_scene_25_collisions        scene_25_collisions
     0000001E  ___bank_script_timer_10            script_timer_10
     0000001E  ___bank_song_featherfire_cedric_   song_featherfire_cedric_Data
     0000001E  b_vm_context_prepare               vm_gameboy
     0000001E  b_vm_fade                          vm_gameboy
     0000001E  b_vm_get_tile_xy                   vm_gameboy
     0000001E  b_vm_input_attach                  vm_gameboy
     0000001E  b_vm_input_detach                  vm_gameboy
     0000001E  b_vm_input_get                     vm_gameboy
     0000001E  b_vm_input_wait                    vm_gameboy
     0000001E  b_vm_load_tileset                  vm_gameboy
     0000001E  b_vm_poll                          vm_gameboy
     0000001E  b_vm_replace_tile                  vm_gameboy
     0000001E  b_vm_replace_tile_xy               vm_gameboy
     0000001E  b_vm_rumble                        vm_gameboy
     0000001E  b_vm_set_sprite_mode               vm_gameboy
     0000001E  b_vm_set_sprites_visible           vm_gameboy
     0000001E  b_vm_timer_prepare                 vm_gameboy
     0000001E  b_vm_timer_reset                   vm_gameboy
     0000001E  b_vm_timer_set                     vm_gameboy
     0000001E  b_vm_timer_stop                    vm_gameboy
     0000001F  ___bank_VM_ACTOR                   vm_actor
     0000001F  ___bank_scene_31_collisions        scene_31_collisions
     0000001F  ___bank_script_timer_11            script_timer_11
     0000001F  b_adventure_init                   adventure
     0000001F  b_adventure_update                 adventure
     0000001F  b_vm_actor_activate                vm_actor
     0000001F  b_vm_actor_begin_update            vm_actor
     0000001F  b_vm_actor_deactivate              vm_actor
     0000001F  b_vm_actor_emote                   vm_actor
     0000001F  b_vm_actor_get_angle               vm_actor
     0000001F  b_vm_actor_get_anim_frame          vm_actor
     0000001F  b_vm_actor_get_dir                 vm_actor
     0000001F  b_vm_actor_get_pos                 vm_actor
     0000001F  b_vm_actor_move_cancel             vm_actor
     0000001F  b_vm_actor_move_to                 vm_actor
     0000001F  b_vm_actor_replace_tile            vm_actor
ASxxxx Linker V03.00/V05.40 + sdld,  page 6.
Hexadecimal  [32-Bits]

Area                                    Addr        Size        Decimal Bytes (Attributes)
--------------------------------        ----        ----        ------- ----- ------------
.  .ABS.                            00000000    00000000 =           0. bytes (ABS,CON)

      Value  Global                              Global Defined In Module
      -----  --------------------------------   ------------------------
     0000001F  b_vm_actor_set_anim                vm_actor
     0000001F  b_vm_actor_set_anim_frame          vm_actor
     0000001F  b_vm_actor_set_anim_set            vm_actor
     0000001F  b_vm_actor_set_anim_tick           vm_actor
     0000001F  b_vm_actor_set_bounds              vm_actor
     0000001F  b_vm_actor_set_dir                 vm_actor
     0000001F  b_vm_actor_set_flags               vm_actor
     0000001F  b_vm_actor_set_move_speed          vm_actor
     0000001F  b_vm_actor_set_pos                 vm_actor
     0000001F  b_vm_actor_set_spritesheet         vm_actor
     0000001F  b_vm_actor_set_spritesheet_by_re   vm_actor
     0000001F  b_vm_actor_terminate_update        vm_actor
     00000020  ___bank_bg_earth_burnclaw_forest   bg_earth_burnclaw_forest_ca_
     00000020  ___bank_bg_earth_burnclaw_forest   bg_earth_burnclaw_forest_cr_
     00000020  ___bank_scene_28_projectiles       scene_28_projectiles
     00000020  ___bank_scene_33_collisions        scene_33_collisions
     00000021  ___bank_VM_UI                      vm_ui
     00000021  ___bank_bg_earth_burnclaw_forest   bg_earth_burnclaw_forest_ca_
     00000021  ___bank_scene_34_collisions        scene_34_collisions
     00000021  ___bank_scene_51_triggers          scene_51_triggers
     00000021  b_vm_choice                        vm_ui
     00000021  b_vm_display_text                  vm_ui
     00000021  b_vm_overlay_clear                 vm_ui
     00000021  b_vm_overlay_move_to               vm_ui
     00000021  b_vm_overlay_scroll                vm_ui
     00000021  b_vm_overlay_set_map               vm_ui
     00000021  b_vm_overlay_set_scroll            vm_ui
     00000021  b_vm_overlay_set_submap            vm_ui
     00000021  b_vm_overlay_set_submap_ex         vm_ui
     00000021  b_vm_overlay_setpos                vm_ui
     00000021  b_vm_overlay_show                  vm_ui
     00000021  b_vm_overlay_wait                  vm_ui
     00000021  b_vm_set_font                      vm_ui
     00000021  b_vm_set_text_sound                vm_ui
     00000021  b_vm_switch_text_layer             vm_ui
     00000022  ___bank_bg_luna_serenity_cave_up   bg_luna_serenity_cave_upper_
     00000022  ___bank_scene_35_collisions        scene_35_collisions
     00000022  ___bank_script_input_0             script_input_0
     00000022  b_scroll_init                      scroll
     00000022  b_scroll_repaint                   scroll
     00000022  b_scroll_reset                     scroll
     00000022  b_scroll_update                    scroll
     00000023  ___bank_bg_luna_serenity_cave_up   bg_luna_serenity_cave_upper_
     00000023  ___bank_scene_36_collisions        scene_36_collisions
     00000023  ___bank_script_input_9             script_input_9
     00000023  ___bank_trigger_190_interact       trigger_190_interact
     00000023  b_topdown_init                     topdown
     00000023  b_topdown_update                   topdown
     00000024  ___bank_bg_jems_background_tiles   bg_jems_background_tileset
     00000024  ___bank_bg_luna_serenity_forest_   bg_luna_serenity_forest_tile
     00000024  ___bank_scene_31_sprites           scene_31_sprites
ASxxxx Linker V03.00/V05.40 + sdld,  page 7.
Hexadecimal  [32-Bits]

Area                                    Addr        Size        Decimal Bytes (Attributes)
--------------------------------        ----        ----        ------- ----- ------------
.  .ABS.                            00000000    00000000 =           0. bytes (ABS,CON)

      Value  Global                              Global Defined In Module
      -----  --------------------------------   ------------------------
     00000024  ___bank_scene_37_collisions        scene_37_collisions
     00000024  ___bank_script_input_21            script_input_21
     00000025  ___bank_scene_45_init              scene_45_init
     00000025  ___bank_script_3                   script_3
     00000025  ___bank_song_alchemist_energy_0_   song_alchemist_energy_0_Data
     00000025  ___bank_song_lunabound_Data        song_lunabound_Data
     00000026  ___bank_bg_luna_serenity_forest_   bg_luna_serenity_forest_tile
     00000026  ___bank_scene_12_triggers          scene_12_triggers
     00000026  ___bank_song_alchemist_energy_ba   song_alchemist_energy_battl_
     00000026  ___bank_song_wolfsbane_castle_Da   song_wolfsbane_castle_Data
     00000027  ___bank_bg_luna_serenity_outskir   bg_luna_serenity_outskirts_t
     00000027  ___bank_bg_luna_serenity_outskir   bg_luna_serenity_outskirts_t
     00000027  ___bank_bg_luna_sewer_system_til   bg_luna_sewer_system_tilemap
     00000027  ___bank_scene_34_sprites           scene_34_sprites
     00000027  ___bank_scene_55_init              scene_55_init
     00000027  ___bank_trigger_120_interact       trigger_120_interact
     00000027  l__GSINIT                       
     00000028  ___bank_bg_luna_sewer_system_til   bg_luna_sewer_system_tilemap
     00000028  ___bank_bg_temporal_light_backgr   bg_temporal_light_backgroun_
     00000028  ___bank_bg_venus_ac_ventilation_   bg_venus_ac_ventilation_tile
     00000028  ___bank_bg_venus_ac_ventilation_   bg_venus_ac_ventilation_tile
     00000028  ___bank_scene_30_init              scene_30_init
     00000028  ___bank_scene_43_sprites           scene_43_sprites
     00000029  ___bank_actor_46_update            actor_46_update
     00000029  ___bank_bg_title_tilemap_attr      bg_title_tilemap_attr
     00000029  ___bank_bg_venus_ac_ventilation2   bg_venus_ac_ventilation2_til
     00000029  ___bank_bg_venus_ac_ventilation2   bg_venus_ac_ventilation2_til
     00000029  ___bank_bg_venus_office_access_t   bg_venus_office_access_tilem
     00000029  ___bank_script_timer_12            script_timer_12
     0000002A  ___bank_bg_earth_shuttle_bay_wat   bg_earth_shuttle_bay_water_t
     0000002A  ___bank_bg_title_tilemap           bg_title_tilemap
     0000002A  ___bank_bg_venus_office_access_t   bg_venus_office_access_tilem
     0000002A  ___bank_bg_venus_police_departme   bg_venus_police_department__
     0000002A  ___bank_bg_venus_police_departme   bg_venus_police_department__
     0000002A  ___bank_scene_13_projectiles       scene_13_projectiles
     0000002B  ___bank_bg_earth_shuttle_bay_wat   bg_earth_shuttle_bay_water_t
     0000002B  ___bank_bg_venus_office_tilemap_   bg_venus_office_tilemap_attr
     0000002B  ___bank_scene_14_projectiles       scene_14_projectiles
     0000002B  ___bank_scene_15_collisions        scene_15_collisions
     0000002B  ___bank_scene_21_collisions        scene_21_collisions
     0000002B  ___bank_scene_23_collisions        scene_23_collisions
     0000002C  ___bank_bg_mercury_secret_area_t   bg_mercury_secret_area_tilem
     0000002C  ___bank_bg_venus_office_tilemap    bg_venus_office_tilemap
     0000002C  ___bank_scene_15_projectiles       scene_15_projectiles
     0000002C  ___bank_scene_24_collisions        scene_24_collisions
     0000002C  ___bank_scene_26_collisions        scene_26_collisions
     0000002C  ___bank_scene_43_collisions        scene_43_collisions
     0000002D  ___bank_bg_mercury_secret_area_t   bg_mercury_secret_area_tilem
     0000002D  ___bank_bg_warning_tilemap_attr    bg_warning_tilemap_attr
     0000002D  ___bank_scene_16_projectiles       scene_16_projectiles
     0000002D  ___bank_scene_44_collisions        scene_44_collisions
ASxxxx Linker V03.00/V05.40 + sdld,  page 8.
Hexadecimal  [32-Bits]

Area                                    Addr        Size        Decimal Bytes (Attributes)
--------------------------------        ----        ----        ------- ----- ------------
.  .ABS.                            00000000    00000000 =           0. bytes (ABS,CON)

      Value  Global                              Global Defined In Module
      -----  --------------------------------   ------------------------
     0000002D  ___bank_scene_45_collisions        scene_45_collisions
     0000002D  ___bank_scene_46_collisions        scene_46_collisions
     0000002E  ___bank_scene_54_collisions        scene_54_collisions
     0000002E  ___bank_scene_55_collisions        scene_55_collisions
     0000002E  ___bank_script_11                  script_11
     0000002E  ___bank_script_4                   script_4
     0000002E  ___bank_sprite_lava_tileset        sprite_lava_tileset
     0000002F  ___bank_bg_earth_shuttle_bay_til   bg_earth_shuttle_bay_tilemap
     0000002F  ___bank_font_gbs_mono              font_gbs_mono
     0000002F  ___bank_scene_36_sprites           scene_36_sprites
     0000002F  ___bank_scene_39_init              scene_39_init
     0000002F  ___bank_song_unknown_wilds_Data    song_unknown_wilds_Data
     00000030  ___bank_bg_earth_shuttle_bay_til   bg_earth_shuttle_bay_tilemap
     00000030  ___bank_scene_37_sprites           scene_37_sprites
     00000030  ___bank_scene_9_collisions         scene_9_collisions
     00000030  ___bank_song_uncertain_wilds_0_D   song_uncertain_wilds_0_Data
     00000030  ___bank_song_wolf_city_distiorti   song_wolf_city_distiortion__
     00000030  b_CGBZeroPalette                   palette
     00000030  b_SGBTransferPalettes              palette
     00000030  b_palette_init                     palette
     00000030  l__HEADER7                      
     00000031  ___bank_VM_MAIN                    vm
     00000031  ___bank_actor_37_update            actor_37_update
     00000031  ___bank_bg_earth_burnclaw_forest   bg_earth_burnclaw_forest_cr_
     00000031  ___bank_song_taking_flight_0_Dat   song_taking_flight_0_Data
     00000031  ___bank_song_uncertain_wilds_cop   song_uncertain_wilds_copy_Da
     00000031  ___bank_sprite_jem_animated_0      sprite_jem_animated_0
     00000031  b_script_detach_hthread            vm
     00000031  b_script_execute                   vm
     00000031  b_script_runner_init               vm
     00000031  b_script_terminate                 vm
     00000031  b_vm_call                          vm
     00000031  b_vm_call_far                      vm
     00000031  b_vm_get_indirect                  vm
     00000031  b_vm_get_tlocal                    vm
     00000031  b_vm_idle                          vm
     00000031  b_vm_if                            vm
     00000031  b_vm_if_const                      vm
     00000031  b_vm_init_rng                      vm
     00000031  b_vm_invoke                        vm
     00000031  b_vm_join                          vm
     00000031  b_vm_jump                          vm
     00000031  b_vm_lock                          vm
     00000031  b_vm_loop                          vm
     00000031  b_vm_memcpy                        vm
     00000031  b_vm_memset                        vm
     00000031  b_vm_poll_loaded                   vm
     00000031  b_vm_pop                           vm
     00000031  b_vm_push                          vm
     00000031  b_vm_push_reference                vm
     00000031  b_vm_push_value                    vm
ASxxxx Linker V03.00/V05.40 + sdld,  page 9.
Hexadecimal  [32-Bits]

Area                                    Addr        Size        Decimal Bytes (Attributes)
--------------------------------        ----        ----        ------- ----- ------------
.  .ABS.                            00000000    00000000 =           0. bytes (ABS,CON)

      Value  Global                              Global Defined In Module
      -----  --------------------------------   ------------------------
     00000031  b_vm_push_value_ind                vm
     00000031  b_vm_raise                         vm
     00000031  b_vm_rand                          vm
     00000031  b_vm_reserve                       vm
     00000031  b_vm_ret                           vm
     00000031  b_vm_ret_far                       vm
     00000031  b_vm_set                           vm
     00000031  b_vm_set_const                     vm
     00000031  b_vm_set_indirect                  vm
     00000031  b_vm_terminate                     vm
     00000031  b_vm_test_terminate                vm
     00000031  b_vm_unlock                        vm
     00000031  b_wait_frames                      vm
     00000032  ___bank_bg_luna_serenity_cave_lo   bg_luna_serenity_cave_lower_
     00000032  ___bank_bg_luna_serenity_cave_lo   bg_luna_serenity_cave_lower_
     00000032  ___bank_bg_mercury_throne_room_t   bg_mercury_throne_room_tilem
     00000032  ___bank_scene_27_collisions        scene_27_collisions
     00000032  ___bank_script_13                  script_13
     00000033  ___bank_actor_14_interact          actor_14_interact
     00000033  ___bank_bg_earth_shuttle_bay_til   bg_earth_shuttle_bay_tileset
     00000033  ___bank_bg_luna_peryil_s_house_t   bg_luna_peryil_s_house_tiles
     00000033  ___bank_bg_mercury_overflow_pass   bg_mercury_overflow_passage_
     00000033  ___bank_bg_mercury_throne_room_t   bg_mercury_throne_room_tilem
     00000033  ___bank_scene_38_collisions        scene_38_collisions
     00000033  b_pointnclick_init                 pointnclick
     00000033  b_pointnclick_update               pointnclick
     00000034  ___bank_bg_earth_distortion_moun   bg_earth_distortion_mountai_
     00000034  ___bank_bg_luna_serenity_forest_   bg_luna_serenity_forest_tile
     00000034  ___bank_bg_mercury_throne_room_t   bg_mercury_throne_room_tiles
     00000034  ___bank_bg_mercury_viewing_area_   bg_mercury_viewing_area_tile
     00000034  ___bank_scene_28_init              scene_28_init
     00000034  ___bank_trigger_181_interact       trigger_181_interact
     00000034  b_do_load_palette                  data_manager
     00000034  b_load_background                  data_manager
     00000034  b_load_bkg_tileset                 data_manager
     00000034  b_load_bounds                      data_manager
     00000034  b_load_emote                       data_manager
     00000034  b_load_init                        data_manager
     00000034  b_load_player                      data_manager
     00000034  b_load_scene                       data_manager
     00000034  b_load_sprite                      data_manager
     00000035  ___bank_bg_menu_load_background_   bg_menu_load_background_tile
     00000035  ___bank_bg_mercury_poison_storag   bg_mercury_poison_storage_ti
     00000035  ___bank_bg_venus_defence_tunnel_   bg_venus_defence_tunnel_tile
     00000035  ___bank_bg_venus_defence_tunnel_   bg_venus_defence_tunnel_tile
     00000035  ___bank_bg_venus_dropshaft_0_til   bg_venus_dropshaft_0_tilemap
     00000035  ___bank_bg_venus_evidence_room_t   bg_venus_evidence_room_tilem
     00000035  ___bank_scene_29_init              scene_29_init
     00000035  ___bank_script_input_30            script_input_30
     00000036  ___bank_bg_venus_dropshaft_0_til   bg_venus_dropshaft_0_tilemap
     00000036  ___bank_bg_venus_dropshaft_1_til   bg_venus_dropshaft_1_tilemap
ASxxxx Linker V03.00/V05.40 + sdld,  page 10.
Hexadecimal  [32-Bits]

Area                                    Addr        Size        Decimal Bytes (Attributes)
--------------------------------        ----        ----        ------- ----- ------------
.  .ABS.                            00000000    00000000 =           0. bytes (ABS,CON)

      Value  Global                              Global Defined In Module
      -----  --------------------------------   ------------------------
     00000036  ___bank_bg_venus_dropshaft_1_til   bg_venus_dropshaft_1_tilemap
     00000036  ___bank_bg_venus_evidence_room_t   bg_venus_evidence_room_tilem
     00000036  ___bank_bg_warning_tilemap         bg_warning_tilemap
     00000036  ___bank_scene_21_projectiles       scene_21_projectiles
     00000036  ___bank_scene_47_collisions        scene_47_collisions
     00000036  ___bank_scene_49_collisions        scene_49_collisions
     00000036  ___bank_scene_50_collisions        scene_50_collisions
     00000037  ___bank_bg_earth_burnclaw_forest   bg_earth_burnclaw_forest_cr_
     00000037  ___bank_bg_earth_burnclaw_forest   bg_earth_burnclaw_forest_til
     00000037  ___bank_bg_earth_level_1_intro_t   bg_earth_level_1_intro_tiles
     00000037  ___bank_bg_mercury_landing_site_   bg_mercury_landing_site_tile
     00000037  ___bank_bg_mercury_poison_proces   bg_mercury_poison_processin_
     00000037  ___bank_scene_12_collisions        scene_12_collisions
     00000037  ___bank_scene_32_collisions        scene_32_collisions
     00000037  ___bank_scene_34_triggers          scene_34_triggers
     00000037  ___bank_scene_51_collisions        scene_51_collisions
     00000037  b_shmup_init                       shmup
     00000037  b_shmup_update                     shmup
     00000038  ___bank_bg_earth_shuttle_bay_wat   bg_earth_shuttle_bay_water_t
     00000038  ___bank_bg_hud_ui_tileset          bg_hud_ui_tileset
     00000038  ___bank_bg_luna_serenity_cave_up   bg_luna_serenity_cave_upper_
     00000038  ___bank_bg_luna_serenity_outskir   bg_luna_serenity_outskirts_t
     00000038  ___bank_bg_mercury_secret_area_t   bg_mercury_secret_area_tiles
     00000038  ___bank_bg_venus_ac_ventilation_   bg_venus_ac_ventilation_tile
     00000038  ___bank_bg_venus_office_access_t   bg_venus_office_access_tiles
     00000038  ___bank_bg_venus_police_departme   bg_venus_police_department__
     00000038  ___bank_scene_16_collisions        scene_16_collisions
     00000038  ___bank_scene_16_init              scene_16_init
     00000038  ___bank_scene_18_init              scene_18_init
     00000038  ___bank_scene_47_sprites           scene_47_sprites
     00000038  ___bank_scene_53_init              scene_53_init
     00000038  b_projectile_launch                projectiles
     00000038  b_projectiles_init                 projectiles
     00000039  ___bank_VM_CAMERA                  vm_camera
     00000039  ___bank_bg_blight_s_memory_p1_ti   bg_blight_s_memory_p1_tilema
     00000039  ___bank_bg_blight_s_memory_p1_ti   bg_blight_s_memory_p1_tilema
     00000039  ___bank_bg_earth_burnclaw_forest   bg_earth_burnclaw_forest_ca_
     00000039  ___bank_bg_earth_shuttle_bay_sec   bg_earth_shuttle_bay_secret_
     00000039  ___bank_bg_earth_shuttle_bay_upp   bg_earth_shuttle_bay_upper_t
     00000039  ___bank_bg_luna_serenity_cave_lo   bg_luna_serenity_cave_lower_
     00000039  ___bank_bg_platformer_test01_til   bg_platformer_test01_tileset
     00000039  ___bank_bg_venus_dropshaft_1_til   bg_venus_dropshaft_1_tileset
     00000039  ___bank_bg_venus_evidence_room_t   bg_venus_evidence_room_tiles
     00000039  ___bank_scene_31_init              scene_31_init
     00000039  ___bank_scene_40_collisions        scene_40_collisions
     00000039  ___bank_scene_43_init              scene_43_init
     00000039  b___HandleCrash_banked             
     00000039  b_camera_shake_frames              vm_camera
     00000039  b_core_reset                       core
     00000039  b_core_run                         core
     00000039  b_data_clear                       load_save
ASxxxx Linker V03.00/V05.40 + sdld,  page 11.
Hexadecimal  [32-Bits]

Area                                    Addr        Size        Decimal Bytes (Attributes)
--------------------------------        ----        ----        ------- ----- ------------
.  .ABS.                            00000000    00000000 =           0. bytes (ABS,CON)

      Value  Global                              Global Defined In Module
      -----  --------------------------------   ------------------------
     00000039  b_data_init                        load_save
     00000039  b_data_load                        load_save
     00000039  b_data_peek                        load_save
     00000039  b_data_save                        load_save
     00000039  b_remove_LCD_ISRs                  interrupts
     00000039  b_trigger_activate_at              trigger
     00000039  b_trigger_activate_at_intersecti   trigger
     00000039  b_trigger_at_intersection          trigger
     00000039  b_trigger_at_tile                  trigger
     00000039  b_trigger_interact                 trigger
     00000039  b_trigger_reset                    trigger
     00000039  b_vm_camera_move_to                vm_camera
     00000039  b_vm_camera_set_pos                vm_camera
     0000003A  ___bank_VM_PALETTE                 vm_palette
     0000003A  ___bank_VM_SIO                     vm_sio
     0000003A  ___bank_actor_23_interact          actor_23_interact
     0000003A  ___bank_avatar_font_0              avatar_font_0
     0000003A  ___bank_bg_earth_level_1_intro_t   bg_earth_level_1_intro_tilem
     0000003A  ___bank_bg_luna_boss_room_tilese   bg_luna_boss_room_tileset
     0000003A  ___bank_bg_venus_ac_ventilation2   bg_venus_ac_ventilation2_til
     0000003A  ___bank_bg_venus_defence_tunnel_   bg_venus_defence_tunnel_tile
     0000003A  ___bank_bg_venus_office_tileset    bg_venus_office_tileset
     0000003A  ___bank_scene_18_collisions        scene_18_collisions
     0000003A  ___bank_scene_20_triggers          scene_20_triggers
     0000003A  ___bank_scene_21_init              scene_21_init
     0000003A  ___bank_scene_23_init              scene_23_init
     0000003A  ___bank_scene_51_init              scene_51_init
     0000003A  ___bank_scene_54_init              scene_54_init
     0000003A  ___bank_scene_9_init               scene_9_init
     0000003A  ___bank_script_8                   script_8
     0000003A  ___bank_script_9                   script_9
     0000003A  ___bank_script_input_24            script_input_24
     0000003A  ___bank_sprite_ember_foxphoenix    sprite_ember_foxphoenix
     0000003A  ___bank_sprite_ember_phoenix_cop   sprite_ember_phoenix_copy
     0000003A  ___bank_sprite_ember_phoenix_cop   sprite_ember_phoenix_copy_ti
     0000003A  ___bank_sprite_ember_stationary    sprite_ember_stationary
     0000003A  ___bank_sprite_number_ui_tileset   sprite_number_ui_tileset
     0000003A  ___bank_sprite_perlite_animated_   sprite_perlite_animated_tile
     0000003A  ___bank_sprite_sly_slimeball_cop   sprite_sly_slimeball_copy
     0000003A  ___bank_trigger_215_interact       trigger_215_interact
     0000003A  b_atan2                            math_atan2
     0000003A  b_fade_applypalettechange          fade_manager
     0000003A  b_fade_in                          fade_manager
     0000003A  b_fade_in_modal                    fade_manager
     0000003A  b_fade_init                        fade_manager
     0000003A  b_fade_out                         fade_manager
     0000003A  b_fade_out_modal                   fade_manager
     0000003A  b_fade_setspeed                    fade_manager
     0000003A  b_fade_update                      fade_manager
     0000003A  b_gbprinter_detect                 gbprinter
     0000003A  b_gbprinter_print_overlay          gbprinter
ASxxxx Linker V03.00/V05.40 + sdld,  page 12.
Hexadecimal  [32-Bits]

Area                                    Addr        Size        Decimal Bytes (Attributes)
--------------------------------        ----        ----        ------- ----- ------------
.  .ABS.                            00000000    00000000 =           0. bytes (ABS,CON)

      Value  Global                              Global Defined In Module
      -----  --------------------------------   ------------------------
     0000003A  b_vm_load_palette                  vm_palette
     0000003A  b_vm_sio_exchange                  vm_sio
     0000003A  b_vm_sio_set_mode                  vm_sio
     0000003B  ___bank_VM_MATH                    vm_math
     0000003B  ___bank_VM_MUSIC                   vm_music
     0000003B  ___bank_actor_18_interact          actor_18_interact
     0000003B  ___bank_actor_19_interact          actor_19_interact
     0000003B  ___bank_actor_20_interact          actor_20_interact
     0000003B  ___bank_actor_21_interact          actor_21_interact
     0000003B  ___bank_actor_22_interact          actor_22_interact
     0000003B  ___bank_actor_24_update            actor_24_update
     0000003B  ___bank_actor_2_interact           actor_2_interact
     0000003B  ___bank_actor_39_interact          actor_39_interact
     0000003B  ___bank_actor_3_interact           actor_3_interact
     0000003B  ___bank_actor_40_interact          actor_40_interact
     0000003B  ___bank_actor_41_interact          actor_41_interact
     0000003B  ___bank_actor_4_interact           actor_4_interact
     0000003B  ___bank_actor_55_interact          actor_55_interact
     0000003B  ___bank_actor_57_interact          actor_57_interact
     0000003B  ___bank_actor_59_interact          actor_59_interact
     0000003B  ___bank_actor_5_interact           actor_5_interact
     0000003B  ___bank_actor_6_interact           actor_6_interact
     0000003B  ___bank_bg_earth_shuttle_bay_sec   bg_earth_shuttle_bay_secret_
     0000003B  ___bank_bg_earth_shuttle_bay_sec   bg_earth_shuttle_bay_secret_
     0000003B  ___bank_bg_luna_boss_room_tilema   bg_luna_boss_room_tilemap
     0000003B  ___bank_bg_luna_boss_room_tilema   bg_luna_boss_room_tilemap_at
     0000003B  ___bank_scene_10_collisions        scene_10_collisions
     0000003B  ___bank_scene_1_collisions         scene_1_collisions
     0000003B  ___bank_scene_20_init              scene_20_init
     0000003B  ___bank_scene_26_init              scene_26_init
     0000003B  ___bank_scene_28_collisions        scene_28_collisions
     0000003B  ___bank_scene_2_collisions         scene_2_collisions
     0000003B  ___bank_scene_3_collisions         scene_3_collisions
     0000003B  ___bank_scene_40_actors            scene_40_actors
     0000003B  ___bank_scene_41_collisions        scene_41_collisions
     0000003B  ___bank_scene_48_collisions        scene_48_collisions
     0000003B  ___bank_scene_4_collisions         scene_4_collisions
     0000003B  ___bank_scene_5_collisions         scene_5_collisions
     0000003B  ___bank_scene_6_collisions         scene_6_collisions
     0000003B  ___bank_scene_7_collisions         scene_7_collisions
     0000003B  ___bank_script_input_22            script_input_22
     0000003B  ___bank_sprite_actor_animated_ti   sprite_actor_animated_tilese
     0000003B  ___bank_sprite_cedric_tileset      sprite_cedric_tileset
     0000003B  ___bank_sprite_ember_dragon_copy   sprite_ember_dragon_copy
     0000003B  ___bank_sprite_ember_dragon_copy   sprite_ember_dragon_copy_til
     0000003B  ___bank_sprite_ember_foxphoenix_   sprite_ember_foxphoenix_tile
     0000003B  ___bank_sprite_ember_phoenix_top   sprite_ember_phoenix_topdow
     0000003B  ___bank_sprite_ember_phoenix_top   sprite_ember_phoenix_topdow_
     0000003B  ___bank_sprite_ember_stationary_   sprite_ember_stationary_tile
     0000003B  ___bank_sprite_flare_static_tile   sprite_flare_static_tileset
     0000003B  ___bank_sprite_jem_animated_tile   sprite_jem_animated_tileset
ASxxxx Linker V03.00/V05.40 + sdld,  page 13.
Hexadecimal  [32-Bits]

Area                                    Addr        Size        Decimal Bytes (Attributes)
--------------------------------        ----        ----        ------- ----- ------------
.  .ABS.                            00000000    00000000 =           0. bytes (ABS,CON)

      Value  Global                              Global Defined In Module
      -----  --------------------------------   ------------------------
     0000003B  ___bank_sprite_light_animated_co   sprite_light_animated_copy_t
     0000003B  ___bank_sprite_sly_slimeball_cop   sprite_sly_slimeball_copy_ti
     0000003B  b_erase_flash                      
     0000003B  b_parallax_init                    parallax
     0000003B  b_save_sram_banks                  
     0000003B  b_vm_cos_scale                     vm_math
     0000003B  b_vm_music_mute                    vm_music
     0000003B  b_vm_music_play                    vm_music
     0000003B  b_vm_music_routine                 vm_music
     0000003B  b_vm_music_setpos                  vm_music
     0000003B  b_vm_music_stop                    vm_music
     0000003B  b_vm_sfx_play                      vm_music
     0000003B  b_vm_sin_scale                     vm_math
     0000003B  b_vm_sound_mastervol               vm_music
     0000003C  ___bank_VM_GBPRINTER               vm_gbprinter
     0000003C  ___bank_VM_LOAD_SAVE               vm_load_save
     0000003C  ___bank_VM_PROJECTILE              vm_projectiles
     0000003C  ___bank_VM_RTC                     vm_rtc
     0000003C  ___bank_VM_SCENE                   vm_scene
     0000003C  ___bank_actor_45_update            actor_45_update
     0000003C  ___bank_actor_46_interact          actor_46_interact
     0000003C  ___bank_actor_60_interact          actor_60_interact
     0000003C  ___bank_actor_61_interact          actor_61_interact
     0000003C  ___bank_actor_7_interact           actor_7_interact
     0000003C  ___bank_actor_8_interact           actor_8_interact
     0000003C  ___bank_frame_image                frame_image
     0000003C  ___bank_scene_10_actors            scene_10_actors
     0000003C  ___bank_scene_11_actors            scene_11_actors
     0000003C  ___bank_scene_11_init              scene_11_init
     0000003C  ___bank_scene_14_init              scene_14_init
     0000003C  ___bank_scene_16_triggers          scene_16_triggers
     0000003C  ___bank_scene_19_actors            scene_19_actors
     0000003C  ___bank_scene_22_triggers          scene_22_triggers
     0000003C  ___bank_scene_25_init              scene_25_init
     0000003C  ___bank_scene_26_triggers          scene_26_triggers
     0000003C  ___bank_scene_28_p_hit1            scene_28_p_hit1
     0000003C  ___bank_scene_29_actors            scene_29_actors
     0000003C  ___bank_scene_33_actors            scene_33_actors
     0000003C  ___bank_scene_33_init              scene_33_init
     0000003C  ___bank_scene_35_actors            scene_35_actors
     0000003C  ___bank_scene_39_actors            scene_39_actors
     0000003C  ___bank_scene_40_projectiles       scene_40_projectiles
     0000003C  ___bank_scene_41_p_hit1            scene_41_p_hit1
     0000003C  ___bank_scene_42_init              scene_42_init
     0000003C  ___bank_scene_45_actors            scene_45_actors
     0000003C  ___bank_scene_47_actors            scene_47_actors
     0000003C  ___bank_scene_54_actors            scene_54_actors
     0000003C  ___bank_scene_6_init               scene_6_init
     0000003C  ___bank_script_1                   script_1
     0000003C  ___bank_script_2                   script_2
     0000003C  ___bank_script_engine_init         
ASxxxx Linker V03.00/V05.40 + sdld,  page 14.
Hexadecimal  [32-Bits]

Area                                    Addr        Size        Decimal Bytes (Attributes)
--------------------------------        ----        ----        ------- ----- ------------
.  .ABS.                            00000000    00000000 =           0. bytes (ABS,CON)

      Value  Global                              Global Defined In Module
      -----  --------------------------------   ------------------------
     0000003C  ___bank_script_input_12            script_input_12
     0000003C  ___bank_script_input_13            script_input_13
     0000003C  ___bank_script_input_14            script_input_14
     0000003C  ___bank_script_input_15            script_input_15
     0000003C  ___bank_script_input_16            script_input_16
     0000003C  ___bank_script_input_17            script_input_17
     0000003C  ___bank_script_input_18            script_input_18
     0000003C  ___bank_script_input_19            script_input_19
     0000003C  ___bank_script_input_20            script_input_20
     0000003C  ___bank_script_input_23            script_input_23
     0000003C  ___bank_script_input_25            script_input_25
     0000003C  ___bank_script_input_26            script_input_26
     0000003C  ___bank_script_input_28            script_input_28
     0000003C  ___bank_script_input_31            script_input_31
     0000003C  ___bank_script_input_8             script_input_8
     0000003C  ___bank_sprite_actor_animated      sprite_actor_animated
     0000003C  ___bank_sprite_bullet              sprite_bullet
     0000003C  ___bank_sprite_bullet_tileset      sprite_bullet_tileset
     0000003C  ___bank_sprite_cedric              sprite_cedric
     0000003C  ___bank_sprite_cedric_copy_tiles   sprite_cedric_copy_tileset
     0000003C  ___bank_sprite_flame_whip_tilese   sprite_flame_whip_tileset
     0000003C  ___bank_sprite_flare_static        sprite_flare_static
     0000003C  ___bank_sprite_jem_animated_0_ti   sprite_jem_animated_0_tilese
     0000003C  ___bank_sprite_light_animated_co   sprite_light_animated_copy
     0000003C  ___bank_sprite_light_key           sprite_light_key
     0000003C  ___bank_sprite_light_key_0         sprite_light_key_0
     0000003C  ___bank_sprite_light_key_0_tiles   sprite_light_key_0_tileset
     0000003C  ___bank_sprite_light_key_tileset   sprite_light_key_tileset
     0000003C  ___bank_sprite_number_ui           sprite_number_ui
     0000003C  ___bank_sprite_phoenix_cop_copy_   sprite_phoenix_cop_copy_tile
     0000003C  ___bank_sprite_sly_slimeball       sprite_sly_slimeball
     0000003C  ___bank_sprite_sly_slimeball_til   sprite_sly_slimeball_tileset
     0000003C  ___bank_sprite_swordattack         sprite_swordattack
     0000003C  ___bank_sprite_swordattack_tiles   sprite_swordattack_tileset
     0000003C  ___bank_trigger_103_interact       trigger_103_interact
     0000003C  ___bank_trigger_105_interact       trigger_105_interact
     0000003C  ___bank_trigger_106_interact       trigger_106_interact
     0000003C  ___bank_trigger_109_interact       trigger_109_interact
     0000003C  ___bank_trigger_10_interact        trigger_10_interact
     0000003C  ___bank_trigger_110_interact       trigger_110_interact
     0000003C  ___bank_trigger_112_interact       trigger_112_interact
     0000003C  ___bank_trigger_113_interact       trigger_113_interact
     0000003C  ___bank_trigger_114_interact       trigger_114_interact
     0000003C  ___bank_trigger_115_interact       trigger_115_interact
     0000003C  ___bank_trigger_116_interact       trigger_116_interact
     0000003C  ___bank_trigger_117_interact       trigger_117_interact
     0000003C  ___bank_trigger_121_interact       trigger_121_interact
     0000003C  ___bank_trigger_122_interact       trigger_122_interact
     0000003C  ___bank_trigger_123_interact       trigger_123_interact
     0000003C  ___bank_trigger_124_interact       trigger_124_interact
     0000003C  ___bank_trigger_160_interact       trigger_160_interact
ASxxxx Linker V03.00/V05.40 + sdld,  page 15.
Hexadecimal  [32-Bits]

Area                                    Addr        Size        Decimal Bytes (Attributes)
--------------------------------        ----        ----        ------- ----- ------------
.  .ABS.                            00000000    00000000 =           0. bytes (ABS,CON)

      Value  Global                              Global Defined In Module
      -----  --------------------------------   ------------------------
     0000003C  ___bank_trigger_163_interact       trigger_163_interact
     0000003C  ___bank_trigger_174_interact       trigger_174_interact
     0000003C  ___bank_trigger_175_interact       trigger_175_interact
     0000003C  ___bank_trigger_177_interact       trigger_177_interact
     0000003C  ___bank_trigger_186_interact       trigger_186_interact
     0000003C  ___bank_trigger_189_interact       trigger_189_interact
     0000003C  ___bank_trigger_191_interact       trigger_191_interact
     0000003C  ___bank_trigger_193_interact       trigger_193_interact
     0000003C  ___bank_trigger_20_interact        trigger_20_interact
     0000003C  ___bank_trigger_213_interact       trigger_213_interact
     0000003C  ___bank_trigger_219_interact       trigger_219_interact
     0000003C  ___bank_trigger_220_interact       trigger_220_interact
     0000003C  ___bank_trigger_221_interact       trigger_221_interact
     0000003C  ___bank_trigger_222_interact       trigger_222_interact
     0000003C  ___bank_trigger_223_interact       trigger_223_interact
     0000003C  ___bank_trigger_225_interact       trigger_225_interact
     0000003C  ___bank_trigger_226_interact       trigger_226_interact
     0000003C  ___bank_trigger_230_interact       trigger_230_interact
     0000003C  ___bank_trigger_23_interact        trigger_23_interact
     0000003C  ___bank_trigger_38_interact        trigger_38_interact
     0000003C  ___bank_trigger_42_interact        trigger_42_interact
     0000003C  ___bank_trigger_45_interact        trigger_45_interact
     0000003C  ___bank_trigger_4_interact         trigger_4_interact
     0000003C  ___bank_trigger_69_interact        trigger_69_interact
     0000003C  ___bank_trigger_6_interact         trigger_6_interact
     0000003C  ___bank_trigger_7_interact         trigger_7_interact
     0000003C  ___bank_trigger_81_interact        trigger_81_interact
     0000003C  ___bank_trigger_91_interact        trigger_91_interact
     0000003C  ___bank_trigger_92_interact        trigger_92_interact
     0000003C  ___bank_trigger_9_interact         trigger_9_interact
     0000003C  __start_save                    
     0000003C  b_events_init                      events
     0000003C  b_itoa_fmt                         vm_ui_a
     0000003C  b_music_events_poll                music_manager
     0000003C  b_music_init_driver                music_manager
     0000003C  b_music_init_events                music_manager
     0000003C  b_restore_sram                     flasher
     0000003C  b_restore_sram_bank                flasher
     0000003C  b_save_sram                        flasher
     0000003C  b_timers_init                      events
     0000003C  b_vm_print_detect                  vm_gbprinter
     0000003C  b_vm_print_overlay                 vm_gbprinter
     0000003C  b_vm_projectile_launch             vm_projectiles
     0000003C  b_vm_projectile_load_type          vm_projectiles
     0000003C  b_vm_rtc_get                       vm_rtc
     0000003C  b_vm_rtc_latch                     vm_rtc
     0000003C  b_vm_rtc_set                       vm_rtc
     0000003C  b_vm_rtc_start                     vm_rtc
     0000003C  b_vm_save_clear                    vm_load_save
     0000003C  b_vm_save_peek                     vm_load_save
     0000003C  b_vm_scene_pop                     vm_scene
ASxxxx Linker V03.00/V05.40 + sdld,  page 16.
Hexadecimal  [32-Bits]

Area                                    Addr        Size        Decimal Bytes (Attributes)
--------------------------------        ----        ----        ------- ----- ------------
.  .ABS.                            00000000    00000000 =           0. bytes (ABS,CON)

      Value  Global                              Global Defined In Module
      -----  --------------------------------   ------------------------
     0000003C  b_vm_scene_pop_all                 vm_scene
     0000003C  b_vm_scene_push                    vm_scene
     0000003C  b_vm_scene_stack_reset             vm_scene
     0000003D  ___bank_actor_0_update             actor_0_update
     0000003D  ___bank_actor_10_update            actor_10_update
     0000003D  ___bank_actor_1_update             actor_1_update
     0000003D  ___bank_actor_9_update             actor_9_update
     0000003D  ___bank_emote_anger                emote_anger
     0000003D  ___bank_emote_love                 emote_love
     0000003D  ___bank_emote_pause                emote_pause
     0000003D  ___bank_emote_question             emote_question
     0000003D  ___bank_emote_shock                emote_shock
     0000003D  ___bank_emote_sweat                emote_sweat
     0000003D  ___bank_palette_0                  palette_0
     0000003D  ___bank_palette_1                  palette_1
     0000003D  ___bank_palette_10                 palette_10
     0000003D  ___bank_palette_11                 palette_11
     0000003D  ___bank_palette_12                 palette_12
     0000003D  ___bank_palette_2                  palette_2
     0000003D  ___bank_palette_3                  palette_3
     0000003D  ___bank_palette_4                  palette_4
     0000003D  ___bank_palette_5                  palette_5
     0000003D  ___bank_palette_6                  palette_6
     0000003D  ___bank_palette_7                  palette_7
     0000003D  ___bank_palette_8                  palette_8
     0000003D  ___bank_palette_9                  palette_9
     0000003D  ___bank_scene_1                    scene_1
     0000003D  ___bank_scene_10                   scene_10
     0000003D  ___bank_scene_10_init              scene_10_init
     0000003D  ___bank_scene_11                   scene_11
     0000003D  ___bank_scene_12                   scene_12
     0000003D  ___bank_scene_12_actors            scene_12_actors
     0000003D  ___bank_scene_12_init              scene_12_init
     0000003D  ___bank_scene_13                   scene_13
     0000003D  ___bank_scene_13_actors            scene_13_actors
     0000003D  ___bank_scene_13_init              scene_13_init
     0000003D  ___bank_scene_13_triggers          scene_13_triggers
     0000003D  ___bank_scene_14                   scene_14
     0000003D  ___bank_scene_14_actors            scene_14_actors
     0000003D  ___bank_scene_15                   scene_15
     0000003D  ___bank_scene_15_actors            scene_15_actors
     0000003D  ___bank_scene_15_init              scene_15_init
     0000003D  ___bank_scene_16                   scene_16
     0000003D  ___bank_scene_16_actors            scene_16_actors
     0000003D  ___bank_scene_17                   scene_17
     0000003D  ___bank_scene_18                   scene_18
     0000003D  ___bank_scene_19                   scene_19
     0000003D  ___bank_scene_19_triggers          scene_19_triggers
     0000003D  ___bank_scene_1_init               scene_1_init
     0000003D  ___bank_scene_2                    scene_2
     0000003D  ___bank_scene_20                   scene_20
ASxxxx Linker V03.00/V05.40 + sdld,  page 17.
Hexadecimal  [32-Bits]

Area                                    Addr        Size        Decimal Bytes (Attributes)
--------------------------------        ----        ----        ------- ----- ------------
.  .ABS.                            00000000    00000000 =           0. bytes (ABS,CON)

      Value  Global                              Global Defined In Module
      -----  --------------------------------   ------------------------
     0000003D  ___bank_scene_21                   scene_21
     0000003D  ___bank_scene_21_actors            scene_21_actors
     0000003D  ___bank_scene_21_triggers          scene_21_triggers
     0000003D  ___bank_scene_22                   scene_22
     0000003D  ___bank_scene_22_actors            scene_22_actors
     0000003D  ___bank_scene_22_init              scene_22_init
     0000003D  ___bank_scene_22_projectiles       scene_22_projectiles
     0000003D  ___bank_scene_23                   scene_23
     0000003D  ___bank_scene_23_actors            scene_23_actors
     0000003D  ___bank_scene_23_projectiles       scene_23_projectiles
     0000003D  ___bank_scene_23_triggers          scene_23_triggers
     0000003D  ___bank_scene_24                   scene_24
     0000003D  ___bank_scene_24_actors            scene_24_actors
     0000003D  ___bank_scene_24_init              scene_24_init
     0000003D  ___bank_scene_24_projectiles       scene_24_projectiles
     0000003D  ___bank_scene_24_triggers          scene_24_triggers
     0000003D  ___bank_scene_25                   scene_25
     0000003D  ___bank_scene_25_actors            scene_25_actors
     0000003D  ___bank_scene_25_projectiles       scene_25_projectiles
     0000003D  ___bank_scene_25_triggers          scene_25_triggers
     0000003D  ___bank_scene_26                   scene_26
     0000003D  ___bank_scene_26_projectiles       scene_26_projectiles
     0000003D  ___bank_scene_27                   scene_27
     0000003D  ___bank_scene_27_init              scene_27_init
     0000003D  ___bank_scene_27_projectiles       scene_27_projectiles
     0000003D  ___bank_scene_28                   scene_28
     0000003D  ___bank_scene_28_actors            scene_28_actors
     0000003D  ___bank_scene_29                   scene_29
     0000003D  ___bank_scene_2_init               scene_2_init
     0000003D  ___bank_scene_3                    scene_3
     0000003D  ___bank_scene_30                   scene_30
     0000003D  ___bank_scene_30_actors            scene_30_actors
     0000003D  ___bank_scene_31                   scene_31
     0000003D  ___bank_scene_31_projectiles       scene_31_projectiles
     0000003D  ___bank_scene_31_triggers          scene_31_triggers
     0000003D  ___bank_scene_32                   scene_32
     0000003D  ___bank_scene_32_actors            scene_32_actors
     0000003D  ___bank_scene_32_init              scene_32_init
     0000003D  ___bank_scene_32_projectiles       scene_32_projectiles
     0000003D  ___bank_scene_32_triggers          scene_32_triggers
     0000003D  ___bank_scene_33                   scene_33
     0000003D  ___bank_scene_33_projectiles       scene_33_projectiles
     0000003D  ___bank_scene_34                   scene_34
     0000003D  ___bank_scene_34_init              scene_34_init
     0000003D  ___bank_scene_34_projectiles       scene_34_projectiles
     0000003D  ___bank_scene_35                   scene_35
     0000003D  ___bank_scene_35_init              scene_35_init
     0000003D  ___bank_scene_35_p_hit1            scene_35_p_hit1
     0000003D  ___bank_scene_35_projectiles       scene_35_projectiles
     0000003D  ___bank_scene_35_triggers          scene_35_triggers
     0000003D  ___bank_scene_36                   scene_36
ASxxxx Linker V03.00/V05.40 + sdld,  page 18.
Hexadecimal  [32-Bits]

Area                                    Addr        Size        Decimal Bytes (Attributes)
--------------------------------        ----        ----        ------- ----- ------------
.  .ABS.                            00000000    00000000 =           0. bytes (ABS,CON)

      Value  Global                              Global Defined In Module
      -----  --------------------------------   ------------------------
     0000003D  ___bank_scene_36_init              scene_36_init
     0000003D  ___bank_scene_36_projectiles       scene_36_projectiles
     0000003D  ___bank_scene_36_triggers          scene_36_triggers
     0000003D  ___bank_scene_37                   scene_37
     0000003D  ___bank_scene_37_init              scene_37_init
     0000003D  ___bank_scene_37_projectiles       scene_37_projectiles
     0000003D  ___bank_scene_38                   scene_38
     0000003D  ___bank_scene_38_actors            scene_38_actors
     0000003D  ___bank_scene_38_init              scene_38_init
     0000003D  ___bank_scene_38_projectiles       scene_38_projectiles
     0000003D  ___bank_scene_39                   scene_39
     0000003D  ___bank_scene_3_init               scene_3_init
     0000003D  ___bank_scene_4                    scene_4
     0000003D  ___bank_scene_40                   scene_40
     0000003D  ___bank_scene_40_sprites           scene_40_sprites
     0000003D  ___bank_scene_41                   scene_41
     0000003D  ___bank_scene_41_actors            scene_41_actors
     0000003D  ___bank_scene_41_init              scene_41_init
     0000003D  ___bank_scene_41_projectiles       scene_41_projectiles
     0000003D  ___bank_scene_42                   scene_42
     0000003D  ___bank_scene_42_actors            scene_42_actors
     0000003D  ___bank_scene_42_projectiles       scene_42_projectiles
     0000003D  ___bank_scene_43                   scene_43
     0000003D  ___bank_scene_43_projectiles       scene_43_projectiles
     0000003D  ___bank_scene_44                   scene_44
     0000003D  ___bank_scene_44_actors            scene_44_actors
     0000003D  ___bank_scene_44_init              scene_44_init
     0000003D  ___bank_scene_44_projectiles       scene_44_projectiles
     0000003D  ___bank_scene_45                   scene_45
     0000003D  ___bank_scene_45_p_hit1            scene_45_p_hit1
     0000003D  ___bank_scene_45_projectiles       scene_45_projectiles
     0000003D  ___bank_scene_45_triggers          scene_45_triggers
     0000003D  ___bank_scene_46                   scene_46
     0000003D  ___bank_scene_46_init              scene_46_init
     0000003D  ___bank_scene_46_projectiles       scene_46_projectiles
     0000003D  ___bank_scene_46_triggers          scene_46_triggers
     0000003D  ___bank_scene_47                   scene_47
     0000003D  ___bank_scene_47_init              scene_47_init
     0000003D  ___bank_scene_47_p_hit1            scene_47_p_hit1
     0000003D  ___bank_scene_47_projectiles       scene_47_projectiles
     0000003D  ___bank_scene_47_triggers          scene_47_triggers
     0000003D  ___bank_scene_48                   scene_48
     0000003D  ___bank_scene_48_init              scene_48_init
     0000003D  ___bank_scene_48_projectiles       scene_48_projectiles
     0000003D  ___bank_scene_49                   scene_49
     0000003D  ___bank_scene_49_init              scene_49_init
     0000003D  ___bank_scene_49_projectiles       scene_49_projectiles
     0000003D  ___bank_scene_49_triggers          scene_49_triggers
     0000003D  ___bank_scene_5                    scene_5
     0000003D  ___bank_scene_50                   scene_50
     0000003D  ___bank_scene_50_init              scene_50_init
ASxxxx Linker V03.00/V05.40 + sdld,  page 19.
Hexadecimal  [32-Bits]

Area                                    Addr        Size        Decimal Bytes (Attributes)
--------------------------------        ----        ----        ------- ----- ------------
.  .ABS.                            00000000    00000000 =           0. bytes (ABS,CON)

      Value  Global                              Global Defined In Module
      -----  --------------------------------   ------------------------
     0000003D  ___bank_scene_50_projectiles       scene_50_projectiles
     0000003D  ___bank_scene_50_triggers          scene_50_triggers
     0000003D  ___bank_scene_51                   scene_51
     0000003D  ___bank_scene_51_actors            scene_51_actors
     0000003D  ___bank_scene_51_p_hit1            scene_51_p_hit1
     0000003D  ___bank_scene_51_projectiles       scene_51_projectiles
     0000003D  ___bank_scene_52                   scene_52
     0000003D  ___bank_scene_52_actors            scene_52_actors
     0000003D  ___bank_scene_53                   scene_53
     0000003D  ___bank_scene_53_actors            scene_53_actors
     0000003D  ___bank_scene_54                   scene_54
     0000003D  ___bank_scene_54_projectiles       scene_54_projectiles
     0000003D  ___bank_scene_54_triggers          scene_54_triggers
     0000003D  ___bank_scene_55                   scene_55
     0000003D  ___bank_scene_55_actors            scene_55_actors
     0000003D  ___bank_scene_55_projectiles       scene_55_projectiles
     0000003D  ___bank_scene_55_triggers          scene_55_triggers
     0000003D  ___bank_scene_6                    scene_6
     0000003D  ___bank_scene_7                    scene_7
     0000003D  ___bank_scene_8                    scene_8
     0000003D  ___bank_scene_8_init               scene_8_init
     0000003D  ___bank_scene_8_projectiles        scene_8_projectiles
     0000003D  ___bank_scene_9                    scene_9
     0000003D  ___bank_scene_9_projectiles        scene_9_projectiles
     0000003D  ___bank_scene_9_triggers           scene_9_triggers
     0000003D  ___bank_script_14                  script_14
     0000003D  ___bank_script_5                   script_5
     0000003D  ___bank_script_input_1             script_input_1
     0000003D  ___bank_script_input_10            script_input_10
     0000003D  ___bank_script_input_11            script_input_11
     0000003D  ___bank_script_input_29            script_input_29
     0000003D  ___bank_script_input_3             script_input_3
     0000003D  ___bank_script_input_32            script_input_32
     0000003D  ___bank_script_input_33            script_input_33
     0000003D  ___bank_script_input_4             script_input_4
     0000003D  ___bank_script_input_5             script_input_5
     0000003D  ___bank_script_input_6             script_input_6
     0000003D  ___bank_script_input_7             script_input_7
     0000003D  ___bank_script_timer_1             script_timer_1
     0000003D  ___bank_script_timer_13            script_timer_13
     0000003D  ___bank_script_timer_14            script_timer_14
     0000003D  ___bank_script_timer_15            script_timer_15
     0000003D  ___bank_script_timer_16            script_timer_16
     0000003D  ___bank_script_timer_17            script_timer_17
     0000003D  ___bank_script_timer_18            script_timer_18
     0000003D  ___bank_script_timer_19            script_timer_19
     0000003D  ___bank_script_timer_2             script_timer_2
     0000003D  ___bank_script_timer_20            script_timer_20
     0000003D  ___bank_script_timer_21            script_timer_21
     0000003D  ___bank_script_timer_22            script_timer_22
     0000003D  ___bank_script_timer_23            script_timer_23
ASxxxx Linker V03.00/V05.40 + sdld,  page 20.
Hexadecimal  [32-Bits]

Area                                    Addr        Size        Decimal Bytes (Attributes)
--------------------------------        ----        ----        ------- ----- ------------
.  .ABS.                            00000000    00000000 =           0. bytes (ABS,CON)

      Value  Global                              Global Defined In Module
      -----  --------------------------------   ------------------------
     0000003D  ___bank_script_timer_24            script_timer_24
     0000003D  ___bank_script_timer_25            script_timer_25
     0000003D  ___bank_script_timer_26            script_timer_26
     0000003D  ___bank_script_timer_27            script_timer_27
     0000003D  ___bank_script_timer_28            script_timer_28
     0000003D  ___bank_script_timer_29            script_timer_29
     0000003D  ___bank_script_timer_3             script_timer_3
     0000003D  ___bank_script_timer_30            script_timer_30
     0000003D  ___bank_script_timer_31            script_timer_31
     0000003D  ___bank_script_timer_32            script_timer_32
     0000003D  ___bank_script_timer_33            script_timer_33
     0000003D  ___bank_script_timer_34            script_timer_34
     0000003D  ___bank_script_timer_35            script_timer_35
     0000003D  ___bank_script_timer_36            script_timer_36
     0000003D  ___bank_script_timer_37            script_timer_37
     0000003D  ___bank_script_timer_38            script_timer_38
     0000003D  ___bank_script_timer_39            script_timer_39
     0000003D  ___bank_script_timer_4             script_timer_4
     0000003D  ___bank_script_timer_40            script_timer_40
     0000003D  ___bank_script_timer_41            script_timer_41
     0000003D  ___bank_script_timer_42            script_timer_42
     0000003D  ___bank_script_timer_43            script_timer_43
     0000003D  ___bank_script_timer_44            script_timer_44
     0000003D  ___bank_script_timer_45            script_timer_45
     0000003D  ___bank_script_timer_50            script_timer_50
     0000003D  ___bank_script_timer_51            script_timer_51
     0000003D  ___bank_script_timer_52            script_timer_52
     0000003D  ___bank_script_timer_53            script_timer_53
     0000003D  ___bank_script_timer_62            script_timer_62
     0000003D  ___bank_script_timer_67            script_timer_67
     0000003D  ___bank_script_timer_68            script_timer_68
     0000003D  ___bank_script_timer_76            script_timer_76
     0000003D  ___bank_script_timer_77            script_timer_77
     0000003D  ___bank_script_timer_81            script_timer_81
     0000003D  ___bank_script_timer_82            script_timer_82
     0000003D  ___bank_script_timer_90            script_timer_90
     0000003D  ___bank_sprite_cedric_copy         sprite_cedric_copy
     0000003D  ___bank_sprite_cedric_dust         sprite_cedric_dust
     0000003D  ___bank_sprite_cedric_dust_tiles   sprite_cedric_dust_tileset
     0000003D  ___bank_sprite_feather             sprite_feather
     0000003D  ___bank_sprite_feather_tileset     sprite_feather_tileset
     0000003D  ___bank_sprite_flame_whip          sprite_flame_whip
     0000003D  ___bank_sprite_foxberry_ui         sprite_foxberry_ui
     0000003D  ___bank_sprite_foxberry_ui_tiles   sprite_foxberry_ui_tileset
     0000003D  ___bank_sprite_lava                sprite_lava
     0000003D  ___bank_sprite_metal_walls         sprite_metal_walls
     0000003D  ___bank_sprite_metal_walls_tiles   sprite_metal_walls_tileset
     0000003D  ___bank_sprite_phoenix_cop_copy    sprite_phoenix_cop_copy
     0000003D  ___bank_sprite_poison              sprite_poison
     0000003D  ___bank_sprite_poison_tileset      sprite_poison_tileset
     0000003D  ___bank_sprite_potion_ui           sprite_potion_ui
ASxxxx Linker V03.00/V05.40 + sdld,  page 21.
Hexadecimal  [32-Bits]

Area                                    Addr        Size        Decimal Bytes (Attributes)
--------------------------------        ----        ----        ------- ----- ------------
.  .ABS.                            00000000    00000000 =           0. bytes (ABS,CON)

      Value  Global                              Global Defined In Module
      -----  --------------------------------   ------------------------
     0000003D  ___bank_sprite_potion_ui_tileset   sprite_potion_ui_tileset
     0000003D  ___bank_sprite_toxic               sprite_toxic
     0000003D  ___bank_sprite_toxic_tileset       sprite_toxic_tileset
     0000003D  ___bank_sprite_transparent         sprite_transparent
     0000003D  ___bank_sprite_unknown_key_copy    sprite_unknown_key_copy
     0000003D  ___bank_sprite_unknown_key_copy_   sprite_unknown_key_copy_2_
     0000003D  ___bank_sprite_unknown_key_copy_   sprite_unknown_key_copy_2__t
     0000003D  ___bank_sprite_unknown_key_copy_   sprite_unknown_key_copy_tile
     0000003D  ___bank_sprite_water               sprite_water
     0000003D  ___bank_sprite_water_tileset       sprite_water_tileset
     0000003D  ___bank_spritesheet_none           spritesheet_none
     0000003D  ___bank_trigger_0_interact         trigger_0_interact
     0000003D  ___bank_trigger_107_interact       trigger_107_interact
     0000003D  ___bank_trigger_108_interact       trigger_108_interact
     0000003D  ___bank_trigger_111_interact       trigger_111_interact
     0000003D  ___bank_trigger_118_interact       trigger_118_interact
     0000003D  ___bank_trigger_119_interact       trigger_119_interact
     0000003D  ___bank_trigger_126_interact       trigger_126_interact
     0000003D  ___bank_trigger_127_interact       trigger_127_interact
     0000003D  ___bank_trigger_129_interact       trigger_129_interact
     0000003D  ___bank_trigger_150_interact       trigger_150_interact
     0000003D  ___bank_trigger_176_interact       trigger_176_interact
     0000003D  ___bank_trigger_178_interact       trigger_178_interact
     0000003D  ___bank_trigger_179_interact       trigger_179_interact
     0000003D  ___bank_trigger_185_interact       trigger_185_interact
     0000003D  ___bank_trigger_187_interact       trigger_187_interact
     0000003D  ___bank_trigger_188_interact       trigger_188_interact
     0000003D  ___bank_trigger_194_interact       trigger_194_interact
     0000003D  ___bank_trigger_195_interact       trigger_195_interact
     0000003D  ___bank_trigger_196_interact       trigger_196_interact
     0000003D  ___bank_trigger_197_interact       trigger_197_interact
     0000003D  ___bank_trigger_198_interact       trigger_198_interact
     0000003D  ___bank_trigger_199_interact       trigger_199_interact
     0000003D  ___bank_trigger_19_interact        trigger_19_interact
     0000003D  ___bank_trigger_1_interact         trigger_1_interact
     0000003D  ___bank_trigger_200_interact       trigger_200_interact
     0000003D  ___bank_trigger_201_interact       trigger_201_interact
     0000003D  ___bank_trigger_202_interact       trigger_202_interact
     0000003D  ___bank_trigger_203_interact       trigger_203_interact
     0000003D  ___bank_trigger_21_interact        trigger_21_interact
     0000003D  ___bank_trigger_224_interact       trigger_224_interact
     0000003D  ___bank_trigger_227_interact       trigger_227_interact
     0000003D  ___bank_trigger_228_interact       trigger_228_interact
     0000003D  ___bank_trigger_229_interact       trigger_229_interact
     0000003D  ___bank_trigger_22_interact        trigger_22_interact
     0000003D  ___bank_trigger_231_interact       trigger_231_interact
     0000003D  ___bank_trigger_232_interact       trigger_232_interact
     0000003D  ___bank_trigger_233_interact       trigger_233_interact
     0000003D  ___bank_trigger_24_interact        trigger_24_interact
     0000003D  ___bank_trigger_25_interact        trigger_25_interact
     0000003D  ___bank_trigger_26_interact        trigger_26_interact
ASxxxx Linker V03.00/V05.40 + sdld,  page 22.
Hexadecimal  [32-Bits]

Area                                    Addr        Size        Decimal Bytes (Attributes)
--------------------------------        ----        ----        ------- ----- ------------
.  .ABS.                            00000000    00000000 =           0. bytes (ABS,CON)

      Value  Global                              Global Defined In Module
      -----  --------------------------------   ------------------------
     0000003D  ___bank_trigger_27_interact        trigger_27_interact
     0000003D  ___bank_trigger_28_interact        trigger_28_interact
     0000003D  ___bank_trigger_29_interact        trigger_29_interact
     0000003D  ___bank_trigger_2_interact         trigger_2_interact
     0000003D  ___bank_trigger_30_interact        trigger_30_interact
     0000003D  ___bank_trigger_31_interact        trigger_31_interact
     0000003D  ___bank_trigger_32_interact        trigger_32_interact
     0000003D  ___bank_trigger_33_interact        trigger_33_interact
     0000003D  ___bank_trigger_34_interact        trigger_34_interact
     0000003D  ___bank_trigger_35_interact        trigger_35_interact
     0000003D  ___bank_trigger_36_interact        trigger_36_interact
     0000003D  ___bank_trigger_37_interact        trigger_37_interact
     0000003D  ___bank_trigger_39_interact        trigger_39_interact
     0000003D  ___bank_trigger_40_interact        trigger_40_interact
     0000003D  ___bank_trigger_41_interact        trigger_41_interact
     0000003D  ___bank_trigger_43_interact        trigger_43_interact
     0000003D  ___bank_trigger_44_interact        trigger_44_interact
     0000003D  ___bank_trigger_46_interact        trigger_46_interact
     0000003D  ___bank_trigger_47_interact        trigger_47_interact
     0000003D  ___bank_trigger_48_interact        trigger_48_interact
     0000003D  ___bank_trigger_5_interact         trigger_5_interact
     0000003D  ___bank_trigger_68_interact        trigger_68_interact
     0000003D  ___bank_trigger_70_interact        trigger_70_interact
     0000003D  ___bank_trigger_71_interact        trigger_71_interact
     0000003D  ___bank_trigger_72_interact        trigger_72_interact
     0000003D  ___bank_trigger_80_interact        trigger_80_interact
     0000003D  ___bank_trigger_82_interact        trigger_82_interact
     0000003D  ___bank_trigger_83_interact        trigger_83_interact
     0000003D  ___bank_trigger_84_interact        trigger_84_interact
     0000003D  ___bank_trigger_85_interact        trigger_85_interact
     0000003D  ___bank_trigger_86_interact        trigger_86_interact
     0000003D  ___bank_trigger_87_interact        trigger_87_interact
     0000003D  ___bank_trigger_8_interact         trigger_8_interact
     0000003D  b_SIO_init                         sio
     0000003D  b_camera_init                      camera
     0000003D  b_input_init                       input
     0000003D  b_scroll_rect                      
     0000003E  ___bank_actor_15_interact          actor_15_interact
     0000003E  ___bank_actor_16_interact          actor_16_interact
     0000003E  ___bank_actor_17_interact          actor_17_interact
     0000003E  ___bank_bg_earth_burnclaw_forest   bg_earth_burnclaw_forest
     0000003E  ___bank_bg_earth_burnclaw_forest   bg_earth_burnclaw_forest_ca
     0000003E  ___bank_bg_earth_burnclaw_forest   bg_earth_burnclaw_forest_cr
     0000003E  ___bank_bg_earth_distortion_moun   bg_earth_distortion_mountai
     0000003E  ___bank_bg_earth_level_1_intro     bg_earth_level_1_intro
     0000003E  ___bank_bg_earth_shuttle_bay       bg_earth_shuttle_bay
     0000003E  ___bank_bg_earth_shuttle_bay_sec   bg_earth_shuttle_bay_secret
     0000003E  ___bank_bg_earth_shuttle_bay_upp   bg_earth_shuttle_bay_upper
     0000003E  ___bank_bg_earth_shuttle_bay_wat   bg_earth_shuttle_bay_water
     0000003E  ___bank_bg_hud_ui                  bg_hud_ui
     0000003E  ___bank_bg_jems_background         bg_jems_background
ASxxxx Linker V03.00/V05.40 + sdld,  page 23.
Hexadecimal  [32-Bits]

Area                                    Addr        Size        Decimal Bytes (Attributes)
--------------------------------        ----        ----        ------- ----- ------------
.  .ABS.                            00000000    00000000 =           0. bytes (ABS,CON)

      Value  Global                              Global Defined In Module
      -----  --------------------------------   ------------------------
     0000003E  ___bank_bg_luna_boss_room          bg_luna_boss_room
     0000003E  ___bank_bg_luna_peryil_s_house     bg_luna_peryil_s_house
     0000003E  ___bank_bg_luna_serenity_cave_lo   bg_luna_serenity_cave_lower
     0000003E  ___bank_bg_luna_serenity_cave_up   bg_luna_serenity_cave_upper
     0000003E  ___bank_bg_luna_serenity_forest    bg_luna_serenity_forest
     0000003E  ___bank_bg_luna_serenity_outskir   bg_luna_serenity_outskirts
     0000003E  ___bank_bg_luna_serenity_waterfr   bg_luna_serenity_waterfront
     0000003E  ___bank_bg_luna_sewer_system       bg_luna_sewer_system
     0000003E  ___bank_bg_luna_water_heater       bg_luna_water_heater
     0000003E  ___bank_bg_menu_load_background    bg_menu_load_background
     0000003E  ___bank_bg_mercury_landing_site    bg_mercury_landing_site
     0000003E  ___bank_bg_mercury_overflow_pass   bg_mercury_overflow_passage
     0000003E  ___bank_bg_mercury_poison_proces   bg_mercury_poison_processin
     0000003E  ___bank_bg_mercury_poison_storag   bg_mercury_poison_storage
     0000003E  ___bank_bg_mercury_projectile_pl   bg_mercury_projectile_platf
     0000003E  ___bank_bg_mercury_secret_area     bg_mercury_secret_area
     0000003E  ___bank_bg_mercury_throne_room     bg_mercury_throne_room
     0000003E  ___bank_bg_mercury_viewing_area    bg_mercury_viewing_area
     0000003E  ___bank_bg_placeholder             bg_placeholder
     0000003E  ___bank_bg_platformer_test01       bg_platformer_test01
     0000003E  ___bank_bg_temporal_light_backgr   bg_temporal_light_backgroun
     0000003E  ___bank_bg_title                   bg_title
     0000003E  ___bank_bg_venus_ac_ventilation    bg_venus_ac_ventilation
     0000003E  ___bank_bg_venus_ac_ventilation2   bg_venus_ac_ventilation2
     0000003E  ___bank_bg_venus_defence_tunnel    bg_venus_defence_tunnel
     0000003E  ___bank_bg_venus_dropshaft_0       bg_venus_dropshaft_0
     0000003E  ___bank_bg_venus_dropshaft_1       bg_venus_dropshaft_1
     0000003E  ___bank_bg_venus_evidence_room     bg_venus_evidence_room
     0000003E  ___bank_bg_venus_landing_site      bg_venus_landing_site
     0000003E  ___bank_bg_venus_office            bg_venus_office
     0000003E  ___bank_bg_venus_office_access     bg_venus_office_access
     0000003E  ___bank_bg_venus_police_departme   bg_venus_police_department_
     0000003E  ___bank_bg_warning                 bg_warning
     0000003E  ___bank_bootstrap_script           
     0000003E  ___bank_cursor_image               cursor_image
     0000003E  ___bank_scene_10_sprites           scene_10_sprites
     0000003E  ___bank_scene_11_sprites           scene_11_sprites
     0000003E  ___bank_scene_12_sprites           scene_12_sprites
     0000003E  ___bank_scene_13_sprites           scene_13_sprites
     0000003E  ___bank_scene_14_sprites           scene_14_sprites
     0000003E  ___bank_scene_15_sprites           scene_15_sprites
     0000003E  ___bank_scene_16_sprites           scene_16_sprites
     0000003E  ___bank_scene_1_triggers           scene_1_triggers
     0000003E  ___bank_scene_21_sprites           scene_21_sprites
     0000003E  ___bank_scene_22_sprites           scene_22_sprites
     0000003E  ___bank_scene_23_sprites           scene_23_sprites
     0000003E  ___bank_scene_24_sprites           scene_24_sprites
     0000003E  ___bank_scene_25_sprites           scene_25_sprites
     0000003E  ___bank_scene_28_sprites           scene_28_sprites
     0000003E  ___bank_scene_32_sprites           scene_32_sprites
     0000003E  ___bank_scene_33_sprites           scene_33_sprites
ASxxxx Linker V03.00/V05.40 + sdld,  page 24.
Hexadecimal  [32-Bits]

Area                                    Addr        Size        Decimal Bytes (Attributes)
--------------------------------        ----        ----        ------- ----- ------------
.  .ABS.                            00000000    00000000 =           0. bytes (ABS,CON)

      Value  Global                              Global Defined In Module
      -----  --------------------------------   ------------------------
     0000003E  ___bank_scene_33_triggers          scene_33_triggers
     0000003E  ___bank_scene_35_sprites           scene_35_sprites
     0000003E  ___bank_scene_37_triggers          scene_37_triggers
     0000003E  ___bank_scene_38_sprites           scene_38_sprites
     0000003E  ___bank_scene_38_triggers          scene_38_triggers
     0000003E  ___bank_scene_39_sprites           scene_39_sprites
     0000003E  ___bank_scene_41_sprites           scene_41_sprites
     0000003E  ___bank_scene_42_sprites           scene_42_sprites
     0000003E  ___bank_scene_42_triggers          scene_42_triggers
     0000003E  ___bank_scene_44_sprites           scene_44_sprites
     0000003E  ___bank_scene_44_triggers          scene_44_triggers
     0000003E  ___bank_scene_45_sprites           scene_45_sprites
     0000003E  ___bank_scene_46_sprites           scene_46_sprites
     0000003E  ___bank_scene_48_sprites           scene_48_sprites
     0000003E  ___bank_scene_48_triggers          scene_48_triggers
     0000003E  ___bank_scene_49_sprites           scene_49_sprites
     0000003E  ___bank_scene_50_sprites           scene_50_sprites
     0000003E  ___bank_scene_51_sprites           scene_51_sprites
     0000003E  ___bank_scene_52_sprites           scene_52_sprites
     0000003E  ___bank_scene_53_sprites           scene_53_sprites
     0000003E  ___bank_scene_54_sprites           scene_54_sprites
     0000003E  ___bank_scene_55_sprites           scene_55_sprites
     0000003E  ___bank_scene_7_init               scene_7_init
     0000003E  ___bank_scene_8_sprites            scene_8_sprites
     0000003E  ___bank_scene_8_triggers           scene_8_triggers
     0000003E  ___bank_scene_9_sprites            scene_9_sprites
     0000003E  ___bank_script_6                   script_6
     0000003E  ___bank_script_input_2             script_input_2
     0000003E  ___bank_script_timer_46            script_timer_46
     0000003E  ___bank_script_timer_47            script_timer_47
     0000003E  ___bank_script_timer_48            script_timer_48
     0000003E  ___bank_script_timer_49            script_timer_49
     0000003E  ___bank_script_timer_5             script_timer_5
     0000003E  ___bank_script_timer_54            script_timer_54
     0000003E  ___bank_script_timer_55            script_timer_55
     0000003E  ___bank_script_timer_56            script_timer_56
     0000003E  ___bank_script_timer_57            script_timer_57
     0000003E  ___bank_script_timer_58            script_timer_58
     0000003E  ___bank_script_timer_59            script_timer_59
     0000003E  ___bank_script_timer_6             script_timer_6
     0000003E  ___bank_script_timer_60            script_timer_60
     0000003E  ___bank_script_timer_61            script_timer_61
     0000003E  ___bank_script_timer_63            script_timer_63
     0000003E  ___bank_script_timer_64            script_timer_64
     0000003E  ___bank_script_timer_65            script_timer_65
     0000003E  ___bank_script_timer_66            script_timer_66
     0000003E  ___bank_script_timer_69            script_timer_69
     0000003E  ___bank_script_timer_7             script_timer_7
     0000003E  ___bank_script_timer_70            script_timer_70
     0000003E  ___bank_script_timer_71            script_timer_71
     0000003E  ___bank_script_timer_72            script_timer_72
ASxxxx Linker V03.00/V05.40 + sdld,  page 25.
Hexadecimal  [32-Bits]

Area                                    Addr        Size        Decimal Bytes (Attributes)
--------------------------------        ----        ----        ------- ----- ------------
.  .ABS.                            00000000    00000000 =           0. bytes (ABS,CON)

      Value  Global                              Global Defined In Module
      -----  --------------------------------   ------------------------
     0000003E  ___bank_script_timer_73            script_timer_73
     0000003E  ___bank_script_timer_74            script_timer_74
     0000003E  ___bank_script_timer_75            script_timer_75
     0000003E  ___bank_script_timer_78            script_timer_78
     0000003E  ___bank_script_timer_79            script_timer_79
     0000003E  ___bank_script_timer_8             script_timer_8
     0000003E  ___bank_script_timer_80            script_timer_80
     0000003E  ___bank_script_timer_83            script_timer_83
     0000003E  ___bank_script_timer_84            script_timer_84
     0000003E  ___bank_script_timer_85            script_timer_85
     0000003E  ___bank_script_timer_86            script_timer_86
     0000003E  ___bank_script_timer_87            script_timer_87
     0000003E  ___bank_script_timer_88            script_timer_88
     0000003E  ___bank_script_timer_9             script_timer_9
     0000003E  ___bank_script_timer_91            script_timer_91
     0000003E  ___bank_script_timer_92            script_timer_92
     0000003E  ___bank_script_timer_93            script_timer_93
     0000003E  ___bank_script_timer_94            script_timer_94
     0000003E  ___bank_script_timer_95            script_timer_95
     0000003E  ___bank_script_timer_96            script_timer_96
     0000003E  ___bank_trigger_100_interact       trigger_100_interact
     0000003E  ___bank_trigger_101_interact       trigger_101_interact
     0000003E  ___bank_trigger_102_interact       trigger_102_interact
     0000003E  ___bank_trigger_11_interact        trigger_11_interact
     0000003E  ___bank_trigger_125_interact       trigger_125_interact
     0000003E  ___bank_trigger_128_interact       trigger_128_interact
     0000003E  ___bank_trigger_12_interact        trigger_12_interact
     0000003E  ___bank_trigger_130_interact       trigger_130_interact
     0000003E  ___bank_trigger_131_interact       trigger_131_interact
     0000003E  ___bank_trigger_132_interact       trigger_132_interact
     0000003E  ___bank_trigger_133_interact       trigger_133_interact
     0000003E  ___bank_trigger_134_interact       trigger_134_interact
     0000003E  ___bank_trigger_135_interact       trigger_135_interact
     0000003E  ___bank_trigger_136_interact       trigger_136_interact
     0000003E  ___bank_trigger_137_interact       trigger_137_interact
     0000003E  ___bank_trigger_138_interact       trigger_138_interact
     0000003E  ___bank_trigger_139_interact       trigger_139_interact
     0000003E  ___bank_trigger_13_interact        trigger_13_interact
     0000003E  ___bank_trigger_140_interact       trigger_140_interact
     0000003E  ___bank_trigger_141_interact       trigger_141_interact
     0000003E  ___bank_trigger_142_interact       trigger_142_interact
     0000003E  ___bank_trigger_143_interact       trigger_143_interact
     0000003E  ___bank_trigger_144_interact       trigger_144_interact
     0000003E  ___bank_trigger_145_interact       trigger_145_interact
     0000003E  ___bank_trigger_146_interact       trigger_146_interact
     0000003E  ___bank_trigger_147_interact       trigger_147_interact
     0000003E  ___bank_trigger_148_interact       trigger_148_interact
     0000003E  ___bank_trigger_149_interact       trigger_149_interact
     0000003E  ___bank_trigger_14_interact        trigger_14_interact
     0000003E  ___bank_trigger_151_interact       trigger_151_interact
     0000003E  ___bank_trigger_152_interact       trigger_152_interact
ASxxxx Linker V03.00/V05.40 + sdld,  page 26.
Hexadecimal  [32-Bits]

Area                                    Addr        Size        Decimal Bytes (Attributes)
--------------------------------        ----        ----        ------- ----- ------------
.  .ABS.                            00000000    00000000 =           0. bytes (ABS,CON)

      Value  Global                              Global Defined In Module
      -----  --------------------------------   ------------------------
     0000003E  ___bank_trigger_153_interact       trigger_153_interact
     0000003E  ___bank_trigger_154_interact       trigger_154_interact
     0000003E  ___bank_trigger_155_interact       trigger_155_interact
     0000003E  ___bank_trigger_156_interact       trigger_156_interact
     0000003E  ___bank_trigger_157_interact       trigger_157_interact
     0000003E  ___bank_trigger_158_interact       trigger_158_interact
     0000003E  ___bank_trigger_159_interact       trigger_159_interact
     0000003E  ___bank_trigger_15_interact        trigger_15_interact
     0000003E  ___bank_trigger_161_interact       trigger_161_interact
     0000003E  ___bank_trigger_162_interact       trigger_162_interact
     0000003E  ___bank_trigger_164_interact       trigger_164_interact
     0000003E  ___bank_trigger_165_interact       trigger_165_interact
     0000003E  ___bank_trigger_166_interact       trigger_166_interact
     0000003E  ___bank_trigger_167_interact       trigger_167_interact
     0000003E  ___bank_trigger_168_interact       trigger_168_interact
     0000003E  ___bank_trigger_169_interact       trigger_169_interact
     0000003E  ___bank_trigger_16_interact        trigger_16_interact
     0000003E  ___bank_trigger_170_interact       trigger_170_interact
     0000003E  ___bank_trigger_171_interact       trigger_171_interact
     0000003E  ___bank_trigger_172_interact       trigger_172_interact
     0000003E  ___bank_trigger_173_interact       trigger_173_interact
     0000003E  ___bank_trigger_17_interact        trigger_17_interact
     0000003E  ___bank_trigger_182_interact       trigger_182_interact
     0000003E  ___bank_trigger_183_interact       trigger_183_interact
     0000003E  ___bank_trigger_18_interact        trigger_18_interact
     0000003E  ___bank_trigger_192_interact       trigger_192_interact
     0000003E  ___bank_trigger_204_interact       trigger_204_interact
     0000003E  ___bank_trigger_205_interact       trigger_205_interact
     0000003E  ___bank_trigger_206_interact       trigger_206_interact
     0000003E  ___bank_trigger_207_interact       trigger_207_interact
     0000003E  ___bank_trigger_208_interact       trigger_208_interact
     0000003E  ___bank_trigger_209_interact       trigger_209_interact
     0000003E  ___bank_trigger_210_interact       trigger_210_interact
     0000003E  ___bank_trigger_211_interact       trigger_211_interact
     0000003E  ___bank_trigger_212_interact       trigger_212_interact
     0000003E  ___bank_trigger_214_interact       trigger_214_interact
     0000003E  ___bank_trigger_216_interact       trigger_216_interact
     0000003E  ___bank_trigger_217_interact       trigger_217_interact
     0000003E  ___bank_trigger_218_interact       trigger_218_interact
     0000003E  ___bank_trigger_3_interact         trigger_3_interact
     0000003E  ___bank_trigger_49_interact        trigger_49_interact
     0000003E  ___bank_trigger_50_interact        trigger_50_interact
     0000003E  ___bank_trigger_51_interact        trigger_51_interact
     0000003E  ___bank_trigger_52_interact        trigger_52_interact
     0000003E  ___bank_trigger_53_interact        trigger_53_interact
     0000003E  ___bank_trigger_54_interact        trigger_54_interact
     0000003E  ___bank_trigger_55_interact        trigger_55_interact
     0000003E  ___bank_trigger_56_interact        trigger_56_interact
     0000003E  ___bank_trigger_57_interact        trigger_57_interact
     0000003E  ___bank_trigger_58_interact        trigger_58_interact
     0000003E  ___bank_trigger_59_interact        trigger_59_interact
ASxxxx Linker V03.00/V05.40 + sdld,  page 27.
Hexadecimal  [32-Bits]

Area                                    Addr        Size        Decimal Bytes (Attributes)
--------------------------------        ----        ----        ------- ----- ------------
.  .ABS.                            00000000    00000000 =           0. bytes (ABS,CON)

      Value  Global                              Global Defined In Module
      -----  --------------------------------   ------------------------
     0000003E  ___bank_trigger_60_interact        trigger_60_interact
     0000003E  ___bank_trigger_61_interact        trigger_61_interact
     0000003E  ___bank_trigger_62_interact        trigger_62_interact
     0000003E  ___bank_trigger_63_interact        trigger_63_interact
     0000003E  ___bank_trigger_64_interact        trigger_64_interact
     0000003E  ___bank_trigger_65_interact        trigger_65_interact
     0000003E  ___bank_trigger_66_interact        trigger_66_interact
     0000003E  ___bank_trigger_67_interact        trigger_67_interact
     0000003E  ___bank_trigger_73_interact        trigger_73_interact
     0000003E  ___bank_trigger_74_interact        trigger_74_interact
     0000003E  ___bank_trigger_75_interact        trigger_75_interact
     0000003E  ___bank_trigger_76_interact        trigger_76_interact
     0000003E  ___bank_trigger_77_interact        trigger_77_interact
     0000003E  ___bank_trigger_78_interact        trigger_78_interact
     0000003E  ___bank_trigger_79_interact        trigger_79_interact
     0000003E  ___bank_trigger_88_interact        trigger_88_interact
     0000003E  ___bank_trigger_89_interact        trigger_89_interact
     0000003E  ___bank_trigger_90_interact        trigger_90_interact
     0000003E  ___bank_trigger_93_interact        trigger_93_interact
     0000003E  ___bank_trigger_94_interact        trigger_94_interact
     0000003E  ___bank_trigger_95_interact        trigger_95_interact
     0000003E  ___bank_trigger_96_interact        trigger_96_interact
     0000003E  ___bank_trigger_97_interact        trigger_97_interact
     0000003E  ___bank_trigger_98_interact        trigger_98_interact
     0000003E  ___bank_trigger_99_interact        trigger_99_interact
     0000003E  b_logo_init                        logo
     0000003E  b_logo_update                      logo
     00000060  l__HEADER4                      
     00000080  ___size_SGB_border_pal             border
     000000AB  l__HEADER11                     
     000001CB  l__CRASH_SCRATCH2               
     00000200  s__CODE                         
     00000700  ___size_SGB_border_map             border
     00000B5B  l__CODE_62                      
     00000DE0  ___size_SGB_border_chr             border
     00000ED4  l__CODE                         
     000010D4  s__HOME                         
     00001994  l__DATA                         
     00002000  _rROMB0                            
     00002DB1  l__HOME                         
     00003000  _rROMB1                            
     00003E85  s__BASE                         
     00003E85  s__CODE_0                       
     00003E85  s__INITIALIZER                  
     00003E85  s__LIT                          
     00003E9F  s__GSINIT                       
     00003EC6  s__GSFINAL                      
     00003FFE  l__CODE_36                      
     00003FFE  l__CODE_37                      
     00003FFE  l__CODE_50                      
     00003FFE  l__CODE_6                       
ASxxxx Linker V03.00/V05.40 + sdld,  page 28.
Hexadecimal  [32-Bits]

Area                                    Addr        Size        Decimal Bytes (Attributes)
--------------------------------        ----        ----        ------- ----- ------------
.  .ABS.                            00000000    00000000 =           0. bytes (ABS,CON)

      Value  Global                              Global Defined In Module
      -----  --------------------------------   ------------------------
     00003FFF  l__CODE_2                       
     00003FFF  l__CODE_21                      
     00003FFF  l__CODE_22                      
     00003FFF  l__CODE_23                      
     00003FFF  l__CODE_24                      
     00003FFF  l__CODE_3                       
     00003FFF  l__CODE_31                      
     00003FFF  l__CODE_33                      
     00003FFF  l__CODE_34                      
     00003FFF  l__CODE_39                      
     00003FFF  l__CODE_4                       
     00003FFF  l__CODE_42                      
     00003FFF  l__CODE_43                      
     00003FFF  l__CODE_44                      
     00003FFF  l__CODE_45                      
     00003FFF  l__CODE_48                      
     00003FFF  l__CODE_49                      
     00003FFF  l__CODE_5                       
     00003FFF  l__CODE_54                      
     00003FFF  l__CODE_61                      
     00003FFF  l__CODE_7                       
     00003FFF  l__CODE_9                       
     00004000  _RTC_SELECT_REG                    vm_rtc
     00004000  _rRAMB                             
     00004000  l__CODE_1                       
     00004000  l__CODE_10                      
     00004000  l__CODE_11                      
     00004000  l__CODE_12                      
     00004000  l__CODE_13                      
     00004000  l__CODE_14                      
     00004000  l__CODE_15                      
     00004000  l__CODE_16                      
     00004000  l__CODE_17                      
     00004000  l__CODE_18                      
     00004000  l__CODE_19                      
     00004000  l__CODE_20                      
     00004000  l__CODE_25                      
     00004000  l__CODE_26                      
     00004000  l__CODE_27                      
     00004000  l__CODE_28                      
     00004000  l__CODE_29                      
     00004000  l__CODE_30                      
     00004000  l__CODE_32                      
     00004000  l__CODE_35                      
     00004000  l__CODE_38                      
     00004000  l__CODE_40                      
     00004000  l__CODE_41                      
     00004000  l__CODE_46                      
     00004000  l__CODE_47                      
     00004000  l__CODE_51                      
     00004000  l__CODE_52                      
ASxxxx Linker V03.00/V05.40 + sdld,  page 29.
Hexadecimal  [32-Bits]

Area                                    Addr        Size        Decimal Bytes (Attributes)
--------------------------------        ----        ----        ------- ----- ------------
.  .ABS.                            00000000    00000000 =           0. bytes (ABS,CON)

      Value  Global                              Global Defined In Module
      -----  --------------------------------   ------------------------
     00004000  l__CODE_53                      
     00004000  l__CODE_55                      
     00004000  l__CODE_56                      
     00004000  l__CODE_57                      
     00004000  l__CODE_58                      
     00004000  l__CODE_59                      
     00004000  l__CODE_60                      
     00004000  l__CODE_8                       
     00006000  _RTC_LATCH_REG                     vm_rtc
     00008000  __VRAM                             
     00008000  __VRAM8000                         
     00008800  __VRAM8800                         
     00009000  __VRAM9000                         
     00009800  __SCRN0                            
     00009C00  __SCRN1                            
     0000A000  _RTC_VALUE_REG                     vm_rtc
     0000A000  __SRAM                             
     0000C000  __RAM                              
     0000C000  _shadow_OAM                     
     0000C0A0  s__DATA                         
     0000D000  __RAMBANK                          
     0000DA34  s__BSS                          
     0000DA34  s__INITIALIZED                  
     0000DA4E  s__HEAP                         
     0000DA4E  s__HEAP_END                     
     0000DF00  .STACK                          
     0000DF00  _shadow_OAM2                       absolute
     0000DFA0  _BkgPalette                        absolute
     0000DFE0  _vwf_tile_data                     absolute
     0000FE00  __OAMRAM                           
     0000FF00  _P1_REG                            
     0000FF00  __IO                               
     0000FF01  _SB_REG                            
     0000FF02  _SC_REG                            
     0000FF04  _DIV_REG                           
     0000FF05  _TIMA_REG                          
     0000FF06  _TMA_REG                           
     0000FF07  _TAC_REG                           
     0000FF0F  _IF_REG                            
     0000FF10  _NR10_REG                          
     0000FF11  _NR11_REG                          
     0000FF12  _NR12_REG                          
     0000FF13  _NR13_REG                          
     0000FF14  _NR14_REG                          
     0000FF16  _NR21_REG                          
     0000FF17  _NR22_REG                          
     0000FF18  _NR23_REG                          
     0000FF19  _NR24_REG                          
     0000FF1A  _NR30_REG                          
     0000FF1B  _NR31_REG                          
     0000FF1C  _NR32_REG                          
ASxxxx Linker V03.00/V05.40 + sdld,  page 30.
Hexadecimal  [32-Bits]

Area                                    Addr        Size        Decimal Bytes (Attributes)
--------------------------------        ----        ----        ------- ----- ------------
.  .ABS.                            00000000    00000000 =           0. bytes (ABS,CON)

      Value  Global                              Global Defined In Module
      -----  --------------------------------   ------------------------
     0000FF1D  _NR33_REG                          
     0000FF1E  _NR34_REG                          
     0000FF20  _NR41_REG                          
     0000FF21  _NR42_REG                          
     0000FF22  _NR43_REG                          
     0000FF23  _NR44_REG                          
     0000FF24  _NR50_REG                          
     0000FF25  _NR51_REG                          
     0000FF26  _NR52_REG                          
     0000FF30  _AUD3WAVE                          
     0000FF30  _PCM_SAMPLE                        
     0000FF30  __AUD3WAVERAM                      
     0000FF40  _LCDC_REG                          
     0000FF41  _STAT_REG                          
     0000FF42  _SCY_REG                           
     0000FF43  _SCX_REG                           
     0000FF44  _LY_REG                            
     0000FF45  _LYC_REG                           
     0000FF46  _DMA_REG                           
     0000FF47  _BGP_REG                           
     0000FF48  _OBP0_REG                          
     0000FF49  _OBP1_REG                          
     0000FF4A  _WY_REG                            
     0000FF4B  _WX_REG                            
     0000FF4D  _KEY1_REG                          
     0000FF4F  _VBK_REG                           
     0000FF51  _HDMA1_REG                         
     0000FF52  _HDMA2_REG                         
     0000FF53  _HDMA3_REG                         
     0000FF54  _HDMA4_REG                         
     0000FF55  _HDMA5_REG                         
     0000FF56  _RP_REG                            
     0000FF68  _BCPS_REG                          
     0000FF69  _BCPD_REG                          
     0000FF6A  _OCPS_REG                          
     0000FF6B  _OCPD_REG                          
     0000FF70  _SVBK_REG                          
     0000FF76  _PCM12_REG                         
     0000FF77  _PCM34_REG                         
     0000FF80  .refresh_OAM                    
     0000FF80  __HRAM                             
     0000FFFF  _IE_REG                            
     00014000  s__CODE_1                       
     00024000  s__CODE_2                       
     00034000  s__CODE_3                       
     00044000  s__CODE_4                       
     00054000  s__CODE_5                       
     00064000  s__CODE_6                       
     00074000  s__CODE_7                       
     00084000  s__CODE_8                       
     00094000  s__CODE_9                       
ASxxxx Linker V03.00/V05.40 + sdld,  page 31.
Hexadecimal  [32-Bits]

Area                                    Addr        Size        Decimal Bytes (Attributes)
--------------------------------        ----        ----        ------- ----- ------------
.  .ABS.                            00000000    00000000 =           0. bytes (ABS,CON)

      Value  Global                              Global Defined In Module
      -----  --------------------------------   ------------------------
     000A4000  s__CODE_10                      
     000B4000  s__CODE_11                      
     000C4000  s__CODE_12                      
     000D4000  s__CODE_13                      
     000E4000  s__CODE_14                      
     000F4000  s__CODE_15                      
     00104000  s__CODE_16                      
     00114000  s__CODE_17                      
     00124000  s__CODE_18                      
     00134000  s__CODE_19                      
     00144000  s__CODE_20                      
     00154000  s__CODE_21                      
     00164000  s__CODE_22                      
     00174000  s__CODE_23                      
     00184000  s__CODE_24                      
     00194000  s__CODE_25                      
     001A4000  s__CODE_26                      
     001B4000  s__CODE_27                      
     001C4000  s__CODE_28                      
     001D4000  s__CODE_29                      
     001E4000  s__CODE_30                      
     001F4000  s__CODE_31                      
     00204000  s__CODE_32                      
     00214000  s__CODE_33                      
     00224000  s__CODE_34                      
     00234000  s__CODE_35                      
     00244000  s__CODE_36                      
     00254000  s__CODE_37                      
     00264000  s__CODE_38                      
     00274000  s__CODE_39                      
     00284000  s__CODE_40                      
     00294000  s__CODE_41                      
     002A4000  s__CODE_42                      
     002B4000  s__CODE_43                      
     002C4000  s__CODE_44                      
     002D4000  s__CODE_45                      
     002E4000  s__CODE_46                      
     002F4000  s__CODE_47                      
     00304000  s__CODE_48                      
     00314000  s__CODE_49                      
     00324000  s__CODE_50                      
     00334000  s__CODE_51                      
     00344000  s__CODE_52                      
     00354000  s__CODE_53                      
     00364000  s__CODE_54                      
     00374000  s__CODE_55                      
     00384000  s__CODE_56                      
     00394000  s__CODE_57                      
     003A4000  s__CODE_58                      
     003B4000  s__CODE_59                      
     003C4000  s__CODE_60                      
ASxxxx Linker V03.00/V05.40 + sdld,  page 32.
Hexadecimal  [32-Bits]

Area                                    Addr        Size        Decimal Bytes (Attributes)
--------------------------------        ----        ----        ------- ----- ------------
.  .ABS.                            00000000    00000000 =           0. bytes (ABS,CON)

      Value  Global                              Global Defined In Module
      -----  --------------------------------   ------------------------
     003D4000  s__CODE_61                      
     003E4000  s__CODE_62                      

ASxxxx Linker V03.00/V05.40 + sdld,  page 33.
Hexadecimal  [32-Bits]

Area                                    Addr        Size        Decimal Bytes (Attributes)
--------------------------------        ----        ----        ------- ----- ------------
_CODE                               00000200    00000ED4 =        3796. bytes (REL,CON)

      Value  Global                              Global Defined In Module
      -----  --------------------------------   ------------------------
     00000200  ___HandleCrash                     
     0000020A  _SIO_send_byte                     
     0000021D  _SIO_receive                       
     0000022E  _GetWinAddr                        
     00000236  _GetBkgAddr                        
     00000244  _state_init                        
     00000249  _state_update                      
     0000026B  _ui_time_masks                     
     00000273  _ui_print_shift_char               
     000002F6  _ui_draw_frame_row                 
     000002FF  .ui_draw_frame_row                 
     00000328  _script_cmds                       vm_instructions
     00000560  _save_signature                    game_signature
     00000564  _start_scene_x                     
     00000566  _start_scene_y                     
     00000568  _start_scene_dir                   
     00000569  _start_scene                       
     0000056C  _start_player_move_speed           
     0000056D  _start_player_anim_tick            
     0000056E  _ui_fonts                          
     00000574  _core_reset_hook                   main
     0000057C  _main                              main
     00000584  _state_start_fns                   
     00000596  _state_update_fns                  
     000005A8  _hUGE_init                         hUGEDriver_obj
     000005AA  hUGE_init                          hUGEDriver_obj
     00000600  _hUGE_mute_channel                 hUGEDriver_obj
     00000602  hUGE_mute_channel                  hUGEDriver_obj
     00000850  _hUGE_set_position                 hUGEDriver_obj
     00000852  hUGE_set_position                  hUGEDriver_obj
     00000A17  _hUGE_dosound                      hUGEDriver_obj
     00000A17  hUGE_dosound                       hUGEDriver_obj
     00000D43  _get_vram_byte                     
     00000D4B  _get_win_tile_xy                   
     00000D53  _get_bkg_tile_xy                   
     00000D7A  _set_sprite_palette                CGB
     00000D7F  _set_bkg_palette                   CGB
     00000D82  .set_palette                       CGB
     00000DA1  _set_sprite_palette_entry          CGB
     00000DA6  _set_bkg_palette_entry             CGB
     00000DA9  .set_palette_entry                 CGB
     00000DC5  _hide_sprites_range                Metasprites
     00000DF4  __mulsuchar                        mul
     00000DF7  __muluschar                        mul
     00000E00  __mulschar                         mul
     00000E08  __mulint                           mul
     00000E27  __muluchar                         mul
     00000E39  _set_vram_byte                     
     00000E42  _set_win_tile_xy                   
     00000E4B  _set_bkg_tile_xy                   
ASxxxx Linker V03.00/V05.40 + sdld,  page 34.
Hexadecimal  [32-Bits]

Area                                    Addr        Size        Decimal Bytes (Attributes)
--------------------------------        ----        ----        ------- ----- ------------
_CODE                               00000200    00000ED4 =        3796. bytes (REL,CON)

      Value  Global                              Global Defined In Module
      -----  --------------------------------   ------------------------
     00000E7A  .sgb_check                         
     00000E7A  _sgb_check                         
     00000EC2  _sgb_transfer                      
     00000EC7  .sgb_transfer                      
     00000F08  .copy_vram                         
     00000F0E  _get_data                          
     00000F0E  _set_data                          
     00000F0E  _vmemcpy                           
     00000F5C  ___move_metasprite                 Metasprites
     00000F99  ___memcpy                          
     00000F99  _memcpy                            
     00000FCB  _cpu_slow                          CGB
     00000FE6  _cpu_fast                          CGB
     00000FED  __divsuchar                        divmod
     00000FF3  __modsuchar                        divmod
     00000FFC  __divuschar                        divmod
     00001005  __moduschar                        divmod
     00001011  __divschar                         divmod
     00001016  __modschar                         divmod
     0000101D  __divsint                          divmod
     00001026  __modsint                          divmod
     00001032  __divuchar                         divmod
     00001037  __moduchar                         divmod
     0000103E  __divuint                          divmod
     00001047  __moduint                          divmod
     00001053  .div8                              divmod
     00001053  .mod8                              divmod
     0000105B  .div16                             divmod
     0000105B  .mod16                             divmod
     00001091  .divu8                             divmod
     00001091  .modu8                             divmod
     00001094  .divu16                            divmod
     00001094  .modu16                            divmod

ASxxxx Linker V03.00/V05.40 + sdld,  page 35.
Hexadecimal  [32-Bits]

Area                                    Addr        Size        Decimal Bytes (Attributes)
--------------------------------        ----        ----        ------- ----- ------------
_HEADER0                            00000000    00000001 =           1. bytes (ABS,CON)

      Value  Global                              Global Defined In Module
      -----  --------------------------------   ------------------------
     00000020  .call_hl                           Runtime

ASxxxx Linker V03.00/V05.40 + sdld,  page 36.
Hexadecimal  [32-Bits]

Area                                    Addr        Size        Decimal Bytes (Attributes)
--------------------------------        ----        ----        ------- ----- ------------
_HEADER1                            00000000    00000005 =           5. bytes (ABS,CON)

      Value  Global                              Global Defined In Module
      -----  --------------------------------   ------------------------
     00000028  .MemsetSmall                       Runtime

ASxxxx Linker V03.00/V05.40 + sdld,  page 37.
Hexadecimal  [32-Bits]

Area                                    Addr        Size        Decimal Bytes (Attributes)
--------------------------------        ----        ----        ------- ----- ------------
_HEADER2                            00000000    00000007 =           7. bytes (ABS,CON)

      Value  Global                              Global Defined In Module
      -----  --------------------------------   ------------------------
     00000030  .MemcpySmall                       Runtime

ASxxxx Linker V03.00/V05.40 + sdld,  page 38.
Hexadecimal  [32-Bits]

Area                                    Addr        Size        Decimal Bytes (Attributes)
--------------------------------        ----        ----        ------- ----- ------------
_HEADER3                            00000000    00000008 =           8. bytes (ABS,CON)

      Value  Global                              Global Defined In Module
      -----  --------------------------------   ------------------------
ASxxxx Linker V03.00/V05.40 + sdld,  page 39.
Hexadecimal  [32-Bits]

Area                                    Addr        Size        Decimal Bytes (Attributes)
--------------------------------        ----        ----        ------- ----- ------------
_HEADER4                            00000000    00000060 =          96. bytes (ABS,CON)

      Value  Global                              Global Defined In Module
      -----  --------------------------------   ------------------------
     00000080  .int                               Runtime
     0000008F  _wait_int_handler                  Runtime
     0000009C  __standard_VBL_handler             Runtime
     000000AB  _refresh_OAM                       Runtime
     000000CC  _set_interrupts                    Runtime

ASxxxx Linker V03.00/V05.40 + sdld,  page 40.
Hexadecimal  [32-Bits]

Area                                    Addr        Size        Decimal Bytes (Attributes)
--------------------------------        ----        ----        ------- ----- ------------
_HEADER5                            00000000    00000001 =           1. bytes (ABS,CON)

      Value  Global                              Global Defined In Module
      -----  --------------------------------   ------------------------
ASxxxx Linker V03.00/V05.40 + sdld,  page 41.
Hexadecimal  [32-Bits]

Area                                    Addr        Size        Decimal Bytes (Attributes)
--------------------------------        ----        ----        ------- ----- ------------
_HEADER6                            00000000    00000002 =           2. bytes (ABS,CON)

      Value  Global                              Global Defined In Module
      -----  --------------------------------   ------------------------
ASxxxx Linker V03.00/V05.40 + sdld,  page 42.
Hexadecimal  [32-Bits]

Area                                    Addr        Size        Decimal Bytes (Attributes)
--------------------------------        ----        ----        ------- ----- ------------
_HEADER7                            00000000    00000030 =          48. bytes (ABS,CON)

      Value  Global                              Global Defined In Module
      -----  --------------------------------   ------------------------
ASxxxx Linker V03.00/V05.40 + sdld,  page 43.
Hexadecimal  [32-Bits]

Area                                    Addr        Size        Decimal Bytes (Attributes)
--------------------------------        ----        ----        ------- ----- ------------
_HEADER8                            00000000    00000006 =           6. bytes (ABS,CON)

      Value  Global                              Global Defined In Module
      -----  --------------------------------   ------------------------
ASxxxx Linker V03.00/V05.40 + sdld,  page 44.
Hexadecimal  [32-Bits]

Area                                    Addr        Size        Decimal Bytes (Attributes)
--------------------------------        ----        ----        ------- ----- ------------
_HEADER9                            00000000    00000003 =           3. bytes (ABS,CON)

      Value  Global                              Global Defined In Module
      -----  --------------------------------   ------------------------
ASxxxx Linker V03.00/V05.40 + sdld,  page 45.
Hexadecimal  [32-Bits]

Area                                    Addr        Size        Decimal Bytes (Attributes)
--------------------------------        ----        ----        ------- ----- ------------
_HEADERa                            00000000    00000001 =           1. bytes (ABS,CON)

      Value  Global                              Global Defined In Module
      -----  --------------------------------   ------------------------
ASxxxx Linker V03.00/V05.40 + sdld,  page 46.
Hexadecimal  [32-Bits]

Area                                    Addr        Size        Decimal Bytes (Attributes)
--------------------------------        ----        ----        ------- ----- ------------
_HEADERb                            00000000    00000001 =           1. bytes (ABS,CON)

      Value  Global                              Global Defined In Module
      -----  --------------------------------   ------------------------
ASxxxx Linker V03.00/V05.40 + sdld,  page 47.
Hexadecimal  [32-Bits]

Area                                    Addr        Size        Decimal Bytes (Attributes)
--------------------------------        ----        ----        ------- ----- ------------
_HEADERc                            00000000    00000001 =           1. bytes (ABS,CON)

      Value  Global                              Global Defined In Module
      -----  --------------------------------   ------------------------
ASxxxx Linker V03.00/V05.40 + sdld,  page 48.
Hexadecimal  [32-Bits]

Area                                    Addr        Size        Decimal Bytes (Attributes)
--------------------------------        ----        ----        ------- ----- ------------
_HEADERd                            00000000    00000002 =           2. bytes (ABS,CON)

      Value  Global                              Global Defined In Module
      -----  --------------------------------   ------------------------
ASxxxx Linker V03.00/V05.40 + sdld,  page 49.
Hexadecimal  [32-Bits]

Area                                    Addr        Size        Decimal Bytes (Attributes)
--------------------------------        ----        ----        ------- ----- ------------
_HEADERe                            00000000    00000001 =           1. bytes (ABS,CON)

      Value  Global                              Global Defined In Module
      -----  --------------------------------   ------------------------
ASxxxx Linker V03.00/V05.40 + sdld,  page 50.
Hexadecimal  [32-Bits]

Area                                    Addr        Size        Decimal Bytes (Attributes)
--------------------------------        ----        ----        ------- ----- ------------
_HEADERf                            00000000    00000001 =           1. bytes (ABS,CON)

      Value  Global                              Global Defined In Module
      -----  --------------------------------   ------------------------
ASxxxx Linker V03.00/V05.40 + sdld,  page 51.
Hexadecimal  [32-Bits]

Area                                    Addr        Size        Decimal Bytes (Attributes)
--------------------------------        ----        ----        ------- ----- ------------
_HEADER10                           00000000    00000002 =           2. bytes (ABS,CON)

      Value  Global                              Global Defined In Module
      -----  --------------------------------   ------------------------
ASxxxx Linker V03.00/V05.40 + sdld,  page 52.
Hexadecimal  [32-Bits]

Area                                    Addr        Size        Decimal Bytes (Attributes)
--------------------------------        ----        ----        ------- ----- ------------
_HEADER11                           00000000    000000AB =         171. bytes (ABS,CON)

      Value  Global                              Global Defined In Module
      -----  --------------------------------   ------------------------
     00000150  .reset                             Runtime
     00000150  _reset                             Runtime
     00000157  .code_start                        Runtime
     000001B9  _exit                              Runtime
     000001BD  .wait_vbl_done                     Runtime
     000001BD  _vsync                             Runtime
     000001BD  _wait_vbl_done                     Runtime
     000001CD  .remove_VBL                        Runtime
     000001CD  _remove_VBL                        Runtime
     000001D0  .remove_int                        Runtime
     000001ED  .add_VBL                           Runtime
     000001ED  _add_VBL                           Runtime
     000001F0  .add_int                           Runtime

ASxxxx Linker V03.00/V05.40 + sdld,  page 53.
Hexadecimal  [32-Bits]

Area                                    Addr        Size        Decimal Bytes (Attributes)
--------------------------------        ----        ----        ------- ----- ------------
_HOME                               000010D4    00002DB1 =       11697. bytes (REL,CON)

      Value  Global                              Global Defined In Module
      -----  --------------------------------   ------------------------
     000010D4  .memset_simple                     Runtime
     000010DD  .memcpy_simple                     Runtime
     000010FA  .display_off                       Runtime
     000010FA  _display_off                       Runtime
     00001112  _actors_update                     actor
     0000157A  _SetBankedBkgData                  bankdata
     00001596  _SetBankedSpriteData               bankdata
     000015B2  _SetBankedBkgTiles                 bankdata
     000015CE  _SetBankedWinTiles                 bankdata
     000015EA  _ReadBankedFarPtr                  bankdata
     0000160C  _ReadBankedUWORD                   bankdata
     00001626  _MemcpyBanked                      bankdata
     00001648  _MemcpyVRAMBanked                  bankdata
     00001677  _IndexOfFarPtr                     bankdata
     000016FC  _camera_update                     camera
     0000182F  _load_animations                   data_manager
     00001888  _events_update                     events
     0000195B  _timers_update                     events
     000019E4  _input_update                      input
     00001A0A  .sio_ISR                           
     00001A64  .timer_ISR                         
     00001A79  _simple_LCD_isr                    interrupts
     00001AF8  _fullscreen_LCD_isr                interrupts
     00001B24  _VBL_isr                           interrupts
     00001B6E  _isqrt                             math
     00001BCB  _sine_wave                         math
     00001CCB  _dir_lookup                        math
     00001CD3  _dir_angle_lookup                  math
     00001CD7  _hUGETrackerRoutine                music_manager
     00001CFE  _music_events_update               music_manager
     00001D80  _music_play_isr                    music_manager
     00001E21  _parallax_LCD_isr                  parallax
     00001E5E  _projectiles_update                projectiles
     000022DF  _projectiles_render                projectiles
     00002434  _scroll_load_pending_row           scroll
     000024BA  _scroll_load_row                   scroll
     0000252F  _scroll_load_col                   scroll
     00002598  _scroll_load_pending_col           scroll
     00002620  _set_bkg_submap                    
     00002663  _set_xy_win_submap                 
     00002690  .set_xy_win_submap                 
     00002699  .set_xy_bkg_submap                 
     000026A8  .set_xy_submap                     
     000026F4  _sfx_play_isr                      sfx_player
     000027CD  _on_SIO_receive                    sio
     0000280E  _SIO_update                        sio
     00002875  _ui_update                         ui
     000029AD  _vm_sgb_transfer                   vm_sgb
     000029FA  _vm_load_text                      vm_ui
     00002C50  _vm_switch                         vm
ASxxxx Linker V03.00/V05.40 + sdld,  page 54.
Hexadecimal  [32-Bits]

Area                                    Addr        Size        Decimal Bytes (Attributes)
--------------------------------        ----        ----        ------- ----- ------------
_HOME                               000010D4    00002DB1 =       11697. bytes (REL,CON)

      Value  Global                              Global Defined In Module
      -----  --------------------------------   ------------------------
     00002D81  _vm_beginthread                    vm
     00002EA5  _vm_rpn                            vm
     000038BD  _vm_get_far                        vm
     0000392B  _vm_call_native                    vm
     0000393E  _VM_STEP                           vm
     000039A8  _script_runner_update              vm
     00003B0D  _fill_win_rect                     
     00003B1F  _rand                              
     00003B1F  _randw                             
     00003B4A  _initrand                          
     00003B4C  .initrand                          
     00003B55  _get_bkg_data                      
     00003B55  _get_win_data                      
     00003BA2  _get_sprite_data                   
     00003BD5  _abs                               abs
     00003BE2  _set_win_tiles                     
     00003BF6  _set_tile_data                     
     00003BFB  _set_bkg_data                      
     00003BFB  _set_win_data                      
     00003C03  _set_sprite_data                   
     00003C33  _reverse                           reverse
     00003C67  ___call__banked                    far_ptr
     00003C84  _to_far_ptr                        far_ptr
     00003CBA  .add_LCD                           
     00003CBA  _add_LCD                           
     00003CC0  .remove_LCD                        
     00003CC0  _remove_LCD                        
     00003CC6  .fill_rect_wtt                     
     00003CCF  .fill_rect_btt                     
     00003D1C  _joypad_init                       
     00003D6A  .joypad_ex                         
     00003D6A  _joypad_ex                         
     00003DB5  _fill_bkg_rect                     
     00003DC7  ___sdcc_call_hl                    call_hl
     00003DC8  _memset                            memset
     00003DFB  .set_xy_wtt                        SetTileMap
     00003E04  .set_xy_btt                        SetTileMap
     00003E13  .set_xy_tt                         SetTileMap
     00003E57  ___sdcc_bcall_ehl                  
     00003E71  _set_bkg_tiles                     
ASxxxx Linker V03.00/V05.40 + sdld,  page 55.
Hexadecimal  [32-Bits]

Area                                    Addr        Size        Decimal Bytes (Attributes)
--------------------------------        ----        ----        ------- ----- ------------
_INITIALIZER                        00003E85    0000001A =          26. bytes (REL,CON)

      Value  Global                              Global Defined In Module
      -----  --------------------------------   ------------------------
ASxxxx Linker V03.00/V05.40 + sdld,  page 56.
Hexadecimal  [32-Bits]

Area                                    Addr        Size        Decimal Bytes (Attributes)
--------------------------------        ----        ----        ------- ----- ------------
_GSINIT                             00003E9F    00000027 =          39. bytes (REL,CON)

      Value  Global                              Global Defined In Module
      -----  --------------------------------   ------------------------
     00003E9F  gsinit                             Runtime

ASxxxx Linker V03.00/V05.40 + sdld,  page 57.
Hexadecimal  [32-Bits]

Area                                    Addr        Size        Decimal Bytes (Attributes)
--------------------------------        ----        ----        ------- ----- ------------
_GSFINAL                            00003EC6    00000001 =           1. bytes (REL,CON)

      Value  Global                              Global Defined In Module
      -----  --------------------------------   ------------------------
ASxxxx Linker V03.00/V05.40 + sdld,  page 58.
Hexadecimal  [32-Bits]

Area                                    Addr        Size        Decimal Bytes (Attributes)
--------------------------------        ----        ----        ------- ----- ------------
_DATA                               0000C0A0    00001994 =        6548. bytes (REL,CON)

      Value  Global                              Global Defined In Module
      -----  --------------------------------   ------------------------
     0000C0A0  __cpu                              Runtime
     0000C0A1  __is_GBA                           Runtime
     0000C0A2  .mode                              Runtime
     0000C0A3  .sys_time                          Runtime
     0000C0A3  _sys_time                          Runtime
     0000C0A5  .int_0x40                          Runtime
     0000C0B1  _actors                            actor
     0000C4F5  _actors_active_head                actor
     0000C4F7  _actors_active_tail                actor
     0000C4F9  _actors_inactive_head              actor
     0000C4FB  _screen_x                          actor
     0000C4FC  _screen_y                          actor
     0000C4FD  _invalid                           actor
     0000C4FF  _player_moving                     actor
     0000C500  _player_iframes                    actor
     0000C501  _player_collision_actor            actor
     0000C503  _emote_actor                       actor
     0000C505  _emote_timer                       actor
     0000C506  _allocated_sprite_tiles            actor
     0000C507  _allocated_hardware_sprites        actor
     0000C514  _camera_x                          camera
     0000C516  _camera_y                          camera
     0000C518  _camera_offset_x                   camera
     0000C519  _camera_offset_y                   camera
     0000C51A  _camera_deadzone_x                 camera
     0000C51B  _camera_deadzone_y                 camera
     0000C51C  _camera_settings                   camera
     0000C520  _current_scene                     data_manager
     0000C523  _image_bank                        data_manager
     0000C524  _image_ptr                         data_manager
     0000C526  _image_attr_bank                   data_manager
     0000C527  _image_attr_ptr                    data_manager
     0000C529  _collision_bank                    data_manager
     0000C52A  _collision_ptr                     data_manager
     0000C52C  _image_tile_width                  data_manager
     0000C52D  _image_tile_height                 data_manager
     0000C52E  _image_width                       data_manager
     0000C530  _image_height                      data_manager
     0000C532  _sprites_len                       data_manager
     0000C533  _actors_len                        data_manager
     0000C534  _projectiles_len                   data_manager
     0000C535  _player_sprite_len                 data_manager
     0000C536  _scene_type                        data_manager
     0000C537  _scene_LCD_type                    data_manager
     0000C538  _scene_stack                       data_manager
     0000C578  _scene_stack_ptr                   data_manager
     0000C57A  _scene_sprites_base_tiles          data_manager
     0000C5BA  _input_events                      events
     0000C5E2  _input_slots                       events
     0000C5EA  _timer_events                      events
ASxxxx Linker V03.00/V05.40 + sdld,  page 59.
Hexadecimal  [32-Bits]

Area                                    Addr        Size        Decimal Bytes (Attributes)
--------------------------------        ----        ----        ------- ----- ------------
_DATA                               0000C0A0    00001994 =        6548. bytes (REL,CON)

      Value  Global                              Global Defined In Module
      -----  --------------------------------   ------------------------
     0000C5FE  _timer_values                      events
     0000C606  _fade_running                      fade_manager
     0000C607  _fade_frames_per_step              fade_manager
     0000C608  _fade_timer                        fade_manager
     0000C610  _joypads                           input
     0000C615  _frame_joy                         input
     0000C616  _last_joy                          input
     0000C617  _recent_joy                        input
     0000C618  _SIO_status                        
     0000C619  _link_byte_sent                    
     0000C61A  _link_next_mode                    
     0000C61B  _save_blob_size                    load_save
     0000C61D  _routine_queue                     music_manager
     0000C621  _routine_queue_head                music_manager
     0000C622  _routine_queue_tail                music_manager
     0000C623  _music_events                      music_manager
     0000C637  _music_current_track_bank          music_manager
     0000C638  _music_mute_mask                   music_manager
     0000C639  _music_effective_mute              music_manager
     0000C63A  _music_next_track                  music_manager
     0000C63C  _music_current_track               music_manager
     0000C63E  _music_play_isr_counter            music_manager
     0000C63F  _music_play_isr_pause              music_manager
     0000C640  _music_global_mute_mask            music_manager
     0000C641  _music_sfx_priority                music_manager
     0000C642  _DMG_palette                       palette
     0000C645  _SprPalette                        palette
     0000C685  _parallax_rows                     parallax
     0000C697  _parallax_row                      parallax
     0000C699  _projectiles                       projectiles
     0000C752  _projectile_defs                   projectiles
     0000C7C5  _projectiles_active_head           projectiles
     0000C7C7  _projectiles_inactive_head         projectiles
     0000C7CE  _scroll_x                          scroll
     0000C7D0  _scroll_y                          scroll
     0000C7D2  _draw_scroll_x                     scroll
     0000C7D4  _draw_scroll_y                     scroll
     0000C7D6  _scroll_x_max                      scroll
     0000C7D8  _scroll_y_max                      scroll
     0000C7DA  _scroll_offset_x                   scroll
     0000C7DB  _scroll_offset_y                   scroll
     0000C7DC  _pending_h_x                       scroll
     0000C7DD  _pending_h_y                       scroll
     0000C7DE  _pending_h_i                       scroll
     0000C7DF  _pending_w_x                       scroll
     0000C7E0  _pending_w_y                       scroll
     0000C7E1  _pending_w_i                       scroll
     0000C7E2  _current_row                       scroll
     0000C7E4  _new_row                           scroll
     0000C7E6  _current_col                       scroll
     0000C7E8  _new_col                           scroll
ASxxxx Linker V03.00/V05.40 + sdld,  page 60.
Hexadecimal  [32-Bits]

Area                                    Addr        Size        Decimal Bytes (Attributes)
--------------------------------        ----        ----        ------- ----- ------------
_DATA                               0000C0A0    00001994 =        6548. bytes (REL,CON)

      Value  Global                              Global Defined In Module
      -----  --------------------------------   ------------------------
     0000C7EA  .image_tile_width                  
     0000C7EB  _sfx_play_bank                     sfx_player
     0000C7EC  _sfx_play_sample                   sfx_player
     0000C7EE  _sfx_frame_skip                    sfx_player
     0000C7EF  _link_operation_mode               sio
     0000C7F0  _link_packet                       sio
     0000C810  _link_packet_len                   sio
     0000C811  _link_packet_ptr                   sio
     0000C813  _link_packet_received              sio
     0000C814  _link_packet_snd_len               sio
     0000C815  _link_packet_snd_ptr               sio
     0000C817  _link_packet_sent                  sio
     0000C818  __is_CGB                           system
     0000C819  __is_SGB                           system
     0000C81A  __current_ram_bank                 system
     0000C81B  _triggers                          trigger
     0000C913  _last_trigger_tx                   trigger
     0000C914  _last_trigger_ty                   trigger
     0000C915  _last_trigger                      trigger
     0000C916  _win_pos_x                         ui
     0000C917  _win_dest_pos_x                    ui
     0000C918  _win_pos_y                         ui
     0000C919  _win_dest_pos_y                    ui
     0000C91A  _win_speed                         ui
     0000C91B  _text_drawn                        ui
     0000C91C  _current_text_speed                ui
     0000C91D  _text_wait                         ui
     0000C91E  _text_options                      ui
     0000C91F  _text_in_speed                     ui
     0000C920  _text_out_speed                    ui
     0000C921  _text_draw_speed                   ui
     0000C922  _text_ff_joypad                    ui
     0000C923  _text_ff                           ui
     0000C924  _text_bkg_fill                     ui
     0000C925  _ui_text_data                      ui
     0000CA2F  _vwf_current_mask                  ui
     0000CA30  _vwf_current_rotate                ui
     0000CA31  _vwf_inverse_map                   ui
     0000CA32  _vwf_direction                     ui
     0000CA33  _vwf_current_font_desc             ui
     0000CA3B  _vwf_current_font_bank             ui
     0000CA3C  _vwf_current_font_idx              ui
     0000CA3D  _text_render_base_addr             ui
     0000CA3F  _text_scroll_addr                  ui
     0000CA41  _text_scroll_width                 ui
     0000CA42  _text_scroll_height                ui
     0000CA43  _text_scroll_fill                  ui
     0000CA44  _text_sound_mask                   ui
     0000CA45  _text_sound_bank                   ui
     0000CA46  _text_sound_data                   ui
     0000CA48  _overlay_priority                  ui
ASxxxx Linker V03.00/V05.40 + sdld,  page 61.
Hexadecimal  [32-Bits]

Area                                    Addr        Size        Decimal Bytes (Attributes)
--------------------------------        ----        ----        ------- ----- ------------
_DATA                               0000C0A0    00001994 =        6548. bytes (REL,CON)

      Value  Global                              Global Defined In Module
      -----  --------------------------------   ------------------------
     0000CA49  _text_palette                      ui
     0000CA50  __itoa_fmt_len                     vm_ui_a
     0000CA51  .itoa_fmt_buf                      vm_ui_a
     0000CA54  _CTXS                              vm
     0000CB84  _first_ctx                         vm
     0000CB86  _free_ctxs                         vm
     0000CB88  _old_executing_ctx                 vm
     0000CB8A  _executing_ctx                     vm
     0000CB8C  _vm_lock_state                     vm
     0000CB8D  _vm_loaded_state                   vm
     0000CB8E  _vm_exception_code                 vm
     0000CB8F  _vm_exception_params_length        vm
     0000CB90  _vm_exception_params_bank          vm
     0000CB91  _vm_exception_params_offset        vm
     0000CB95  _script_memory                     vm
     0000D99B  _grounded                          platform
     0000D99C  _on_slope                          platform
     0000D99D  _slope_y                           platform
     0000D99E  _on_ladder                         platform
     0000D99F  _pl_vel_x                          platform
     0000D9A1  _pl_vel_y                          platform
     0000D9A3  _plat_min_vel                      platform
     0000D9A5  _plat_walk_vel                     platform
     0000D9A7  _plat_climb_vel                    platform
     0000D9A9  _plat_run_vel                      platform
     0000D9AB  _plat_walk_acc                     platform
     0000D9AD  _plat_run_acc                      platform
     0000D9AF  _plat_dec                          platform
     0000D9B1  _plat_jump_vel                     platform
     0000D9B3  _plat_grav                         platform
     0000D9B5  _plat_hold_grav                    platform
     0000D9B7  _plat_max_fall_vel                 platform
     0000D9B9  _shooter_reached_end               shmup
     0000D9BA  _shooter_dest                      shmup
     0000D9BC  _shooter_direction                 shmup
     0000D9BD  _topdown_grid                      topdown
     0000D9BE  ___rand_seed                       
     0000D9DC  _hUGE_current_wave                 hUGEDriver_obj
     0000D9DC  hUGE_current_wave                  hUGEDriver_obj
     0000D9DD  _hUGE_mute_mask                    hUGEDriver_obj
     0000DA24  ___call_banked_addr                far_ptr
     0000DA24  ___call_banked_ptr                 far_ptr
     0000DA26  ___call_banked_bank                far_ptr
     0000DA28  .int_0x48                          
     0000DA30  ___current_metasprite              Metasprites
     0000DA32  ___current_base_tile               Metasprites
     0000DA33  ___current_base_prop               Metasprites

ASxxxx Linker V03.00/V05.40 + sdld,  page 62.
Hexadecimal  [32-Bits]

Area                                    Addr        Size        Decimal Bytes (Attributes)
--------------------------------        ----        ----        ------- ----- ------------
_INITIALIZED                        0000DA34    0000001A =          26. bytes (REL,CON)

      Value  Global                              Global Defined In Module
      -----  --------------------------------   ------------------------
     0000DA34  _fade_style                        fade_manager
     0000DA35  _game_time                         game_time
     0000DA36  _PRN_PKT_START                     gbprinter
     0000DA44  _hide_sprites                      interrupts
     0000DA45  _show_actors_on_overlay            interrupts
     0000DA46  _overlay_cut_scanline              interrupts
     0000DA47  __submap_tile_offset               
     0000DA48  _triggers_len                      trigger
     0000DA49  _exchange_state                    vm_sio
     0000DA4A  _last_hit_trigger                  pointnclick
     0000DA4B  _shooter_scroll_speed              shmup
     0000DA4C  ___render_shadow_OAM               Metasprites
     0000DA4D  __map_tile_offset                  SetTileMap

ASxxxx Linker V03.00/V05.40 + sdld,  page 63.
Hexadecimal  [32-Bits]

Area                                    Addr        Size        Decimal Bytes (Attributes)
--------------------------------        ----        ----        ------- ----- ------------
_HRAM12                             00000000    00000003 =           3. bytes (ABS,CON)

      Value  Global                              Global Defined In Module
      -----  --------------------------------   ------------------------
     0000FF90  __current_bank                     Runtime
     0000FF92  __shadow_OAM_base                  Runtime

ASxxxx Linker V03.00/V05.40 + sdld,  page 64.
Hexadecimal  [32-Bits]

Area                                    Addr        Size        Decimal Bytes (Attributes)
--------------------------------        ----        ----        ------- ----- ------------
_CODE_10                            000A4000    00004000 =       16384. bytes (REL,CON)

      Value  Global                              Global Defined In Module
      -----  --------------------------------   ------------------------
     000A4000  ___func_ACTOR                      actor
     000A4000  _actors_init                       actor
     000A403A  _emote_offsets                     actor
     000A4049  _emote_metasprite                  actor
     000A4055  _player_init                       actor
     000A406A  _deactivate_actor                  actor
     000A41CB  _activate_actor                    actor
     000A430A  _activate_actors_in_row            actor
     000A4401  _activate_actors_in_col            actor
     000A4552  _actor_set_frames                  actor
     000A45A8  _actor_set_frame_offset            actor
     000A45E3  _actor_get_frame_offset            actor
     000A45F5  _actor_set_anim_idle               actor
     000A4623  _actor_set_anim_moving             actor
     000A4654  _actor_set_dir                     actor
     000A46B9  _actor_at_tile                     actor
     000A478D  _actor_in_front_of_player          actor
     000A4841  _actor_overlapping_player          actor
     000A4ADA  _actor_overlapping_bb              actor
     000A4CF9  _actors_handle_player_collision    actor
     000A4D85  _check_collision_in_direction      actor
     000A55A3  ___func_bg_earth_shuttle_bay_upp   bg_earth_shuttle_bay_upper_t
     000A55A3  _bg_earth_shuttle_bay_upper_tile   bg_earth_shuttle_bay_upper_t
     000A7D7B  ___func_bg_luna_water_heater_til   bg_luna_water_heater_tileset
     000A7D7B  _bg_luna_water_heater_tileset      bg_luna_water_heater_tileset
     000A7FFD  ___func_scene_27_sprites           scene_27_sprites
     000A7FFD  _scene_27_sprites                  scene_27_sprites
ASxxxx Linker V03.00/V05.40 + sdld,  page 65.
Hexadecimal  [32-Bits]

Area                                    Addr        Size        Decimal Bytes (Attributes)
--------------------------------        ----        ----        ------- ----- ------------
_CODE_62                            003E4000    00000B5B =        2907. bytes (REL,CON)

      Value  Global                              Global Defined In Module
      -----  --------------------------------   ------------------------
     003E4000  _bootstrap_script                  
     003E400B  _actor_15_interact                 actor_15_interact
     003E400C  GBVM$actor_15_interact$2a7296e7_   actor_15_interact
     003E4011  _actor_16_interact                 actor_16_interact
     003E4012  GBVM$actor_16_interact$236eb974_   actor_16_interact
     003E4017  _actor_17_interact                 actor_17_interact
     003E4018  GBVM$actor_17_interact$51caca34_   actor_17_interact
     003E401D  ___func_bg_earth_burnclaw_forest   bg_earth_burnclaw_forest_ca
     003E401D  _bg_earth_burnclaw_forest_ca       bg_earth_burnclaw_forest_ca
     003E402B  ___func_bg_earth_burnclaw_forest   bg_earth_burnclaw_forest_cr
     003E402B  _bg_earth_burnclaw_forest_cr       bg_earth_burnclaw_forest_cr
     003E4039  ___func_bg_earth_burnclaw_forest   bg_earth_burnclaw_forest
     003E4039  _bg_earth_burnclaw_forest          bg_earth_burnclaw_forest
     003E4047  ___func_bg_earth_distortion_moun   bg_earth_distortion_mountai
     003E4047  _bg_earth_distortion_mountai       bg_earth_distortion_mountai
     003E4055  ___func_bg_earth_level_1_intro     bg_earth_level_1_intro
     003E4055  _bg_earth_level_1_intro            bg_earth_level_1_intro
     003E4063  ___func_bg_earth_shuttle_bay_sec   bg_earth_shuttle_bay_secret
     003E4063  _bg_earth_shuttle_bay_secret       bg_earth_shuttle_bay_secret
     003E4071  ___func_bg_earth_shuttle_bay_upp   bg_earth_shuttle_bay_upper
     003E4071  _bg_earth_shuttle_bay_upper        bg_earth_shuttle_bay_upper
     003E407F  ___func_bg_earth_shuttle_bay_wat   bg_earth_shuttle_bay_water
     003E407F  _bg_earth_shuttle_bay_water        bg_earth_shuttle_bay_water
     003E408D  ___func_bg_earth_shuttle_bay       bg_earth_shuttle_bay
     003E408D  _bg_earth_shuttle_bay              bg_earth_shuttle_bay
     003E409B  ___func_bg_hud_ui                  bg_hud_ui
     003E409B  _bg_hud_ui                         bg_hud_ui
     003E40A9  ___func_bg_jems_background         bg_jems_background
     003E40A9  _bg_jems_background                bg_jems_background
     003E40B7  ___func_bg_luna_boss_room          bg_luna_boss_room
     003E40B7  _bg_luna_boss_room                 bg_luna_boss_room
     003E40C5  ___func_bg_luna_peryil_s_house     bg_luna_peryil_s_house
     003E40C5  _bg_luna_peryil_s_house            bg_luna_peryil_s_house
     003E40D3  ___func_bg_luna_serenity_cave_lo   bg_luna_serenity_cave_lower
     003E40D3  _bg_luna_serenity_cave_lower       bg_luna_serenity_cave_lower
     003E40E1  ___func_bg_luna_serenity_cave_up   bg_luna_serenity_cave_upper
     003E40E1  _bg_luna_serenity_cave_upper       bg_luna_serenity_cave_upper
     003E40EF  ___func_bg_luna_serenity_forest    bg_luna_serenity_forest
     003E40EF  _bg_luna_serenity_forest           bg_luna_serenity_forest
     003E40FD  ___func_bg_luna_serenity_outskir   bg_luna_serenity_outskirts
     003E40FD  _bg_luna_serenity_outskirts        bg_luna_serenity_outskirts
     003E410B  ___func_bg_luna_serenity_waterfr   bg_luna_serenity_waterfront
     003E410B  _bg_luna_serenity_waterfront       bg_luna_serenity_waterfront
     003E4119  ___func_bg_luna_sewer_system       bg_luna_sewer_system
     003E4119  _bg_luna_sewer_system              bg_luna_sewer_system
     003E4127  ___func_bg_luna_water_heater       bg_luna_water_heater
     003E4127  _bg_luna_water_heater              bg_luna_water_heater
     003E4135  ___func_bg_menu_load_background    bg_menu_load_background
     003E4135  _bg_menu_load_background           bg_menu_load_background
     003E4143  ___func_bg_mercury_landing_site    bg_mercury_landing_site
ASxxxx Linker V03.00/V05.40 + sdld,  page 66.
Hexadecimal  [32-Bits]

Area                                    Addr        Size        Decimal Bytes (Attributes)
--------------------------------        ----        ----        ------- ----- ------------
_CODE_62                            003E4000    00000B5B =        2907. bytes (REL,CON)

      Value  Global                              Global Defined In Module
      -----  --------------------------------   ------------------------
     003E4143  _bg_mercury_landing_site           bg_mercury_landing_site
     003E4151  ___func_bg_mercury_overflow_pass   bg_mercury_overflow_passage
     003E4151  _bg_mercury_overflow_passage       bg_mercury_overflow_passage
     003E415F  ___func_bg_mercury_poison_proces   bg_mercury_poison_processin
     003E415F  _bg_mercury_poison_processin       bg_mercury_poison_processin
     003E416D  ___func_bg_mercury_poison_storag   bg_mercury_poison_storage
     003E416D  _bg_mercury_poison_storage         bg_mercury_poison_storage
     003E417B  ___func_bg_mercury_projectile_pl   bg_mercury_projectile_platf
     003E417B  _bg_mercury_projectile_platf       bg_mercury_projectile_platf
     003E4189  ___func_bg_mercury_secret_area     bg_mercury_secret_area
     003E4189  _bg_mercury_secret_area            bg_mercury_secret_area
     003E4197  ___func_bg_mercury_throne_room     bg_mercury_throne_room
     003E4197  _bg_mercury_throne_room            bg_mercury_throne_room
     003E41A5  ___func_bg_mercury_viewing_area    bg_mercury_viewing_area
     003E41A5  _bg_mercury_viewing_area           bg_mercury_viewing_area
     003E41B3  ___func_bg_placeholder             bg_placeholder
     003E41B3  _bg_placeholder                    bg_placeholder
     003E41C1  ___func_bg_platformer_test01       bg_platformer_test01
     003E41C1  _bg_platformer_test01              bg_platformer_test01
     003E41CF  ___func_bg_temporal_light_backgr   bg_temporal_light_backgroun
     003E41CF  _bg_temporal_light_backgroun       bg_temporal_light_backgroun
     003E41DD  ___func_bg_title                   bg_title
     003E41DD  _bg_title                          bg_title
     003E41EB  ___func_bg_venus_ac_ventilation    bg_venus_ac_ventilation
     003E41EB  _bg_venus_ac_ventilation           bg_venus_ac_ventilation
     003E41F9  ___func_bg_venus_ac_ventilation2   bg_venus_ac_ventilation2
     003E41F9  _bg_venus_ac_ventilation2          bg_venus_ac_ventilation2
     003E4207  ___func_bg_venus_defence_tunnel    bg_venus_defence_tunnel
     003E4207  _bg_venus_defence_tunnel           bg_venus_defence_tunnel
     003E4215  ___func_bg_venus_dropshaft_0       bg_venus_dropshaft_0
     003E4215  _bg_venus_dropshaft_0              bg_venus_dropshaft_0
     003E4223  ___func_bg_venus_dropshaft_1       bg_venus_dropshaft_1
     003E4223  _bg_venus_dropshaft_1              bg_venus_dropshaft_1
     003E4231  ___func_bg_venus_evidence_room     bg_venus_evidence_room
     003E4231  _bg_venus_evidence_room            bg_venus_evidence_room
     003E423F  ___func_bg_venus_landing_site      bg_venus_landing_site
     003E423F  _bg_venus_landing_site             bg_venus_landing_site
     003E424D  ___func_bg_venus_office_access     bg_venus_office_access
     003E424D  _bg_venus_office_access            bg_venus_office_access
     003E425B  ___func_bg_venus_office            bg_venus_office
     003E425B  _bg_venus_office                   bg_venus_office
     003E4269  ___func_bg_venus_police_departme   bg_venus_police_department_
     003E4269  _bg_venus_police_department_       bg_venus_police_department_
     003E4277  ___func_bg_warning                 bg_warning
     003E4277  _bg_warning                        bg_warning
     003E4285  ___func_cursor_image               cursor_image
     003E4285  _cursor_image                      cursor_image
     003E4295  ___func_scene_1_triggers           scene_1_triggers
     003E4295  _scene_1_triggers                  scene_1_triggers
     003E42A5  ___func_scene_10_sprites           scene_10_sprites
     003E42A5  _scene_10_sprites                  scene_10_sprites
ASxxxx Linker V03.00/V05.40 + sdld,  page 67.
Hexadecimal  [32-Bits]

Area                                    Addr        Size        Decimal Bytes (Attributes)
--------------------------------        ----        ----        ------- ----- ------------
_CODE_62                            003E4000    00000B5B =        2907. bytes (REL,CON)

      Value  Global                              Global Defined In Module
      -----  --------------------------------   ------------------------
     003E42AB  ___func_scene_11_sprites           scene_11_sprites
     003E42AB  _scene_11_sprites                  scene_11_sprites
     003E42B1  ___func_scene_12_sprites           scene_12_sprites
     003E42B1  _scene_12_sprites                  scene_12_sprites
     003E42B7  ___func_scene_13_sprites           scene_13_sprites
     003E42B7  _scene_13_sprites                  scene_13_sprites
     003E42BD  ___func_scene_14_sprites           scene_14_sprites
     003E42BD  _scene_14_sprites                  scene_14_sprites
     003E42C3  ___func_scene_15_sprites           scene_15_sprites
     003E42C3  _scene_15_sprites                  scene_15_sprites
     003E42C9  ___func_scene_16_sprites           scene_16_sprites
     003E42C9  _scene_16_sprites                  scene_16_sprites
     003E42CF  ___func_scene_21_sprites           scene_21_sprites
     003E42CF  _scene_21_sprites                  scene_21_sprites
     003E42D5  ___func_scene_22_sprites           scene_22_sprites
     003E42D5  _scene_22_sprites                  scene_22_sprites
     003E42DB  ___func_scene_23_sprites           scene_23_sprites
     003E42DB  _scene_23_sprites                  scene_23_sprites
     003E42E1  ___func_scene_24_sprites           scene_24_sprites
     003E42E1  _scene_24_sprites                  scene_24_sprites
     003E42E7  ___func_scene_25_sprites           scene_25_sprites
     003E42E7  _scene_25_sprites                  scene_25_sprites
     003E42ED  ___func_scene_28_sprites           scene_28_sprites
     003E42ED  _scene_28_sprites                  scene_28_sprites
     003E42F3  ___func_scene_32_sprites           scene_32_sprites
     003E42F3  _scene_32_sprites                  scene_32_sprites
     003E42F9  ___func_scene_33_sprites           scene_33_sprites
     003E42F9  _scene_33_sprites                  scene_33_sprites
     003E42FF  ___func_scene_33_triggers          scene_33_triggers
     003E42FF  _scene_33_triggers                 scene_33_triggers
     003E430F  ___func_scene_35_sprites           scene_35_sprites
     003E430F  _scene_35_sprites                  scene_35_sprites
     003E4315  ___func_scene_37_triggers          scene_37_triggers
     003E4315  _scene_37_triggers                 scene_37_triggers
     003E4325  ___func_scene_38_sprites           scene_38_sprites
     003E4325  _scene_38_sprites                  scene_38_sprites
     003E432B  ___func_scene_38_triggers          scene_38_triggers
     003E432B  _scene_38_triggers                 scene_38_triggers
     003E433B  ___func_scene_39_sprites           scene_39_sprites
     003E433B  _scene_39_sprites                  scene_39_sprites
     003E433E  ___func_scene_41_sprites           scene_41_sprites
     003E433E  _scene_41_sprites                  scene_41_sprites
     003E4344  ___func_scene_42_sprites           scene_42_sprites
     003E4344  _scene_42_sprites                  scene_42_sprites
     003E434A  ___func_scene_42_triggers          scene_42_triggers
     003E434A  _scene_42_triggers                 scene_42_triggers
     003E4352  ___func_scene_44_sprites           scene_44_sprites
     003E4352  _scene_44_sprites                  scene_44_sprites
     003E4358  ___func_scene_44_triggers          scene_44_triggers
     003E4358  _scene_44_triggers                 scene_44_triggers
     003E4368  ___func_scene_45_sprites           scene_45_sprites
ASxxxx Linker V03.00/V05.40 + sdld,  page 68.
Hexadecimal  [32-Bits]

Area                                    Addr        Size        Decimal Bytes (Attributes)
--------------------------------        ----        ----        ------- ----- ------------
_CODE_62                            003E4000    00000B5B =        2907. bytes (REL,CON)

      Value  Global                              Global Defined In Module
      -----  --------------------------------   ------------------------
     003E4368  _scene_45_sprites                  scene_45_sprites
     003E436E  ___func_scene_46_sprites           scene_46_sprites
     003E436E  _scene_46_sprites                  scene_46_sprites
     003E4371  ___func_scene_48_sprites           scene_48_sprites
     003E4371  _scene_48_sprites                  scene_48_sprites
     003E4374  ___func_scene_48_triggers          scene_48_triggers
     003E4374  _scene_48_triggers                 scene_48_triggers
     003E4384  ___func_scene_49_sprites           scene_49_sprites
     003E4384  _scene_49_sprites                  scene_49_sprites
     003E4387  ___func_scene_50_sprites           scene_50_sprites
     003E4387  _scene_50_sprites                  scene_50_sprites
     003E438A  ___func_scene_51_sprites           scene_51_sprites
     003E438A  _scene_51_sprites                  scene_51_sprites
     003E438D  ___func_scene_52_sprites           scene_52_sprites
     003E438D  _scene_52_sprites                  scene_52_sprites
     003E4390  ___func_scene_53_sprites           scene_53_sprites
     003E4390  _scene_53_sprites                  scene_53_sprites
     003E4393  ___func_scene_54_sprites           scene_54_sprites
     003E4393  _scene_54_sprites                  scene_54_sprites
     003E439C  ___func_scene_55_sprites           scene_55_sprites
     003E439C  _scene_55_sprites                  scene_55_sprites
     003E43A2  _scene_7_init                      scene_7_init
     003E43A3  GBVM$scene_7_init$autofade$fba6a   scene_7_init
     003E43AF  ___func_scene_8_sprites            scene_8_sprites
     003E43AF  _scene_8_sprites                   scene_8_sprites
     003E43B2  ___func_scene_8_triggers           scene_8_triggers
     003E43B2  _scene_8_triggers                  scene_8_triggers
     003E43BA  ___func_scene_9_sprites            scene_9_sprites
     003E43BA  _scene_9_sprites                   scene_9_sprites
     003E43BD  GBVM$script_6$d0ff816f_db8d_4211   script_6
     003E43BD  _script_6                          script_6
     003E43CA  GBVM$script_input_2$66b44a34_877   script_input_2
     003E43CA  _script_input_2                    script_input_2
     003E43D6  _script_timer_46                   script_timer_46
     003E43D8  GBVM$script_timer_46$f2da1d1d_3d   script_timer_46
     003E43E8  _script_timer_47                   script_timer_47
     003E43EA  GBVM$script_timer_47$ce770b1b_4c   script_timer_47
     003E43FA  _script_timer_48                   script_timer_48
     003E43FC  GBVM$script_timer_48$55d15f5d_ae   script_timer_48
     003E440C  _script_timer_49                   script_timer_49
     003E440E  GBVM$script_timer_49$7427995d_a7   script_timer_49
     003E441E  _script_timer_5                    script_timer_5
     003E4420  GBVM$script_timer_5$fc4044aa_6d6   script_timer_5
     003E4430  _script_timer_54                   script_timer_54
     003E4432  GBVM$script_timer_54$0ea0a904_fe   script_timer_54
     003E4442  _script_timer_55                   script_timer_55
     003E4444  GBVM$script_timer_55$714c9467_62   script_timer_55
     003E4454  _script_timer_56                   script_timer_56
     003E4456  GBVM$script_timer_56$9035afa4_14   script_timer_56
     003E4466  _script_timer_57                   script_timer_57
     003E4468  GBVM$script_timer_57$ea2d9a5d_2f   script_timer_57
ASxxxx Linker V03.00/V05.40 + sdld,  page 69.
Hexadecimal  [32-Bits]

Area                                    Addr        Size        Decimal Bytes (Attributes)
--------------------------------        ----        ----        ------- ----- ------------
_CODE_62                            003E4000    00000B5B =        2907. bytes (REL,CON)

      Value  Global                              Global Defined In Module
      -----  --------------------------------   ------------------------
     003E4478  _script_timer_58                   script_timer_58
     003E447A  GBVM$script_timer_58$615e8687_28   script_timer_58
     003E448A  _script_timer_59                   script_timer_59
     003E448C  GBVM$script_timer_59$ad17a150_d8   script_timer_59
     003E449C  _script_timer_6                    script_timer_6
     003E449E  GBVM$script_timer_6$b49e2fa0_e44   script_timer_6
     003E44AE  _script_timer_60                   script_timer_60
     003E44B0  GBVM$script_timer_60$7c09f909_e3   script_timer_60
     003E44C0  _script_timer_61                   script_timer_61
     003E44C2  GBVM$script_timer_61$0815d0f5_ed   script_timer_61
     003E44D2  _script_timer_63                   script_timer_63
     003E44D4  GBVM$script_timer_63$b80ba348_33   script_timer_63
     003E44E4  _script_timer_64                   script_timer_64
     003E44E6  GBVM$script_timer_64$de3ae84a_7f   script_timer_64
     003E44F6  _script_timer_65                   script_timer_65
     003E44F8  GBVM$script_timer_65$c5cb44da_36   script_timer_65
     003E4508  _script_timer_66                   script_timer_66
     003E450A  GBVM$script_timer_66$d523e70f_0a   script_timer_66
     003E451A  _script_timer_69                   script_timer_69
     003E451C  GBVM$script_timer_69$c08bf2be_4a   script_timer_69
     003E452C  _script_timer_7                    script_timer_7
     003E452E  GBVM$script_timer_7$c961b27d_0e2   script_timer_7
     003E453E  _script_timer_70                   script_timer_70
     003E4540  GBVM$script_timer_70$9f54eab6_0d   script_timer_70
     003E4550  _script_timer_71                   script_timer_71
     003E4552  GBVM$script_timer_71$69cdcca4_43   script_timer_71
     003E4562  _script_timer_72                   script_timer_72
     003E4564  GBVM$script_timer_72$d87d1864_e7   script_timer_72
     003E4574  _script_timer_73                   script_timer_73
     003E4576  GBVM$script_timer_73$ebe3f591_89   script_timer_73
     003E4586  _script_timer_74                   script_timer_74
     003E4588  GBVM$script_timer_74$bc7a1ea0_05   script_timer_74
     003E4598  _script_timer_75                   script_timer_75
     003E459A  GBVM$script_timer_75$828fd58c_e8   script_timer_75
     003E45AA  _script_timer_78                   script_timer_78
     003E45AC  GBVM$script_timer_78$2cf0854e_eb   script_timer_78
     003E45BC  _script_timer_79                   script_timer_79
     003E45BE  GBVM$script_timer_79$0abecc80_d3   script_timer_79
     003E45CE  _script_timer_8                    script_timer_8
     003E45D0  GBVM$script_timer_8$07b176fe_b29   script_timer_8
     003E45E0  _script_timer_80                   script_timer_80
     003E45E2  GBVM$script_timer_80$f99af112_7d   script_timer_80
     003E45F2  _script_timer_83                   script_timer_83
     003E45F4  GBVM$script_timer_83$ae719b80_b7   script_timer_83
     003E4604  _script_timer_84                   script_timer_84
     003E4606  GBVM$script_timer_84$c310c0e0_37   script_timer_84
     003E4616  _script_timer_85                   script_timer_85
     003E4618  GBVM$script_timer_85$75fcbf91_48   script_timer_85
     003E4628  _script_timer_86                   script_timer_86
     003E462A  GBVM$script_timer_86$a9bf7d92_4e   script_timer_86
     003E463A  _script_timer_87                   script_timer_87
ASxxxx Linker V03.00/V05.40 + sdld,  page 70.
Hexadecimal  [32-Bits]

Area                                    Addr        Size        Decimal Bytes (Attributes)
--------------------------------        ----        ----        ------- ----- ------------
_CODE_62                            003E4000    00000B5B =        2907. bytes (REL,CON)

      Value  Global                              Global Defined In Module
      -----  --------------------------------   ------------------------
     003E463C  GBVM$script_timer_87$9dd48e44_db   script_timer_87
     003E464C  _script_timer_88                   script_timer_88
     003E464E  GBVM$script_timer_88$cd9b0f55_2e   script_timer_88
     003E465E  _script_timer_9                    script_timer_9
     003E4660  GBVM$script_timer_9$a9f6c95c_92e   script_timer_9
     003E4670  _script_timer_91                   script_timer_91
     003E4672  GBVM$script_timer_91$1ee0a5c6_f6   script_timer_91
     003E4682  _script_timer_92                   script_timer_92
     003E4684  GBVM$script_timer_92$083a95cf_14   script_timer_92
     003E4694  _script_timer_93                   script_timer_93
     003E4696  GBVM$script_timer_93$491da465_a8   script_timer_93
     003E46A6  _script_timer_94                   script_timer_94
     003E46A8  GBVM$script_timer_94$9054d9eb_f4   script_timer_94
     003E46B8  _script_timer_95                   script_timer_95
     003E46BA  GBVM$script_timer_95$7da53e94_8e   script_timer_95
     003E46CA  _script_timer_96                   script_timer_96
     003E46CC  GBVM$script_timer_96$923c8779_b0   script_timer_96
     003E46DC  _trigger_100_interact              trigger_100_interact
     003E46DD  GBVM$trigger_100_interact$423f19   trigger_100_interact
     003E46E2  _trigger_101_interact              trigger_101_interact
     003E46E3  GBVM$trigger_101_interact$0d653b   trigger_101_interact
     003E46E8  GBVM$trigger_101_interact$946eaa   trigger_101_interact
     003E46ED  _trigger_102_interact              trigger_102_interact
     003E46EE  GBVM$trigger_102_interact$13719a   trigger_102_interact
     003E46F3  GBVM$trigger_102_interact$7e6ef2   trigger_102_interact
     003E46F8  _trigger_11_interact               trigger_11_interact
     003E46F9  GBVM$trigger_11_interact$bf8e05d   trigger_11_interact
     003E46FE  _trigger_12_interact               trigger_12_interact
     003E46FF  GBVM$trigger_12_interact$7e46136   trigger_12_interact
     003E4704  GBVM$trigger_12_interact$b873ef6   trigger_12_interact
     003E4709  _trigger_125_interact              trigger_125_interact
     003E470A  GBVM$trigger_125_interact$333e17   trigger_125_interact
     003E470F  GBVM$trigger_125_interact$fc02da   trigger_125_interact
     003E4714  _trigger_128_interact              trigger_128_interact
     003E4715  GBVM$trigger_128_interact$d43cdc   trigger_128_interact
     003E471A  GBVM$trigger_128_interact$9730f1   trigger_128_interact
     003E471F  _trigger_13_interact               trigger_13_interact
     003E4720  GBVM$trigger_13_interact$94e6a84   trigger_13_interact
     003E4725  GBVM$trigger_13_interact$b3a03f9   trigger_13_interact
     003E472A  _trigger_130_interact              trigger_130_interact
     003E472B  GBVM$trigger_130_interact$1f9cb4   trigger_130_interact
     003E4730  GBVM$trigger_130_interact$372f6f   trigger_130_interact
     003E4735  _trigger_131_interact              trigger_131_interact
     003E4736  GBVM$trigger_131_interact$bd80bd   trigger_131_interact
     003E473B  GBVM$trigger_131_interact$78e2f4   trigger_131_interact
     003E4740  _trigger_132_interact              trigger_132_interact
     003E4741  GBVM$trigger_132_interact$8bfa0d   trigger_132_interact
     003E4746  GBVM$trigger_132_interact$efb675   trigger_132_interact
     003E474B  _trigger_133_interact              trigger_133_interact
     003E474C  GBVM$trigger_133_interact$dc745d   trigger_133_interact
     003E4751  GBVM$trigger_133_interact$172f98   trigger_133_interact
ASxxxx Linker V03.00/V05.40 + sdld,  page 71.
Hexadecimal  [32-Bits]

Area                                    Addr        Size        Decimal Bytes (Attributes)
--------------------------------        ----        ----        ------- ----- ------------
_CODE_62                            003E4000    00000B5B =        2907. bytes (REL,CON)

      Value  Global                              Global Defined In Module
      -----  --------------------------------   ------------------------
     003E4756  _trigger_134_interact              trigger_134_interact
     003E4757  GBVM$trigger_134_interact$8bf3cb   trigger_134_interact
     003E475C  GBVM$trigger_134_interact$0d72f4   trigger_134_interact
     003E4761  _trigger_135_interact              trigger_135_interact
     003E4762  GBVM$trigger_135_interact$3db797   trigger_135_interact
     003E4767  GBVM$trigger_135_interact$d79107   trigger_135_interact
     003E476C  _trigger_136_interact              trigger_136_interact
     003E476D  GBVM$trigger_136_interact$d9ba92   trigger_136_interact
     003E4772  GBVM$trigger_136_interact$89aab8   trigger_136_interact
     003E4777  _trigger_137_interact              trigger_137_interact
     003E4778  GBVM$trigger_137_interact$9bb34e   trigger_137_interact
     003E477D  GBVM$trigger_137_interact$d519b8   trigger_137_interact
     003E4782  _trigger_138_interact              trigger_138_interact
     003E4783  GBVM$trigger_138_interact$5a4acd   trigger_138_interact
     003E4788  GBVM$trigger_138_interact$4da859   trigger_138_interact
     003E478D  _trigger_139_interact              trigger_139_interact
     003E478E  GBVM$trigger_139_interact$e7b0d9   trigger_139_interact
     003E4793  GBVM$trigger_139_interact$3cd7e2   trigger_139_interact
     003E4798  _trigger_14_interact               trigger_14_interact
     003E4799  GBVM$trigger_14_interact$d787a74   trigger_14_interact
     003E479E  GBVM$trigger_14_interact$e1890d9   trigger_14_interact
     003E47A3  _trigger_140_interact              trigger_140_interact
     003E47A4  GBVM$trigger_140_interact$3ae04d   trigger_140_interact
     003E47A9  GBVM$trigger_140_interact$c003c5   trigger_140_interact
     003E47AE  _trigger_141_interact              trigger_141_interact
     003E47AF  GBVM$trigger_141_interact$4c90a7   trigger_141_interact
     003E47B4  GBVM$trigger_141_interact$9885cd   trigger_141_interact
     003E47B9  _trigger_142_interact              trigger_142_interact
     003E47BA  GBVM$trigger_142_interact$1858c6   trigger_142_interact
     003E47BF  GBVM$trigger_142_interact$3b0e3b   trigger_142_interact
     003E47C4  _trigger_143_interact              trigger_143_interact
     003E47C5  GBVM$trigger_143_interact$c29f49   trigger_143_interact
     003E47CA  GBVM$trigger_143_interact$dabf7f   trigger_143_interact
     003E47CF  _trigger_144_interact              trigger_144_interact
     003E47D0  GBVM$trigger_144_interact$9a765d   trigger_144_interact
     003E47D5  GBVM$trigger_144_interact$7e55e9   trigger_144_interact
     003E47DA  _trigger_145_interact              trigger_145_interact
     003E47DB  GBVM$trigger_145_interact$6e7924   trigger_145_interact
     003E47E0  GBVM$trigger_145_interact$07ab17   trigger_145_interact
     003E47E5  _trigger_146_interact              trigger_146_interact
     003E47E6  GBVM$trigger_146_interact$201afd   trigger_146_interact
     003E47EB  GBVM$trigger_146_interact$636912   trigger_146_interact
     003E47F0  _trigger_147_interact              trigger_147_interact
     003E47F1  GBVM$trigger_147_interact$b9fef5   trigger_147_interact
     003E47F6  GBVM$trigger_147_interact$292c82   trigger_147_interact
     003E47FB  _trigger_148_interact              trigger_148_interact
     003E47FC  GBVM$trigger_148_interact$1b3b4c   trigger_148_interact
     003E4801  GBVM$trigger_148_interact$82b510   trigger_148_interact
     003E4806  _trigger_149_interact              trigger_149_interact
     003E4807  GBVM$trigger_149_interact$93480a   trigger_149_interact
     003E480C  GBVM$trigger_149_interact$a0d7a4   trigger_149_interact
ASxxxx Linker V03.00/V05.40 + sdld,  page 72.
Hexadecimal  [32-Bits]

Area                                    Addr        Size        Decimal Bytes (Attributes)
--------------------------------        ----        ----        ------- ----- ------------
_CODE_62                            003E4000    00000B5B =        2907. bytes (REL,CON)

      Value  Global                              Global Defined In Module
      -----  --------------------------------   ------------------------
     003E4811  _trigger_15_interact               trigger_15_interact
     003E4812  GBVM$trigger_15_interact$0f354b0   trigger_15_interact
     003E4817  GBVM$trigger_15_interact$75c6f72   trigger_15_interact
     003E481C  _trigger_151_interact              trigger_151_interact
     003E481D  GBVM$trigger_151_interact$aec6c4   trigger_151_interact
     003E4822  GBVM$trigger_151_interact$c19e43   trigger_151_interact
     003E4827  _trigger_152_interact              trigger_152_interact
     003E4828  GBVM$trigger_152_interact$68083f   trigger_152_interact
     003E482D  GBVM$trigger_152_interact$7322b8   trigger_152_interact
     003E4832  _trigger_153_interact              trigger_153_interact
     003E4833  GBVM$trigger_153_interact$d4889f   trigger_153_interact
     003E4838  GBVM$trigger_153_interact$00bb92   trigger_153_interact
     003E483D  _trigger_154_interact              trigger_154_interact
     003E483E  GBVM$trigger_154_interact$8ab484   trigger_154_interact
     003E4843  GBVM$trigger_154_interact$191103   trigger_154_interact
     003E4848  _trigger_155_interact              trigger_155_interact
     003E4849  GBVM$trigger_155_interact$eaeb72   trigger_155_interact
     003E484E  GBVM$trigger_155_interact$16d34a   trigger_155_interact
     003E4853  _trigger_156_interact              trigger_156_interact
     003E4854  GBVM$trigger_156_interact$1de87e   trigger_156_interact
     003E4859  GBVM$trigger_156_interact$3f3574   trigger_156_interact
     003E485E  _trigger_157_interact              trigger_157_interact
     003E485F  GBVM$trigger_157_interact$2ae423   trigger_157_interact
     003E4864  GBVM$trigger_157_interact$a1ba1d   trigger_157_interact
     003E4869  _trigger_158_interact              trigger_158_interact
     003E486A  GBVM$trigger_158_interact$fd770c   trigger_158_interact
     003E486F  GBVM$trigger_158_interact$91a2e7   trigger_158_interact
     003E4874  _trigger_159_interact              trigger_159_interact
     003E4875  GBVM$trigger_159_interact$4b9394   trigger_159_interact
     003E487A  GBVM$trigger_159_interact$5f1e1a   trigger_159_interact
     003E487F  _trigger_16_interact               trigger_16_interact
     003E4880  GBVM$trigger_16_interact$a9366f4   trigger_16_interact
     003E4885  GBVM$trigger_16_interact$aab2ce2   trigger_16_interact
     003E488A  _trigger_161_interact              trigger_161_interact
     003E488B  GBVM$trigger_161_interact$42bf36   trigger_161_interact
     003E4890  GBVM$trigger_161_interact$9c4c46   trigger_161_interact
     003E4895  _trigger_162_interact              trigger_162_interact
     003E4896  GBVM$trigger_162_interact$c4dc15   trigger_162_interact
     003E489B  GBVM$trigger_162_interact$e1ed9f   trigger_162_interact
     003E48A0  _trigger_164_interact              trigger_164_interact
     003E48A1  GBVM$trigger_164_interact$96a866   trigger_164_interact
     003E48A6  GBVM$trigger_164_interact$0efb78   trigger_164_interact
     003E48AB  _trigger_165_interact              trigger_165_interact
     003E48AC  GBVM$trigger_165_interact$45c359   trigger_165_interact
     003E48B1  GBVM$trigger_165_interact$bb8698   trigger_165_interact
     003E48B6  _trigger_166_interact              trigger_166_interact
     003E48B7  GBVM$trigger_166_interact$8558ef   trigger_166_interact
     003E48BC  GBVM$trigger_166_interact$5316b8   trigger_166_interact
     003E48C1  _trigger_167_interact              trigger_167_interact
     003E48C2  GBVM$trigger_167_interact$fb5ff9   trigger_167_interact
     003E48C7  GBVM$trigger_167_interact$70ca20   trigger_167_interact
ASxxxx Linker V03.00/V05.40 + sdld,  page 73.
Hexadecimal  [32-Bits]

Area                                    Addr        Size        Decimal Bytes (Attributes)
--------------------------------        ----        ----        ------- ----- ------------
_CODE_62                            003E4000    00000B5B =        2907. bytes (REL,CON)

      Value  Global                              Global Defined In Module
      -----  --------------------------------   ------------------------
     003E48CC  _trigger_168_interact              trigger_168_interact
     003E48CD  GBVM$trigger_168_interact$0afede   trigger_168_interact
     003E48D2  GBVM$trigger_168_interact$dc55d0   trigger_168_interact
     003E48D7  _trigger_169_interact              trigger_169_interact
     003E48D8  GBVM$trigger_169_interact$e5547a   trigger_169_interact
     003E48DD  GBVM$trigger_169_interact$0d4e2a   trigger_169_interact
     003E48E2  _trigger_17_interact               trigger_17_interact
     003E48E3  GBVM$trigger_17_interact$c71e353   trigger_17_interact
     003E48E8  _trigger_170_interact              trigger_170_interact
     003E48E9  GBVM$trigger_170_interact$1670de   trigger_170_interact
     003E48EE  GBVM$trigger_170_interact$74a3a6   trigger_170_interact
     003E48F3  _trigger_171_interact              trigger_171_interact
     003E48F4  GBVM$trigger_171_interact$b3886e   trigger_171_interact
     003E48F9  GBVM$trigger_171_interact$d9d6a1   trigger_171_interact
     003E48FE  _trigger_172_interact              trigger_172_interact
     003E48FF  GBVM$trigger_172_interact$07b140   trigger_172_interact
     003E4904  GBVM$trigger_172_interact$ed0ca8   trigger_172_interact
     003E4909  _trigger_173_interact              trigger_173_interact
     003E490A  GBVM$trigger_173_interact$2ea5e2   trigger_173_interact
     003E490F  GBVM$trigger_173_interact$603dbb   trigger_173_interact
     003E4914  _trigger_18_interact               trigger_18_interact
     003E4915  GBVM$trigger_18_interact$ddd74c6   trigger_18_interact
     003E491A  GBVM$trigger_18_interact$f90ff5b   trigger_18_interact
     003E491F  _trigger_182_interact              trigger_182_interact
     003E4920  GBVM$trigger_182_interact$79f326   trigger_182_interact
     003E4926  _trigger_183_interact              trigger_183_interact
     003E4927  GBVM$trigger_183_interact$6b40a8   trigger_183_interact
     003E492D  _trigger_192_interact              trigger_192_interact
     003E492E  GBVM$trigger_192_interact$1be6ad   trigger_192_interact
     003E4934  _trigger_204_interact              trigger_204_interact
     003E4935  GBVM$trigger_204_interact$49234a   trigger_204_interact
     003E4941  _trigger_205_interact              trigger_205_interact
     003E4942  GBVM$trigger_205_interact$f60949   trigger_205_interact
     003E494E  _trigger_206_interact              trigger_206_interact
     003E494F  GBVM$trigger_206_interact$b152d2   trigger_206_interact
     003E495B  _trigger_207_interact              trigger_207_interact
     003E495C  GBVM$trigger_207_interact$5a9ae8   trigger_207_interact
     003E4968  _trigger_208_interact              trigger_208_interact
     003E4969  GBVM$trigger_208_interact$a7d421   trigger_208_interact
     003E4975  _trigger_209_interact              trigger_209_interact
     003E4976  GBVM$trigger_209_interact$bd72f2   trigger_209_interact
     003E4982  _trigger_210_interact              trigger_210_interact
     003E4983  GBVM$trigger_210_interact$b84a90   trigger_210_interact
     003E498F  _trigger_211_interact              trigger_211_interact
     003E4990  GBVM$trigger_211_interact$6d342f   trigger_211_interact
     003E499C  _trigger_212_interact              trigger_212_interact
     003E499D  GBVM$trigger_212_interact$bb3197   trigger_212_interact
     003E49A9  _trigger_214_interact              trigger_214_interact
     003E49AA  GBVM$trigger_214_interact$5a14d5   trigger_214_interact
     003E49B6  _trigger_216_interact              trigger_216_interact
     003E49B7  GBVM$trigger_216_interact$c2322a   trigger_216_interact
ASxxxx Linker V03.00/V05.40 + sdld,  page 74.
Hexadecimal  [32-Bits]

Area                                    Addr        Size        Decimal Bytes (Attributes)
--------------------------------        ----        ----        ------- ----- ------------
_CODE_62                            003E4000    00000B5B =        2907. bytes (REL,CON)

      Value  Global                              Global Defined In Module
      -----  --------------------------------   ------------------------
     003E49C3  _trigger_217_interact              trigger_217_interact
     003E49C4  GBVM$trigger_217_interact$e465dd   trigger_217_interact
     003E49D0  _trigger_218_interact              trigger_218_interact
     003E49D1  GBVM$trigger_218_interact$735f73   trigger_218_interact
     003E49DD  _trigger_3_interact                trigger_3_interact
     003E49DE  GBVM$trigger_3_interact$cd1d3373   trigger_3_interact
     003E49E3  _trigger_49_interact               trigger_49_interact
     003E49E4  GBVM$trigger_49_interact$ebde614   trigger_49_interact
     003E49E9  _trigger_50_interact               trigger_50_interact
     003E49EA  GBVM$trigger_50_interact$be89a77   trigger_50_interact
     003E49EF  _trigger_51_interact               trigger_51_interact
     003E49F0  GBVM$trigger_51_interact$3bec865   trigger_51_interact
     003E49F5  _trigger_52_interact               trigger_52_interact
     003E49F6  GBVM$trigger_52_interact$511f6de   trigger_52_interact
     003E49FB  GBVM$trigger_52_interact$4206e37   trigger_52_interact
     003E4A00  _trigger_53_interact               trigger_53_interact
     003E4A01  GBVM$trigger_53_interact$8de7045   trigger_53_interact
     003E4A06  GBVM$trigger_53_interact$0eca8ea   trigger_53_interact
     003E4A0B  _trigger_54_interact               trigger_54_interact
     003E4A0C  GBVM$trigger_54_interact$6dbe148   trigger_54_interact
     003E4A11  GBVM$trigger_54_interact$9a6aacd   trigger_54_interact
     003E4A16  _trigger_55_interact               trigger_55_interact
     003E4A17  GBVM$trigger_55_interact$e27f56e   trigger_55_interact
     003E4A1C  GBVM$trigger_55_interact$d4abc30   trigger_55_interact
     003E4A21  _trigger_56_interact               trigger_56_interact
     003E4A22  GBVM$trigger_56_interact$3a91a43   trigger_56_interact
     003E4A27  GBVM$trigger_56_interact$3404cac   trigger_56_interact
     003E4A2C  _trigger_57_interact               trigger_57_interact
     003E4A2D  GBVM$trigger_57_interact$b045cea   trigger_57_interact
     003E4A32  GBVM$trigger_57_interact$7388e39   trigger_57_interact
     003E4A37  _trigger_58_interact               trigger_58_interact
     003E4A38  GBVM$trigger_58_interact$6e7dd45   trigger_58_interact
     003E4A3D  GBVM$trigger_58_interact$265b8e7   trigger_58_interact
     003E4A42  _trigger_59_interact               trigger_59_interact
     003E4A43  GBVM$trigger_59_interact$dbc2432   trigger_59_interact
     003E4A48  GBVM$trigger_59_interact$2dcae6d   trigger_59_interact
     003E4A4D  _trigger_60_interact               trigger_60_interact
     003E4A4E  GBVM$trigger_60_interact$b4c8971   trigger_60_interact
     003E4A53  GBVM$trigger_60_interact$7d0b3d2   trigger_60_interact
     003E4A58  _trigger_61_interact               trigger_61_interact
     003E4A59  GBVM$trigger_61_interact$9049325   trigger_61_interact
     003E4A5E  _trigger_62_interact               trigger_62_interact
     003E4A5F  GBVM$trigger_62_interact$ba8af17   trigger_62_interact
     003E4A64  _trigger_63_interact               trigger_63_interact
     003E4A65  GBVM$trigger_63_interact$6edc9dc   trigger_63_interact
     003E4A6A  GBVM$trigger_63_interact$38e5c38   trigger_63_interact
     003E4A6F  _trigger_64_interact               trigger_64_interact
     003E4A70  GBVM$trigger_64_interact$d1c8b40   trigger_64_interact
     003E4A75  GBVM$trigger_64_interact$8536244   trigger_64_interact
     003E4A7A  _trigger_65_interact               trigger_65_interact
     003E4A7B  GBVM$trigger_65_interact$135a55e   trigger_65_interact
ASxxxx Linker V03.00/V05.40 + sdld,  page 75.
Hexadecimal  [32-Bits]

Area                                    Addr        Size        Decimal Bytes (Attributes)
--------------------------------        ----        ----        ------- ----- ------------
_CODE_62                            003E4000    00000B5B =        2907. bytes (REL,CON)

      Value  Global                              Global Defined In Module
      -----  --------------------------------   ------------------------
     003E4A80  _trigger_66_interact               trigger_66_interact
     003E4A81  GBVM$trigger_66_interact$02e747c   trigger_66_interact
     003E4A86  GBVM$trigger_66_interact$3bbf057   trigger_66_interact
     003E4A8B  _trigger_67_interact               trigger_67_interact
     003E4A8C  GBVM$trigger_67_interact$591690c   trigger_67_interact
     003E4A91  GBVM$trigger_67_interact$57d01ec   trigger_67_interact
     003E4A96  _trigger_73_interact               trigger_73_interact
     003E4A97  GBVM$trigger_73_interact$d826763   trigger_73_interact
     003E4A9C  _trigger_74_interact               trigger_74_interact
     003E4A9D  GBVM$trigger_74_interact$6fdffb1   trigger_74_interact
     003E4AA2  GBVM$trigger_74_interact$1969b1d   trigger_74_interact
     003E4AA7  _trigger_75_interact               trigger_75_interact
     003E4AA8  GBVM$trigger_75_interact$3edce75   trigger_75_interact
     003E4AAD  GBVM$trigger_75_interact$14b12a9   trigger_75_interact
     003E4AB2  _trigger_76_interact               trigger_76_interact
     003E4AB3  GBVM$trigger_76_interact$6e4ebae   trigger_76_interact
     003E4AB8  GBVM$trigger_76_interact$7c71113   trigger_76_interact
     003E4ABD  _trigger_77_interact               trigger_77_interact
     003E4ABE  GBVM$trigger_77_interact$febb448   trigger_77_interact
     003E4AC3  GBVM$trigger_77_interact$f0e31ac   trigger_77_interact
     003E4AC8  _trigger_78_interact               trigger_78_interact
     003E4AC9  GBVM$trigger_78_interact$5db4497   trigger_78_interact
     003E4ACE  GBVM$trigger_78_interact$027ccb1   trigger_78_interact
     003E4AD3  _trigger_79_interact               trigger_79_interact
     003E4AD4  GBVM$trigger_79_interact$370ff45   trigger_79_interact
     003E4AD9  GBVM$trigger_79_interact$b1e4282   trigger_79_interact
     003E4ADE  _trigger_88_interact               trigger_88_interact
     003E4ADF  GBVM$trigger_88_interact$9f229a2   trigger_88_interact
     003E4AEB  _trigger_89_interact               trigger_89_interact
     003E4AEC  GBVM$trigger_89_interact$c02fd33   trigger_89_interact
     003E4AF8  _trigger_90_interact               trigger_90_interact
     003E4AF9  GBVM$trigger_90_interact$acd8522   trigger_90_interact
     003E4B05  _trigger_93_interact               trigger_93_interact
     003E4B06  GBVM$trigger_93_interact$21fc203   trigger_93_interact
     003E4B0B  _trigger_94_interact               trigger_94_interact
     003E4B0C  GBVM$trigger_94_interact$3235300   trigger_94_interact
     003E4B11  GBVM$trigger_94_interact$9aeb410   trigger_94_interact
     003E4B16  _trigger_95_interact               trigger_95_interact
     003E4B17  GBVM$trigger_95_interact$158a84f   trigger_95_interact
     003E4B1C  GBVM$trigger_95_interact$1a626db   trigger_95_interact
     003E4B21  _trigger_96_interact               trigger_96_interact
     003E4B22  GBVM$trigger_96_interact$3f0d397   trigger_96_interact
     003E4B27  _trigger_97_interact               trigger_97_interact
     003E4B28  GBVM$trigger_97_interact$025e6fd   trigger_97_interact
     003E4B2D  GBVM$trigger_97_interact$712865e   trigger_97_interact
     003E4B32  _trigger_98_interact               trigger_98_interact
     003E4B33  GBVM$trigger_98_interact$41c36d4   trigger_98_interact
     003E4B38  GBVM$trigger_98_interact$5237e56   trigger_98_interact
     003E4B3D  _trigger_99_interact               trigger_99_interact
     003E4B3E  GBVM$trigger_99_interact$5b4fb20   trigger_99_interact
     003E4B4A  _logo_init                         logo
ASxxxx Linker V03.00/V05.40 + sdld,  page 76.
Hexadecimal  [32-Bits]

Area                                    Addr        Size        Decimal Bytes (Attributes)
--------------------------------        ----        ----        ------- ----- ------------
_CODE_62                            003E4000    00000B5B =        2907. bytes (REL,CON)

      Value  Global                              Global Defined In Module
      -----  --------------------------------   ------------------------
     003E4B5A  _logo_update                       logo
ASxxxx Linker V03.00/V05.40 + sdld,  page 77.
Hexadecimal  [32-Bits]

Area                                    Addr        Size        Decimal Bytes (Attributes)
--------------------------------        ----        ----        ------- ----- ------------
_CODE_61                            003D4000    00003FFF =       16383. bytes (REL,CON)

      Value  Global                              Global Defined In Module
      -----  --------------------------------   ------------------------
     003D4000  _camera_init                       camera
     003D4026  _input_init                        input
     003D4051  _scroll_rect                       
     003D408E  _SIO_init                          sio
     003D40B7  _actor_0_update                    actor_0_update
     003D40B9  GBVM$actor_0_update$2917f059_d45   actor_0_update
     003D40BE  GBVM$actor_0_update$7d7100de_22e   actor_0_update
     003D40CA  GBVM$actor_0_update$6876beb6_5d0   actor_0_update
     003D40DF  _actor_1_update                    actor_1_update
     003D40E1  GBVM$actor_1_update$c1bb5a1a_127   actor_1_update
     003D40E6  GBVM$actor_1_update$8729d8a3_ed5   actor_1_update
     003D40F2  GBVM$actor_1_update$3706f708_4e5   actor_1_update
     003D4107  _actor_10_update                   actor_10_update
     003D4109  GBVM$actor_10_update$d0d58bd5_3a   actor_10_update
     003D4115  GBVM$actor_10_update$6cff51cd_de   actor_10_update
     003D412A  _actor_9_update                    actor_9_update
     003D412C  GBVM$actor_9_update$ee6e1374_50a   actor_9_update
     003D4138  GBVM$actor_9_update$f646d0e9_78b   actor_9_update
     003D414D  ___func_emote_anger                emote_anger
     003D414D  _emote_anger                       emote_anger
     003D418D  ___func_emote_love                 emote_love
     003D418D  _emote_love                        emote_love
     003D41CD  ___func_emote_pause                emote_pause
     003D41CD  _emote_pause                       emote_pause
     003D420D  ___func_emote_question             emote_question
     003D420D  _emote_question                    emote_question
     003D424D  ___func_emote_shock                emote_shock
     003D424D  _emote_shock                       emote_shock
     003D428D  ___func_emote_sweat                emote_sweat
     003D428D  _emote_sweat                       emote_sweat
     003D42CD  ___func_palette_0                  palette_0
     003D42CD  _palette_0                         palette_0
     003D4310  ___func_palette_1                  palette_1
     003D4310  _palette_1                         palette_1
     003D4353  ___func_palette_10                 palette_10
     003D4353  _palette_10                        palette_10
     003D4396  ___func_palette_11                 palette_11
     003D4396  _palette_11                        palette_11
     003D43D9  ___func_palette_12                 palette_12
     003D43D9  _palette_12                        palette_12
     003D441C  ___func_palette_2                  palette_2
     003D441C  _palette_2                         palette_2
     003D445F  ___func_palette_3                  palette_3
     003D445F  _palette_3                         palette_3
     003D44A2  ___func_palette_4                  palette_4
     003D44A2  _palette_4                         palette_4
     003D44E5  ___func_palette_5                  palette_5
     003D44E5  _palette_5                         palette_5
     003D4528  ___func_palette_6                  palette_6
     003D4528  _palette_6                         palette_6
ASxxxx Linker V03.00/V05.40 + sdld,  page 78.
Hexadecimal  [32-Bits]

Area                                    Addr        Size        Decimal Bytes (Attributes)
--------------------------------        ----        ----        ------- ----- ------------
_CODE_61                            003D4000    00003FFF =       16383. bytes (REL,CON)

      Value  Global                              Global Defined In Module
      -----  --------------------------------   ------------------------
     003D456B  ___func_palette_7                  palette_7
     003D456B  _palette_7                         palette_7
     003D45AE  ___func_palette_8                  palette_8
     003D45AE  _palette_8                         palette_8
     003D45F1  ___func_palette_9                  palette_9
     003D45F1  _palette_9                         palette_9
     003D4634  _scene_1_init                      scene_1_init
     003D4637  GBVM$scene_1_init$autofade$3dcf1   scene_1_init
     003D4642  GBVM$scene_1_init$bddf1eec_59fb_   scene_1_init
     003D4646  GBVM$scene_1_init$b0cc08e0_a599_   scene_1_init
     003D4652  GBVM$scene_1_init$552e6071_4976_   scene_1_init
     003D465E  GBVM$scene_1_init$a7e75ee0_36ff_   scene_1_init
     003D4662  GBVM$scene_1_init$06a348fb_e200_   scene_1_init
     003D4667  GBVM$scene_1_init$3e5f6956_a66b_   scene_1_init
     003D466E  GBVM$scene_1_init$4d4373f4_f30f_   scene_1_init
     003D466E  GBVM$scene_1_init$dcd5f597_8b40_   scene_1_init
     003D4682  GBVM$scene_1_init$bb788247_5835_   scene_1_init
     003D468A  GBVM_END$scene_1_init$4d4373f4_f   scene_1_init
     003D468A  GBVM_END$scene_1_init$bb788247_5   scene_1_init
     003D468B  ___func_scene_1                    scene_1
     003D468B  _scene_1                           scene_1
     003D46C6  _scene_10_init                     scene_10_init
     003D46C9  GBVM$scene_10_init$f2af52ad_363b   scene_10_init
     003D46DE  GBVM$scene_10_init$e899c0f0_e992   scene_10_init
     003D46E6  GBVM$scene_10_init$autofade$3766   scene_10_init
     003D46E6  GBVM_END$scene_10_init$f2af52ad_   scene_10_init
     003D46F1  GBVM$scene_10_init$923e8797_1323   scene_10_init
     003D46F1  GBVM$scene_10_init$d9f8005a_5fd0   scene_10_init
     003D46F6  GBVM$scene_10_init$23df7e4f_d24f   scene_10_init
     003D46FD  GBVM$scene_10_init$10f8846b_d095   scene_10_init
     003D4701  GBVM$scene_10_init$41c34e6d_c7b5   scene_10_init
     003D4715  GBVM$scene_10_init$32fffecd_a4b1   scene_10_init
     003D471D  GBVM_END$scene_10_init$32fffecd_   scene_10_init
     003D471D  GBVM_END$scene_10_init$d9f8005a_   scene_10_init
     003D471E  ___func_scene_10                   scene_10
     003D471E  _scene_10                          scene_10
     003D4759  ___func_scene_11                   scene_11
     003D4759  _scene_11                          scene_11
     003D4794  ___func_scene_12_actors            scene_12_actors
     003D4794  _scene_12_actors                   scene_12_actors
     003D47C8  _scene_12_init                     scene_12_init
     003D47CB  GBVM$scene_12_init$a5180193_7258   scene_12_init
     003D47E0  GBVM$scene_12_init$d41711ad_167e   scene_12_init
     003D47E8  GBVM$scene_12_init$autofade$529c   scene_12_init
     003D47E8  GBVM_END$scene_12_init$a5180193_   scene_12_init
     003D47F3  GBVM$scene_12_init$7d20a51a_381e   scene_12_init
     003D47F3  GBVM$scene_12_init$b8e78f71_1bf8   scene_12_init
     003D47F8  GBVM$scene_12_init$8aa01e06_8d2c   scene_12_init
     003D47FF  GBVM$scene_12_init$3e4d4392_6fc5   scene_12_init
     003D4803  GBVM$scene_12_init$f804ba44_ee3e   scene_12_init
     003D4817  GBVM$scene_12_init$39f341ea_9d55   scene_12_init
ASxxxx Linker V03.00/V05.40 + sdld,  page 79.
Hexadecimal  [32-Bits]

Area                                    Addr        Size        Decimal Bytes (Attributes)
--------------------------------        ----        ----        ------- ----- ------------
_CODE_61                            003D4000    00003FFF =       16383. bytes (REL,CON)

      Value  Global                              Global Defined In Module
      -----  --------------------------------   ------------------------
     003D481F  GBVM_END$scene_12_init$39f341ea_   scene_12_init
     003D481F  GBVM_END$scene_12_init$b8e78f71_   scene_12_init
     003D4820  ___func_scene_12                   scene_12
     003D4820  _scene_12                          scene_12
     003D485B  ___func_scene_13_actors            scene_13_actors
     003D485B  _scene_13_actors                   scene_13_actors
     003D488F  _scene_13_init                     scene_13_init
     003D4892  GBVM$scene_13_init$868d45df_5085   scene_13_init
     003D48A7  GBVM$scene_13_init$1df3475d_05f4   scene_13_init
     003D48AF  GBVM$scene_13_init$autofade$dd54   scene_13_init
     003D48AF  GBVM_END$scene_13_init$868d45df_   scene_13_init
     003D48BA  GBVM$scene_13_init$aeb86c68_9038   scene_13_init
     003D48BA  GBVM$scene_13_init$c3d09572_9d75   scene_13_init
     003D48BF  GBVM$scene_13_init$3ebd8222_4adf   scene_13_init
     003D48C6  GBVM$scene_13_init$32d6493f_5f50   scene_13_init
     003D48CA  GBVM$scene_13_init$0696ca22_4f71   scene_13_init
     003D48DE  GBVM$scene_13_init$48539132_4dad   scene_13_init
     003D48E6  GBVM_END$scene_13_init$48539132_   scene_13_init
     003D48E6  GBVM_END$scene_13_init$aeb86c68_   scene_13_init
     003D48E7  ___func_scene_13_triggers          scene_13_triggers
     003D48E7  _scene_13_triggers                 scene_13_triggers
     003D4927  ___func_scene_13                   scene_13
     003D4927  _scene_13                          scene_13
     003D4962  ___func_scene_14_actors            scene_14_actors
     003D4962  _scene_14_actors                   scene_14_actors
     003D4996  ___func_scene_14                   scene_14
     003D4996  _scene_14                          scene_14
     003D49D1  ___func_scene_15_actors            scene_15_actors
     003D49D1  _scene_15_actors                   scene_15_actors
     003D4A05  _scene_15_init                     scene_15_init
     003D4A08  GBVM$scene_15_init$85c36c9a_22c2   scene_15_init
     003D4A1D  GBVM$scene_15_init$76c77911_cebd   scene_15_init
     003D4A25  GBVM$scene_15_init$autofade$72ec   scene_15_init
     003D4A25  GBVM_END$scene_15_init$85c36c9a_   scene_15_init
     003D4A30  GBVM$scene_15_init$d09bdf85_16f3   scene_15_init
     003D4A30  GBVM$scene_15_init$f8fee190_e019   scene_15_init
     003D4A35  GBVM$scene_15_init$152ead6a_1c6b   scene_15_init
     003D4A3C  GBVM$scene_15_init$2a401f01_eb3e   scene_15_init
     003D4A40  GBVM$scene_15_init$78f93ada_1b61   scene_15_init
     003D4A54  GBVM$scene_15_init$927585ad_c4c5   scene_15_init
     003D4A5C  GBVM_END$scene_15_init$927585ad_   scene_15_init
     003D4A5C  GBVM_END$scene_15_init$f8fee190_   scene_15_init
     003D4A5D  ___func_scene_15                   scene_15
     003D4A5D  _scene_15                          scene_15
     003D4A98  ___func_scene_16_actors            scene_16_actors
     003D4A98  _scene_16_actors                   scene_16_actors
     003D4ACC  ___func_scene_16                   scene_16
     003D4ACC  _scene_16                          scene_16
     003D4B07  ___func_scene_17                   scene_17
     003D4B07  _scene_17                          scene_17
     003D4B42  ___func_scene_18                   scene_18
ASxxxx Linker V03.00/V05.40 + sdld,  page 80.
Hexadecimal  [32-Bits]

Area                                    Addr        Size        Decimal Bytes (Attributes)
--------------------------------        ----        ----        ------- ----- ------------
_CODE_61                            003D4000    00003FFF =       16383. bytes (REL,CON)

      Value  Global                              Global Defined In Module
      -----  --------------------------------   ------------------------
     003D4B42  _scene_18                          scene_18
     003D4B7D  ___func_scene_19_triggers          scene_19_triggers
     003D4B7D  _scene_19_triggers                 scene_19_triggers
     003D4B9D  ___func_scene_19                   scene_19
     003D4B9D  _scene_19                          scene_19
     003D4BD8  _scene_2_init                      scene_2_init
     003D4BD9  GBVM$scene_2_init$12ddb85c_702a_   scene_2_init
     003D4BDD  GBVM$scene_2_init$f95524bc_ae92_   scene_2_init
     003D4BE5  GBVM$scene_2_init$918aeb7d_6528_   scene_2_init
     003D4BE5  GBVM_END$scene_2_init$f95524bc_a   scene_2_init
     003D4BED  GBVM$scene_2_init$autofade$91fd1   scene_2_init
     003D4BED  GBVM_END$scene_2_init$918aeb7d_6   scene_2_init
     003D4BF9  ___func_scene_2                    scene_2
     003D4BF9  _scene_2                           scene_2
     003D4C34  ___func_scene_20                   scene_20
     003D4C34  _scene_20                          scene_20
     003D4C6F  ___func_scene_21_actors            scene_21_actors
     003D4C6F  _scene_21_actors                   scene_21_actors
     003D4CA3  ___func_scene_21_triggers          scene_21_triggers
     003D4CA3  _scene_21_triggers                 scene_21_triggers
     003D4CD3  ___func_scene_21                   scene_21
     003D4CD3  _scene_21                          scene_21
     003D4D0E  ___func_scene_22_actors            scene_22_actors
     003D4D0E  _scene_22_actors                   scene_22_actors
     003D4D42  _scene_22_init                     scene_22_init
     003D4D45  GBVM$scene_22_init$687e2a4d_0565   scene_22_init
     003D4D5A  GBVM$scene_22_init$d9e24b0a_f3a8   scene_22_init
     003D4D62  GBVM$scene_22_init$autofade$6d45   scene_22_init
     003D4D62  GBVM_END$scene_22_init$687e2a4d_   scene_22_init
     003D4D6D  GBVM$scene_22_init$00adda95_a090   scene_22_init
     003D4D6D  GBVM$scene_22_init$557e93ac_c071   scene_22_init
     003D4D72  GBVM$scene_22_init$73053a40_1295   scene_22_init
     003D4D79  GBVM$scene_22_init$bcc884fb_f20e   scene_22_init
     003D4D7D  GBVM$scene_22_init$392eb759_f0e9   scene_22_init
     003D4D91  GBVM$scene_22_init$d9b2b2e3_8452   scene_22_init
     003D4D99  GBVM_END$scene_22_init$00adda95_   scene_22_init
     003D4D99  GBVM_END$scene_22_init$d9b2b2e3_   scene_22_init
     003D4D9A  ___func_scene_22_projectiles       scene_22_projectiles
     003D4D9A  _scene_22_projectiles              scene_22_projectiles
     003D4DB1  ___func_scene_22                   scene_22
     003D4DB1  _scene_22                          scene_22
     003D4DEC  ___func_scene_23_actors            scene_23_actors
     003D4DEC  _scene_23_actors                   scene_23_actors
     003D4E20  ___func_scene_23_projectiles       scene_23_projectiles
     003D4E20  _scene_23_projectiles              scene_23_projectiles
     003D4E37  ___func_scene_23_triggers          scene_23_triggers
     003D4E37  _scene_23_triggers                 scene_23_triggers
     003D4E6F  ___func_scene_23                   scene_23
     003D4E6F  _scene_23                          scene_23
     003D4EAA  ___func_scene_24_actors            scene_24_actors
     003D4EAA  _scene_24_actors                   scene_24_actors
ASxxxx Linker V03.00/V05.40 + sdld,  page 81.
Hexadecimal  [32-Bits]

Area                                    Addr        Size        Decimal Bytes (Attributes)
--------------------------------        ----        ----        ------- ----- ------------
_CODE_61                            003D4000    00003FFF =       16383. bytes (REL,CON)

      Value  Global                              Global Defined In Module
      -----  --------------------------------   ------------------------
     003D4EDE  _scene_24_init                     scene_24_init
     003D4EE1  GBVM$scene_24_init$782686cb_3d1b   scene_24_init
     003D4EF6  GBVM$scene_24_init$adaafb5d_b776   scene_24_init
     003D4EFE  GBVM$scene_24_init$autofade$fcd2   scene_24_init
     003D4EFE  GBVM_END$scene_24_init$782686cb_   scene_24_init
     003D4F09  GBVM$scene_24_init$1ee7fe4b_344e   scene_24_init
     003D4F09  GBVM$scene_24_init$52e95252_6e44   scene_24_init
     003D4F0E  GBVM$scene_24_init$5bf64760_8393   scene_24_init
     003D4F15  GBVM$scene_24_init$51feecf9_30d6   scene_24_init
     003D4F19  GBVM$scene_24_init$d7a07dc6_21d7   scene_24_init
     003D4F2D  GBVM$scene_24_init$0f8fef3b_4d7f   scene_24_init
     003D4F35  GBVM_END$scene_24_init$0f8fef3b_   scene_24_init
     003D4F35  GBVM_END$scene_24_init$52e95252_   scene_24_init
     003D4F36  ___func_scene_24_projectiles       scene_24_projectiles
     003D4F36  _scene_24_projectiles              scene_24_projectiles
     003D4F4D  ___func_scene_24_triggers          scene_24_triggers
     003D4F4D  _scene_24_triggers                 scene_24_triggers
     003D4F75  ___func_scene_24                   scene_24
     003D4F75  _scene_24                          scene_24
     003D4FB0  ___func_scene_25_actors            scene_25_actors
     003D4FB0  _scene_25_actors                   scene_25_actors
     003D4FE4  ___func_scene_25_projectiles       scene_25_projectiles
     003D4FE4  _scene_25_projectiles              scene_25_projectiles
     003D4FFB  ___func_scene_25_triggers          scene_25_triggers
     003D4FFB  _scene_25_triggers                 scene_25_triggers
     003D504B  ___func_scene_25                   scene_25
     003D504B  _scene_25                          scene_25
     003D5086  ___func_scene_26_projectiles       scene_26_projectiles
     003D5086  _scene_26_projectiles              scene_26_projectiles
     003D509D  ___func_scene_26                   scene_26
     003D509D  _scene_26                          scene_26
     003D50D8  _scene_27_init                     scene_27_init
     003D50DB  GBVM$scene_27_init$autofade$f953   scene_27_init
     003D50E6  GBVM$scene_27_init$0976dfe8_567d   scene_27_init
     003D50E6  GBVM$scene_27_init$ec61dbb7_3e27   scene_27_init
     003D50EB  GBVM$scene_27_init$125a48b1_5d1e   scene_27_init
     003D50F2  GBVM$scene_27_init$66370fda_703a   scene_27_init
     003D50F6  GBVM$scene_27_init$4f2d54e2_5d6f   scene_27_init
     003D510A  GBVM$scene_27_init$6278de31_b01b   scene_27_init
     003D5112  GBVM_END$scene_27_init$6278de31_   scene_27_init
     003D5112  GBVM_END$scene_27_init$ec61dbb7_   scene_27_init
     003D5113  ___func_scene_27_projectiles       scene_27_projectiles
     003D5113  _scene_27_projectiles              scene_27_projectiles
     003D512A  ___func_scene_27                   scene_27
     003D512A  _scene_27                          scene_27
     003D5165  ___func_scene_28_actors            scene_28_actors
     003D5165  _scene_28_actors                   scene_28_actors
     003D5199  ___func_scene_28                   scene_28
     003D5199  _scene_28                          scene_28
     003D51D4  ___func_scene_29                   scene_29
     003D51D4  _scene_29                          scene_29
ASxxxx Linker V03.00/V05.40 + sdld,  page 82.
Hexadecimal  [32-Bits]

Area                                    Addr        Size        Decimal Bytes (Attributes)
--------------------------------        ----        ----        ------- ----- ------------
_CODE_61                            003D4000    00003FFF =       16383. bytes (REL,CON)

      Value  Global                              Global Defined In Module
      -----  --------------------------------   ------------------------
     003D520F  _scene_3_init                      scene_3_init
     003D5210  GBVM$scene_3_init$915e70e5_7a97_   scene_3_init
     003D5214  GBVM$scene_3_init$53a7961e_1208_   scene_3_init
     003D521C  GBVM$scene_3_init$f619cc2f_f4b7_   scene_3_init
     003D521C  GBVM_END$scene_3_init$53a7961e_1   scene_3_init
     003D5224  GBVM$scene_3_init$autofade$91858   scene_3_init
     003D5224  GBVM_END$scene_3_init$f619cc2f_f   scene_3_init
     003D5230  ___func_scene_3                    scene_3
     003D5230  _scene_3                           scene_3
     003D526B  ___func_scene_30_actors            scene_30_actors
     003D526B  _scene_30_actors                   scene_30_actors
     003D529F  ___func_scene_30                   scene_30
     003D529F  _scene_30                          scene_30
     003D52DA  ___func_scene_31_projectiles       scene_31_projectiles
     003D52DA  _scene_31_projectiles              scene_31_projectiles
     003D52F1  ___func_scene_31_triggers          scene_31_triggers
     003D52F1  _scene_31_triggers                 scene_31_triggers
     003D5319  ___func_scene_31                   scene_31
     003D5319  _scene_31                          scene_31
     003D5354  ___func_scene_32_actors            scene_32_actors
     003D5354  _scene_32_actors                   scene_32_actors
     003D5388  _scene_32_init                     scene_32_init
     003D538B  GBVM$scene_32_init$e23ea354_2a8c   scene_32_init
     003D53A0  GBVM$scene_32_init$d6800cdd_00f1   scene_32_init
     003D53A8  GBVM$scene_32_init$autofade$4a93   scene_32_init
     003D53A8  GBVM_END$scene_32_init$e23ea354_   scene_32_init
     003D53B3  GBVM$scene_32_init$3f0ef588_eb5e   scene_32_init
     003D53B3  GBVM$scene_32_init$74f374db_8c03   scene_32_init
     003D53B8  GBVM$scene_32_init$d85dcd07_477c   scene_32_init
     003D53BF  GBVM$scene_32_init$307cc72a_6a4f   scene_32_init
     003D53C3  GBVM$scene_32_init$5bc97a2c_5863   scene_32_init
     003D53D7  GBVM$scene_32_init$cbc2e1a9_b80b   scene_32_init
     003D53DF  GBVM_END$scene_32_init$3f0ef588_   scene_32_init
     003D53DF  GBVM_END$scene_32_init$cbc2e1a9_   scene_32_init
     003D53E0  ___func_scene_32_projectiles       scene_32_projectiles
     003D53E0  _scene_32_projectiles              scene_32_projectiles
     003D53F7  ___func_scene_32_triggers          scene_32_triggers
     003D53F7  _scene_32_triggers                 scene_32_triggers
     003D544F  ___func_scene_32                   scene_32
     003D544F  _scene_32                          scene_32
     003D548A  ___func_scene_33_projectiles       scene_33_projectiles
     003D548A  _scene_33_projectiles              scene_33_projectiles
     003D54A1  ___func_scene_33                   scene_33
     003D54A1  _scene_33                          scene_33
     003D54DC  _scene_34_init                     scene_34_init
     003D54DF  GBVM$scene_34_init$autofade$1c2b   scene_34_init
     003D54EA  GBVM$scene_34_init$2f05cc67_5546   scene_34_init
     003D54EA  GBVM$scene_34_init$b6049f04_736b   scene_34_init
     003D54EF  GBVM$scene_34_init$d5eba167_07a2   scene_34_init
     003D54F6  GBVM$scene_34_init$f8dac226_f0b4   scene_34_init
     003D54FA  GBVM$scene_34_init$76cd7fe3_60b0   scene_34_init
ASxxxx Linker V03.00/V05.40 + sdld,  page 83.
Hexadecimal  [32-Bits]

Area                                    Addr        Size        Decimal Bytes (Attributes)
--------------------------------        ----        ----        ------- ----- ------------
_CODE_61                            003D4000    00003FFF =       16383. bytes (REL,CON)

      Value  Global                              Global Defined In Module
      -----  --------------------------------   ------------------------
     003D550E  GBVM$scene_34_init$dcb37a72_8278   scene_34_init
     003D5516  GBVM_END$scene_34_init$b6049f04_   scene_34_init
     003D5516  GBVM_END$scene_34_init$dcb37a72_   scene_34_init
     003D5517  ___func_scene_34_projectiles       scene_34_projectiles
     003D5517  _scene_34_projectiles              scene_34_projectiles
     003D552E  ___func_scene_34                   scene_34
     003D552E  _scene_34                          scene_34
     003D5569  _scene_35_init                     scene_35_init
     003D556C  GBVM$scene_35_init$9130f44f_431b   scene_35_init
     003D5574  GBVM$scene_35_init$autofade$f948   scene_35_init
     003D5574  GBVM_END$scene_35_init$9130f44f_   scene_35_init
     003D557F  GBVM$scene_35_init$1405e6fa_6e47   scene_35_init
     003D557F  GBVM$scene_35_init$a8ada030_1176   scene_35_init
     003D5584  GBVM$scene_35_init$ab86a73b_34a6   scene_35_init
     003D558B  GBVM$scene_35_init$3a15253c_eefd   scene_35_init
     003D558F  GBVM$scene_35_init$d72b3c98_d625   scene_35_init
     003D55A3  GBVM$scene_35_init$54bd82b8_0f1a   scene_35_init
     003D55AB  GBVM_END$scene_35_init$1405e6fa_   scene_35_init
     003D55AB  GBVM_END$scene_35_init$54bd82b8_   scene_35_init
     003D55AC  _scene_35_p_hit1                   scene_35_p_hit1
     003D55BF  GBVM$scene_35_p_hit1$f4c0d33c_36   scene_35_p_hit1
     003D55CC  ___func_scene_35_projectiles       scene_35_projectiles
     003D55CC  _scene_35_projectiles              scene_35_projectiles
     003D55FA  ___func_scene_35_triggers          scene_35_triggers
     003D55FA  _scene_35_triggers                 scene_35_triggers
     003D564A  ___func_scene_35                   scene_35
     003D564A  _scene_35                          scene_35
     003D5685  _scene_36_init                     scene_36_init
     003D5688  GBVM$scene_36_init$autofade$be05   scene_36_init
     003D5693  GBVM$scene_36_init$7ec100fc_9758   scene_36_init
     003D5693  GBVM$scene_36_init$9eed67ef_dabc   scene_36_init
     003D5698  GBVM$scene_36_init$45160520_b371   scene_36_init
     003D569F  GBVM$scene_36_init$3de04767_3705   scene_36_init
     003D56A3  GBVM$scene_36_init$aa9c0a68_ed31   scene_36_init
     003D56B7  GBVM$scene_36_init$56ab91c5_ef48   scene_36_init
     003D56BF  GBVM_END$scene_36_init$56ab91c5_   scene_36_init
     003D56BF  GBVM_END$scene_36_init$7ec100fc_   scene_36_init
     003D56C0  ___func_scene_36_projectiles       scene_36_projectiles
     003D56C0  _scene_36_projectiles              scene_36_projectiles
     003D56D7  ___func_scene_36_triggers          scene_36_triggers
     003D56D7  _scene_36_triggers                 scene_36_triggers
     003D572F  ___func_scene_36                   scene_36
     003D572F  _scene_36                          scene_36
     003D576A  _scene_37_init                     scene_37_init
     003D576D  GBVM$scene_37_init$autofade$e773   scene_37_init
     003D5778  GBVM$scene_37_init$40aa62d8_9a38   scene_37_init
     003D5778  GBVM$scene_37_init$4f15ed0a_b47e   scene_37_init
     003D577D  GBVM$scene_37_init$4000624b_6a35   scene_37_init
     003D5784  GBVM$scene_37_init$713b55b9_849f   scene_37_init
     003D5788  GBVM$scene_37_init$9c367214_cccf   scene_37_init
     003D579C  GBVM$scene_37_init$6dd44217_e24f   scene_37_init
ASxxxx Linker V03.00/V05.40 + sdld,  page 84.
Hexadecimal  [32-Bits]

Area                                    Addr        Size        Decimal Bytes (Attributes)
--------------------------------        ----        ----        ------- ----- ------------
_CODE_61                            003D4000    00003FFF =       16383. bytes (REL,CON)

      Value  Global                              Global Defined In Module
      -----  --------------------------------   ------------------------
     003D57A4  GBVM_END$scene_37_init$4f15ed0a_   scene_37_init
     003D57A4  GBVM_END$scene_37_init$6dd44217_   scene_37_init
     003D57A5  ___func_scene_37_projectiles       scene_37_projectiles
     003D57A5  _scene_37_projectiles              scene_37_projectiles
     003D57BC  ___func_scene_37                   scene_37
     003D57BC  _scene_37                          scene_37
     003D57F7  ___func_scene_38_actors            scene_38_actors
     003D57F7  _scene_38_actors                   scene_38_actors
     003D582B  _scene_38_init                     scene_38_init
     003D582E  GBVM$scene_38_init$autofade$45f3   scene_38_init
     003D5839  GBVM$scene_38_init$494ce2d4_0c12   scene_38_init
     003D5839  GBVM$scene_38_init$b0464d11_ec56   scene_38_init
     003D583E  GBVM$scene_38_init$6abe3643_1f97   scene_38_init
     003D5845  GBVM$scene_38_init$0c343ee9_f95e   scene_38_init
     003D5849  GBVM$scene_38_init$24cca59f_b0e7   scene_38_init
     003D585D  GBVM$scene_38_init$66e5fd02_d7ff   scene_38_init
     003D5865  GBVM_END$scene_38_init$494ce2d4_   scene_38_init
     003D5865  GBVM_END$scene_38_init$66e5fd02_   scene_38_init
     003D5866  ___func_scene_38_projectiles       scene_38_projectiles
     003D5866  _scene_38_projectiles              scene_38_projectiles
     003D587D  ___func_scene_38                   scene_38
     003D587D  _scene_38                          scene_38
     003D58B8  ___func_scene_39                   scene_39
     003D58B8  _scene_39                          scene_39
     003D58F3  ___func_scene_4                    scene_4
     003D58F3  _scene_4                           scene_4
     003D592E  ___func_scene_40_sprites           scene_40_sprites
     003D592E  _scene_40_sprites                  scene_40_sprites
     003D5943  ___func_scene_40                   scene_40
     003D5943  _scene_40                          scene_40
     003D597E  ___func_scene_41_actors            scene_41_actors
     003D597E  _scene_41_actors                   scene_41_actors
     003D59B2  _scene_41_init                     scene_41_init
     003D59B5  GBVM$scene_41_init$22d7462d_23f3   scene_41_init
     003D59BA  GBVM$scene_41_init$autofade$b27c   scene_41_init
     003D59C5  GBVM$scene_41_init$28a5800e_2517   scene_41_init
     003D59C5  GBVM$scene_41_init$618bcbae_a456   scene_41_init
     003D59CA  GBVM$scene_41_init$fcb5c235_0577   scene_41_init
     003D59D1  GBVM$scene_41_init$82c01580_7eab   scene_41_init
     003D59D5  GBVM$scene_41_init$d2de14e0_412e   scene_41_init
     003D59E9  GBVM$scene_41_init$d6071f4c_25ad   scene_41_init
     003D59FD  GBVM$scene_41_init$471d716e_54aa   scene_41_init
     003D5A05  GBVM_END$scene_41_init$471d716e_   scene_41_init
     003D5A05  GBVM_END$scene_41_init$618bcbae_   scene_41_init
     003D5A06  ___func_scene_41_projectiles       scene_41_projectiles
     003D5A06  _scene_41_projectiles              scene_41_projectiles
     003D5A1D  ___func_scene_41                   scene_41
     003D5A1D  _scene_41                          scene_41
     003D5A58  ___func_scene_42_actors            scene_42_actors
     003D5A58  _scene_42_actors                   scene_42_actors
     003D5A8C  ___func_scene_42_projectiles       scene_42_projectiles
ASxxxx Linker V03.00/V05.40 + sdld,  page 85.
Hexadecimal  [32-Bits]

Area                                    Addr        Size        Decimal Bytes (Attributes)
--------------------------------        ----        ----        ------- ----- ------------
_CODE_61                            003D4000    00003FFF =       16383. bytes (REL,CON)

      Value  Global                              Global Defined In Module
      -----  --------------------------------   ------------------------
     003D5A8C  _scene_42_projectiles              scene_42_projectiles
     003D5AA3  ___func_scene_42                   scene_42
     003D5AA3  _scene_42                          scene_42
     003D5ADE  ___func_scene_43_projectiles       scene_43_projectiles
     003D5ADE  _scene_43_projectiles              scene_43_projectiles
     003D5AF5  ___func_scene_43                   scene_43
     003D5AF5  _scene_43                          scene_43
     003D5B30  ___func_scene_44_actors            scene_44_actors
     003D5B30  _scene_44_actors                   scene_44_actors
     003D5B64  _scene_44_init                     scene_44_init
     003D5B67  GBVM$scene_44_init$28baf860_c071   scene_44_init
     003D5B7C  GBVM$scene_44_init$35a446f5_6a64   scene_44_init
     003D5B84  GBVM$scene_44_init$autofade$ac3c   scene_44_init
     003D5B84  GBVM_END$scene_44_init$28baf860_   scene_44_init
     003D5B8F  GBVM$scene_44_init$b5586911_bcfe   scene_44_init
     003D5B8F  GBVM$scene_44_init$ef1c7f4c_e69e   scene_44_init
     003D5B94  GBVM$scene_44_init$4a24e9fd_7f1c   scene_44_init
     003D5B9B  GBVM$scene_44_init$6de47a18_5dec   scene_44_init
     003D5B9F  GBVM$scene_44_init$c0b31a6b_4bbe   scene_44_init
     003D5BB3  GBVM$scene_44_init$a1e9f3aa_b280   scene_44_init
     003D5BBB  GBVM_END$scene_44_init$a1e9f3aa_   scene_44_init
     003D5BBB  GBVM_END$scene_44_init$ef1c7f4c_   scene_44_init
     003D5BBC  ___func_scene_44_projectiles       scene_44_projectiles
     003D5BBC  _scene_44_projectiles              scene_44_projectiles
     003D5BD3  ___func_scene_44                   scene_44
     003D5BD3  _scene_44                          scene_44
     003D5C0E  _scene_45_p_hit1                   scene_45_p_hit1
     003D5C21  GBVM$scene_45_p_hit1$c7fd54db_31   scene_45_p_hit1
     003D5C2E  ___func_scene_45_projectiles       scene_45_projectiles
     003D5C2E  _scene_45_projectiles              scene_45_projectiles
     003D5C5C  ___func_scene_45_triggers          scene_45_triggers
     003D5C5C  _scene_45_triggers                 scene_45_triggers
     003D5C7C  ___func_scene_45                   scene_45
     003D5C7C  _scene_45                          scene_45
     003D5CB7  _scene_46_init                     scene_46_init
     003D5CBA  GBVM$scene_46_init$autofade$8da4   scene_46_init
     003D5CC5  GBVM$scene_46_init$8cd9f4e4_4037   scene_46_init
     003D5CC5  GBVM$scene_46_init$dbe0941c_71d1   scene_46_init
     003D5CCA  GBVM$scene_46_init$fe2d9b01_e473   scene_46_init
     003D5CD1  GBVM$scene_46_init$1d5c6a70_bec9   scene_46_init
     003D5CD5  GBVM$scene_46_init$94420d4f_f0ab   scene_46_init
     003D5CE9  GBVM$scene_46_init$5f51d328_373f   scene_46_init
     003D5CF1  GBVM_END$scene_46_init$5f51d328_   scene_46_init
     003D5CF1  GBVM_END$scene_46_init$8cd9f4e4_   scene_46_init
     003D5CF2  ___func_scene_46_projectiles       scene_46_projectiles
     003D5CF2  _scene_46_projectiles              scene_46_projectiles
     003D5D09  ___func_scene_46_triggers          scene_46_triggers
     003D5D09  _scene_46_triggers                 scene_46_triggers
     003D5D29  ___func_scene_46                   scene_46
     003D5D29  _scene_46                          scene_46
     003D5D64  _scene_47_init                     scene_47_init
ASxxxx Linker V03.00/V05.40 + sdld,  page 86.
Hexadecimal  [32-Bits]

Area                                    Addr        Size        Decimal Bytes (Attributes)
--------------------------------        ----        ----        ------- ----- ------------
_CODE_61                            003D4000    00003FFF =       16383. bytes (REL,CON)

      Value  Global                              Global Defined In Module
      -----  --------------------------------   ------------------------
     003D5D67  GBVM$scene_47_init$5f9639c7_110c   scene_47_init
     003D5D6F  GBVM$scene_47_init$0be53ba3_46d0   scene_47_init
     003D5D6F  GBVM_END$scene_47_init$5f9639c7_   scene_47_init
     003D5D77  GBVM$scene_47_init$autofade$5bf8   scene_47_init
     003D5D77  GBVM_END$scene_47_init$0be53ba3_   scene_47_init
     003D5D82  GBVM$scene_47_init$98241518_1c71   scene_47_init
     003D5D82  GBVM$scene_47_init$be694b4f_edbd   scene_47_init
     003D5D87  GBVM$scene_47_init$43e19d89_8412   scene_47_init
     003D5D8E  GBVM$scene_47_init$ae2cb950_f530   scene_47_init
     003D5D92  GBVM$scene_47_init$1c356b6c_3aae   scene_47_init
     003D5DA6  GBVM$scene_47_init$21974eec_a6e5   scene_47_init
     003D5DAE  GBVM_END$scene_47_init$21974eec_   scene_47_init
     003D5DAE  GBVM_END$scene_47_init$be694b4f_   scene_47_init
     003D5DAF  _scene_47_p_hit1                   scene_47_p_hit1
     003D5DC2  GBVM$scene_47_p_hit1$be82aae2_28   scene_47_p_hit1
     003D5DCF  ___func_scene_47_projectiles       scene_47_projectiles
     003D5DCF  _scene_47_projectiles              scene_47_projectiles
     003D5DFD  ___func_scene_47_triggers          scene_47_triggers
     003D5DFD  _scene_47_triggers                 scene_47_triggers
     003D5E2D  ___func_scene_47                   scene_47
     003D5E2D  _scene_47                          scene_47
     003D5E68  _scene_48_init                     scene_48_init
     003D5E6B  GBVM$scene_48_init$autofade$12cf   scene_48_init
     003D5E76  GBVM$scene_48_init$a8adc54a_3aab   scene_48_init
     003D5E76  GBVM$scene_48_init$ffe7cce7_c2bf   scene_48_init
     003D5E7B  GBVM$scene_48_init$c67962c0_c2da   scene_48_init
     003D5E82  GBVM$scene_48_init$2d358925_67ee   scene_48_init
     003D5E86  GBVM$scene_48_init$337376c5_1ba3   scene_48_init
     003D5E9A  GBVM$scene_48_init$8d3daccf_473b   scene_48_init
     003D5EA2  GBVM_END$scene_48_init$8d3daccf_   scene_48_init
     003D5EA2  GBVM_END$scene_48_init$a8adc54a_   scene_48_init
     003D5EA3  ___func_scene_48_projectiles       scene_48_projectiles
     003D5EA3  _scene_48_projectiles              scene_48_projectiles
     003D5EBA  ___func_scene_48                   scene_48
     003D5EBA  _scene_48                          scene_48
     003D5EF5  _scene_49_init                     scene_49_init
     003D5EF8  GBVM$scene_49_init$autofade$7574   scene_49_init
     003D5F03  GBVM$scene_49_init$942f78a7_7411   scene_49_init
     003D5F03  GBVM$scene_49_init$bd0cb2af_5f47   scene_49_init
     003D5F08  GBVM$scene_49_init$31da5bda_d7aa   scene_49_init
     003D5F0F  GBVM$scene_49_init$4c364185_6e41   scene_49_init
     003D5F13  GBVM$scene_49_init$22d6d9c0_d472   scene_49_init
     003D5F27  GBVM$scene_49_init$db991bb0_b9e4   scene_49_init
     003D5F2F  GBVM_END$scene_49_init$bd0cb2af_   scene_49_init
     003D5F2F  GBVM_END$scene_49_init$db991bb0_   scene_49_init
     003D5F30  ___func_scene_49_projectiles       scene_49_projectiles
     003D5F30  _scene_49_projectiles              scene_49_projectiles
     003D5F47  ___func_scene_49_triggers          scene_49_triggers
     003D5F47  _scene_49_triggers                 scene_49_triggers
     003D5F77  ___func_scene_49                   scene_49
     003D5F77  _scene_49                          scene_49
ASxxxx Linker V03.00/V05.40 + sdld,  page 87.
Hexadecimal  [32-Bits]

Area                                    Addr        Size        Decimal Bytes (Attributes)
--------------------------------        ----        ----        ------- ----- ------------
_CODE_61                            003D4000    00003FFF =       16383. bytes (REL,CON)

      Value  Global                              Global Defined In Module
      -----  --------------------------------   ------------------------
     003D5FB2  ___func_scene_5                    scene_5
     003D5FB2  _scene_5                           scene_5
     003D5FED  _scene_50_init                     scene_50_init
     003D5FF0  GBVM$scene_50_init$autofade$cad8   scene_50_init
     003D5FFB  GBVM$scene_50_init$cb809792_7f96   scene_50_init
     003D5FFB  GBVM$scene_50_init$d97c2b07_f04a   scene_50_init
     003D6000  GBVM$scene_50_init$2e1b5faa_f015   scene_50_init
     003D6007  GBVM$scene_50_init$2003f886_0392   scene_50_init
     003D600B  GBVM$scene_50_init$0c271544_99b7   scene_50_init
     003D601F  GBVM$scene_50_init$ee6b0edf_ffeb   scene_50_init
     003D6027  GBVM_END$scene_50_init$d97c2b07_   scene_50_init
     003D6027  GBVM_END$scene_50_init$ee6b0edf_   scene_50_init
     003D6028  ___func_scene_50_projectiles       scene_50_projectiles
     003D6028  _scene_50_projectiles              scene_50_projectiles
     003D603F  ___func_scene_50_triggers          scene_50_triggers
     003D603F  _scene_50_triggers                 scene_50_triggers
     003D607F  ___func_scene_50                   scene_50
     003D607F  _scene_50                          scene_50
     003D60BA  ___func_scene_51_actors            scene_51_actors
     003D60BA  _scene_51_actors                   scene_51_actors
     003D60EE  _scene_51_p_hit1                   scene_51_p_hit1
     003D6101  GBVM$scene_51_p_hit1$222a3f78_f0   scene_51_p_hit1
     003D610E  ___func_scene_51_projectiles       scene_51_projectiles
     003D610E  _scene_51_projectiles              scene_51_projectiles
     003D613C  ___func_scene_51                   scene_51
     003D613C  _scene_51                          scene_51
     003D6177  ___func_scene_52_actors            scene_52_actors
     003D6177  _scene_52_actors                   scene_52_actors
     003D61AB  ___func_scene_52                   scene_52
     003D61AB  _scene_52                          scene_52
     003D61E6  ___func_scene_53_actors            scene_53_actors
     003D61E6  _scene_53_actors                   scene_53_actors
     003D621A  ___func_scene_53                   scene_53
     003D621A  _scene_53                          scene_53
     003D6255  ___func_scene_54_projectiles       scene_54_projectiles
     003D6255  _scene_54_projectiles              scene_54_projectiles
     003D626C  ___func_scene_54_triggers          scene_54_triggers
     003D626C  _scene_54_triggers                 scene_54_triggers
     003D629C  ___func_scene_54                   scene_54
     003D629C  _scene_54                          scene_54
     003D62D7  ___func_scene_55_actors            scene_55_actors
     003D62D7  _scene_55_actors                   scene_55_actors
     003D630B  ___func_scene_55_projectiles       scene_55_projectiles
     003D630B  _scene_55_projectiles              scene_55_projectiles
     003D6322  ___func_scene_55_triggers          scene_55_triggers
     003D6322  _scene_55_triggers                 scene_55_triggers
     003D6342  ___func_scene_55                   scene_55
     003D6342  _scene_55                          scene_55
     003D637D  ___func_scene_6                    scene_6
     003D637D  _scene_6                           scene_6
     003D63B8  ___func_scene_7                    scene_7
ASxxxx Linker V03.00/V05.40 + sdld,  page 88.
Hexadecimal  [32-Bits]

Area                                    Addr        Size        Decimal Bytes (Attributes)
--------------------------------        ----        ----        ------- ----- ------------
_CODE_61                            003D4000    00003FFF =       16383. bytes (REL,CON)

      Value  Global                              Global Defined In Module
      -----  --------------------------------   ------------------------
     003D63B8  _scene_7                           scene_7
     003D63F3  _scene_8_init                      scene_8_init
     003D63F6  GBVM$scene_8_init$autofade$bbcd2   scene_8_init
     003D6401  GBVM$scene_8_init$5ebac7dc_71be_   scene_8_init
     003D6401  GBVM$scene_8_init$882405d5_1c8a_   scene_8_init
     003D6406  GBVM$scene_8_init$3d3a03f7_f102_   scene_8_init
     003D640D  GBVM$scene_8_init$83439898_01b9_   scene_8_init
     003D6411  GBVM$scene_8_init$821e1461_295b_   scene_8_init
     003D6425  GBVM$scene_8_init$20e22b0a_6754_   scene_8_init
     003D642D  GBVM_END$scene_8_init$20e22b0a_6   scene_8_init
     003D642D  GBVM_END$scene_8_init$5ebac7dc_7   scene_8_init
     003D642E  ___func_scene_8_projectiles        scene_8_projectiles
     003D642E  _scene_8_projectiles               scene_8_projectiles
     003D6445  ___func_scene_8                    scene_8
     003D6445  _scene_8                           scene_8
     003D6480  ___func_scene_9_projectiles        scene_9_projectiles
     003D6480  _scene_9_projectiles               scene_9_projectiles
     003D6497  ___func_scene_9_triggers           scene_9_triggers
     003D6497  _scene_9_triggers                  scene_9_triggers
     003D64DF  ___func_scene_9                    scene_9
     003D64DF  _scene_9                           scene_9
     003D651A  GBVM$script_14$8206776a_db70_442   script_14
     003D651A  _script_14                         script_14
     003D6523  GBVM$script_14$68e3d862_ea5c_498   script_14
     003D652B  GBVM$script_14$e3a4bfee_8fa9_485   script_14
     003D6530  GBVM$script_14$80b01512_866b_481   script_14
     003D6535  GBVM_END$script_14$8206776a_db70   script_14
     003D6537  GBVM$script_5$b1acecf9_105c_4651   script_5
     003D6537  _script_5                          script_5
     003D6540  GBVM$script_5$bb2e09cf_dd77_4eaf   script_5
     003D6548  GBVM$script_5$12d3dad8_1d16_485d   script_5
     003D654D  GBVM$script_5$65f490bb_4547_4133   script_5
     003D6552  GBVM_END$script_5$b1acecf9_105c_   script_5
     003D6554  GBVM$script_input_1$04f3900c_41a   script_input_1
     003D6554  _script_input_1                    script_input_1
     003D6568  GBVM$script_input_1$0f38e8df_1df   script_input_1
     003D6574  GBVM$script_input_1$d22514af_c8d   script_input_1
     003D6580  GBVM$script_input_1$b571ea7d_8ba   script_input_1
     003D658C  GBVM_END$script_input_1$04f3900c   script_input_1
     003D658D  GBVM$script_input_10$0f57d14a_cb   script_input_10
     003D658D  _script_input_10                   script_input_10
     003D65DF  _script_input_11                   script_input_11
     003D65E1  GBVM$script_input_11$4fa25f88_d2   script_input_11
     003D6614  _script_input_29                   script_input_29
     003D6616  GBVM$script_input_29$da7f4e77_94   script_input_29
     003D6649  _script_input_3                    script_input_3
     003D664B  GBVM$script_input_3$1d7de06d_eed   script_input_3
     003D666D  _script_input_32                   script_input_32
     003D666F  GBVM$script_input_32$1b3b6d0b_42   script_input_32
     003D66A2  _script_input_33                   script_input_33
     003D66A4  GBVM$script_input_33$2dfb4328_aa   script_input_33
ASxxxx Linker V03.00/V05.40 + sdld,  page 89.
Hexadecimal  [32-Bits]

Area                                    Addr        Size        Decimal Bytes (Attributes)
--------------------------------        ----        ----        ------- ----- ------------
_CODE_61                            003D4000    00003FFF =       16383. bytes (REL,CON)

      Value  Global                              Global Defined In Module
      -----  --------------------------------   ------------------------
     003D66D7  GBVM$script_input_4$8e214c21_b0e   script_input_4
     003D66D7  _script_input_4                    script_input_4
     003D66FE  _script_input_5                    script_input_5
     003D6700  GBVM$script_input_5$3dd71e4f_555   script_input_5
     003D6733  _script_input_6                    script_input_6
     003D6735  GBVM$script_input_6$927758d8_952   script_input_6
     003D6768  GBVM$script_input_7$f77f388f_050   script_input_7
     003D6768  _script_input_7                    script_input_7
     003D676A  GBVM$script_input_7$2272c911_6f5   script_input_7
     003D677F  _script_timer_1                    script_timer_1
     003D6781  GBVM$script_timer_1$f53c767f_bb2   script_timer_1
     003D67B4  _script_timer_13                   script_timer_13
     003D67B6  GBVM$script_timer_13$f39c797a_1b   script_timer_13
     003D67C6  _script_timer_14                   script_timer_14
     003D67C8  GBVM$script_timer_14$19349a04_b7   script_timer_14
     003D67D8  _script_timer_15                   script_timer_15
     003D67DA  GBVM$script_timer_15$d6472954_05   script_timer_15
     003D67EA  _script_timer_16                   script_timer_16
     003D67EC  GBVM$script_timer_16$6184bbd3_84   script_timer_16
     003D67FC  _script_timer_17                   script_timer_17
     003D67FE  GBVM$script_timer_17$0e59a66a_c8   script_timer_17
     003D680E  _script_timer_18                   script_timer_18
     003D6810  GBVM$script_timer_18$7d74c99b_65   script_timer_18
     003D6820  _script_timer_19                   script_timer_19
     003D6822  GBVM$script_timer_19$7b161f67_08   script_timer_19
     003D6832  _script_timer_2                    script_timer_2
     003D6834  GBVM$script_timer_2$7413e7a1_811   script_timer_2
     003D6867  _script_timer_20                   script_timer_20
     003D6869  GBVM$script_timer_20$22ac90cf_fa   script_timer_20
     003D6879  _script_timer_21                   script_timer_21
     003D687B  GBVM$script_timer_21$da27e8a2_37   script_timer_21
     003D688B  _script_timer_22                   script_timer_22
     003D688D  GBVM$script_timer_22$cc1f5b50_fd   script_timer_22
     003D689D  _script_timer_23                   script_timer_23
     003D689F  GBVM$script_timer_23$cea24bed_29   script_timer_23
     003D68AF  _script_timer_24                   script_timer_24
     003D68B1  GBVM$script_timer_24$66cc7c4d_ee   script_timer_24
     003D68C1  _script_timer_25                   script_timer_25
     003D68C3  GBVM$script_timer_25$bd624ed9_ee   script_timer_25
     003D68D3  _script_timer_26                   script_timer_26
     003D68D5  GBVM$script_timer_26$6c464012_51   script_timer_26
     003D68E5  _script_timer_27                   script_timer_27
     003D68E7  GBVM$script_timer_27$1bfc9666_b4   script_timer_27
     003D68F7  _script_timer_28                   script_timer_28
     003D68F9  GBVM$script_timer_28$c2204521_67   script_timer_28
     003D6909  _script_timer_29                   script_timer_29
     003D690B  GBVM$script_timer_29$4d1d64b3_10   script_timer_29
     003D691B  _script_timer_3                    script_timer_3
     003D691D  GBVM$script_timer_3$15f5281a_ded   script_timer_3
     003D692D  _script_timer_30                   script_timer_30
     003D692F  GBVM$script_timer_30$05fee45d_b4   script_timer_30
ASxxxx Linker V03.00/V05.40 + sdld,  page 90.
Hexadecimal  [32-Bits]

Area                                    Addr        Size        Decimal Bytes (Attributes)
--------------------------------        ----        ----        ------- ----- ------------
_CODE_61                            003D4000    00003FFF =       16383. bytes (REL,CON)

      Value  Global                              Global Defined In Module
      -----  --------------------------------   ------------------------
     003D693F  _script_timer_31                   script_timer_31
     003D6941  GBVM$script_timer_31$7aeaf465_65   script_timer_31
     003D6951  _script_timer_32                   script_timer_32
     003D6953  GBVM$script_timer_32$461dd357_f9   script_timer_32
     003D6963  _script_timer_33                   script_timer_33
     003D6965  GBVM$script_timer_33$654432e3_23   script_timer_33
     003D6975  _script_timer_34                   script_timer_34
     003D6977  GBVM$script_timer_34$7bf309dd_8a   script_timer_34
     003D6987  _script_timer_35                   script_timer_35
     003D6989  GBVM$script_timer_35$ba2f56f0_24   script_timer_35
     003D6999  _script_timer_36                   script_timer_36
     003D699B  GBVM$script_timer_36$6a6c8db5_a8   script_timer_36
     003D69AB  _script_timer_37                   script_timer_37
     003D69AD  GBVM$script_timer_37$a669e971_13   script_timer_37
     003D69BD  _script_timer_38                   script_timer_38
     003D69BF  GBVM$script_timer_38$9af9aa5e_ef   script_timer_38
     003D69CF  _script_timer_39                   script_timer_39
     003D69D1  GBVM$script_timer_39$e518ccc1_48   script_timer_39
     003D69E1  _script_timer_4                    script_timer_4
     003D69E3  GBVM$script_timer_4$b7215c7a_588   script_timer_4
     003D69F3  _script_timer_40                   script_timer_40
     003D69F5  GBVM$script_timer_40$cfbd322d_32   script_timer_40
     003D6A05  _script_timer_41                   script_timer_41
     003D6A07  GBVM$script_timer_41$11ba139c_6a   script_timer_41
     003D6A17  _script_timer_42                   script_timer_42
     003D6A19  GBVM$script_timer_42$ff14b3b3_48   script_timer_42
     003D6A29  _script_timer_43                   script_timer_43
     003D6A2B  GBVM$script_timer_43$3c7d6dcb_c2   script_timer_43
     003D6A3B  _script_timer_44                   script_timer_44
     003D6A3D  GBVM$script_timer_44$8f72697d_1c   script_timer_44
     003D6A4D  _script_timer_45                   script_timer_45
     003D6A4F  GBVM$script_timer_45$bab33755_5a   script_timer_45
     003D6A5F  _script_timer_50                   script_timer_50
     003D6A61  GBVM$script_timer_50$83cb5874_fa   script_timer_50
     003D6A76  GBVM$script_timer_50$933db798_29   script_timer_50
     003D6AAE  GBVM_END$script_timer_50$83cb587   script_timer_50
     003D6AAF  _script_timer_51                   script_timer_51
     003D6AB1  GBVM$script_timer_51$748b77d2_02   script_timer_51
     003D6AC6  GBVM$script_timer_51$3cdbea43_07   script_timer_51
     003D6AFE  GBVM_END$script_timer_51$748b77d   script_timer_51
     003D6AFF  _script_timer_52                   script_timer_52
     003D6B01  GBVM$script_timer_52$7612240e_93   script_timer_52
     003D6B10  GBVM$script_timer_52$7525e7c5_d7   script_timer_52
     003D6B25  _script_timer_53                   script_timer_53
     003D6B27  GBVM$script_timer_53$ee279dc7_20   script_timer_53
     003D6B36  GBVM$script_timer_53$6c033756_68   script_timer_53
     003D6B4B  _script_timer_62                   script_timer_62
     003D6B4D  GBVM$script_timer_62$dd038182_2a   script_timer_62
     003D6B54  GBVM$script_timer_62$75427d4d_93   script_timer_62
     003D6B71  _script_timer_67                   script_timer_67
     003D6B73  GBVM$script_timer_67$3e971309_b4   script_timer_67
ASxxxx Linker V03.00/V05.40 + sdld,  page 91.
Hexadecimal  [32-Bits]

Area                                    Addr        Size        Decimal Bytes (Attributes)
--------------------------------        ----        ----        ------- ----- ------------
_CODE_61                            003D4000    00003FFF =       16383. bytes (REL,CON)

      Value  Global                              Global Defined In Module
      -----  --------------------------------   ------------------------
     003D6B82  GBVM$script_timer_67$8a8e709d_5d   script_timer_67
     003D6B97  _script_timer_68                   script_timer_68
     003D6B99  GBVM$script_timer_68$11b33454_06   script_timer_68
     003D6BAE  _script_timer_76                   script_timer_76
     003D6BB0  GBVM$script_timer_76$b1acc51d_55   script_timer_76
     003D6BE9  _script_timer_77                   script_timer_77
     003D6BEB  GBVM$script_timer_77$dc3ba45f_f6   script_timer_77
     003D6C24  _script_timer_81                   script_timer_81
     003D6C26  GBVM$script_timer_81$4d0468e8_9d   script_timer_81
     003D6C32  GBVM$script_timer_81$6738680e_00   script_timer_81
     003D6C6A  GBVM_END$script_timer_81$4d0468e   script_timer_81
     003D6C6B  _script_timer_82                   script_timer_82
     003D6C6D  GBVM$script_timer_82$c17d0b2a_f9   script_timer_82
     003D6C79  GBVM$script_timer_82$122e2330_b6   script_timer_82
     003D6CB1  GBVM_END$script_timer_82$c17d0b2   script_timer_82
     003D6CB2  _script_timer_90                   script_timer_90
     003D6CB4  GBVM$script_timer_90$32fa980e_29   script_timer_90
     003D6CC3  GBVM$script_timer_90$5bf6a4ce_30   script_timer_90
     003D6CD3  ___func_sprite_cedric_copy         sprite_cedric_copy
     003D6CD3  _sprite_cedric_copy_metasprite_0   sprite_cedric_copy
     003D6CF3  _sprite_cedric_copy_metasprites    sprite_cedric_copy
     003D6CF5  _sprite_cedric_copy_animations     sprite_cedric_copy
     003D6D05  _sprite_cedric_copy_animations_l   sprite_cedric_copy
     003D6D07  _sprite_cedric_copy                sprite_cedric_copy
     003D6D1A  ___func_sprite_cedric_dust_tiles   sprite_cedric_dust_tileset
     003D6D1A  _sprite_cedric_dust_tileset        sprite_cedric_dust_tileset
     003D6D5C  ___func_sprite_cedric_dust         sprite_cedric_dust
     003D6D5C  _sprite_cedric_dust_metasprite_0   sprite_cedric_dust
     003D6D68  _sprite_cedric_dust_metasprites    sprite_cedric_dust
     003D6D6A  _sprite_cedric_dust_animations     sprite_cedric_dust
     003D6D7A  _sprite_cedric_dust_animations_l   sprite_cedric_dust
     003D6D7C  _sprite_cedric_dust                sprite_cedric_dust
     003D6D8F  ___func_sprite_feather_tileset     sprite_feather_tileset
     003D6D8F  _sprite_feather_tileset            sprite_feather_tileset
     003D6DD1  ___func_sprite_feather             sprite_feather
     003D6DD1  _sprite_feather_metasprite_0       sprite_feather
     003D6DDD  _sprite_feather_metasprites        sprite_feather
     003D6DDF  _sprite_feather_animations         sprite_feather
     003D6DEF  _sprite_feather_animations_looku   sprite_feather
     003D6DF1  _sprite_feather                    sprite_feather
     003D6E04  ___func_sprite_flame_whip          sprite_flame_whip
     003D6E04  _sprite_flame_whip_metasprite_0    sprite_flame_whip
     003D6E0C  _sprite_flame_whip_metasprite_1    sprite_flame_whip
     003D6E18  _sprite_flame_whip_metasprites     sprite_flame_whip
     003D6E1C  _sprite_flame_whip_animations      sprite_flame_whip
     003D6E2C  _sprite_flame_whip_animations_lo   sprite_flame_whip
     003D6E2E  _sprite_flame_whip                 sprite_flame_whip
     003D6E41  ___func_sprite_foxberry_ui_tiles   sprite_foxberry_ui_tileset
     003D6E41  _sprite_foxberry_ui_tileset        sprite_foxberry_ui_tileset
     003D6E83  ___func_sprite_foxberry_ui         sprite_foxberry_ui
     003D6E83  _sprite_foxberry_ui_metasprite_0   sprite_foxberry_ui
ASxxxx Linker V03.00/V05.40 + sdld,  page 92.
Hexadecimal  [32-Bits]

Area                                    Addr        Size        Decimal Bytes (Attributes)
--------------------------------        ----        ----        ------- ----- ------------
_CODE_61                            003D4000    00003FFF =       16383. bytes (REL,CON)

      Value  Global                              Global Defined In Module
      -----  --------------------------------   ------------------------
     003D6E8F  _sprite_foxberry_ui_metasprites    sprite_foxberry_ui
     003D6E91  _sprite_foxberry_ui_animations     sprite_foxberry_ui
     003D6EA1  _sprite_foxberry_ui_animations_l   sprite_foxberry_ui
     003D6EA3  _sprite_foxberry_ui                sprite_foxberry_ui
     003D6EB6  ___func_sprite_lava                sprite_lava
     003D6EB6  _sprite_lava_metasprite_0          sprite_lava
     003D6EC2  _sprite_lava_metasprites           sprite_lava
     003D6EC4  _sprite_lava_animations            sprite_lava
     003D6ED4  _sprite_lava_animations_lookup     sprite_lava
     003D6ED6  _sprite_lava                       sprite_lava
     003D6EE9  ___func_sprite_metal_walls_tiles   sprite_metal_walls_tileset
     003D6EE9  _sprite_metal_walls_tileset        sprite_metal_walls_tileset
     003D6F2B  ___func_sprite_metal_walls         sprite_metal_walls
     003D6F2B  _sprite_metal_walls_metasprite_0   sprite_metal_walls
     003D6F37  _sprite_metal_walls_metasprites    sprite_metal_walls
     003D6F39  _sprite_metal_walls_animations     sprite_metal_walls
     003D6F49  _sprite_metal_walls_animations_l   sprite_metal_walls
     003D6F4B  _sprite_metal_walls                sprite_metal_walls
     003D6F5E  ___func_sprite_phoenix_cop_copy    sprite_phoenix_cop_copy
     003D6F5E  _sprite_phoenix_cop_copy_metaspr   sprite_phoenix_cop_copy
     003D6F7A  _sprite_phoenix_cop_copy_metaspr   sprite_phoenix_cop_copy
     003D6F7C  _sprite_phoenix_cop_copy_animati   sprite_phoenix_cop_copy
     003D6F8C  _sprite_phoenix_cop_copy_animati   sprite_phoenix_cop_copy
     003D6F8E  _sprite_phoenix_cop_copy           sprite_phoenix_cop_copy
     003D6FA1  ___func_sprite_poison_tileset      sprite_poison_tileset
     003D6FA1  _sprite_poison_tileset             sprite_poison_tileset
     003D6FE3  ___func_sprite_poison              sprite_poison
     003D6FE3  _sprite_poison_metasprite_0        sprite_poison
     003D6FEF  _sprite_poison_metasprites         sprite_poison
     003D6FF1  _sprite_poison_animations          sprite_poison
     003D7001  _sprite_poison_animations_lookup   sprite_poison
     003D7003  _sprite_poison                     sprite_poison
     003D7016  ___func_sprite_potion_ui_tileset   sprite_potion_ui_tileset
     003D7016  _sprite_potion_ui_tileset          sprite_potion_ui_tileset
     003D7058  ___func_sprite_potion_ui           sprite_potion_ui
     003D7058  _sprite_potion_ui_metasprite_0     sprite_potion_ui
     003D7064  _sprite_potion_ui_metasprites      sprite_potion_ui
     003D7066  _sprite_potion_ui_animations       sprite_potion_ui
     003D7076  _sprite_potion_ui_animations_loo   sprite_potion_ui
     003D7078  _sprite_potion_ui                  sprite_potion_ui
     003D708B  ___func_sprite_toxic_tileset       sprite_toxic_tileset
     003D708B  _sprite_toxic_tileset              sprite_toxic_tileset
     003D70AD  ___func_sprite_toxic               sprite_toxic
     003D70AD  _sprite_toxic_metasprite_0         sprite_toxic
     003D70B9  _sprite_toxic_metasprites          sprite_toxic
     003D70BB  _sprite_toxic_animations           sprite_toxic
     003D70CB  _sprite_toxic_animations_lookup    sprite_toxic
     003D70CD  _sprite_toxic                      sprite_toxic
     003D70E0  ___func_sprite_transparent         sprite_transparent
     003D70E0  _sprite_transparent_metasprite_0   sprite_transparent
     003D70E4  _sprite_transparent_metasprites    sprite_transparent
ASxxxx Linker V03.00/V05.40 + sdld,  page 93.
Hexadecimal  [32-Bits]

Area                                    Addr        Size        Decimal Bytes (Attributes)
--------------------------------        ----        ----        ------- ----- ------------
_CODE_61                            003D4000    00003FFF =       16383. bytes (REL,CON)

      Value  Global                              Global Defined In Module
      -----  --------------------------------   ------------------------
     003D70E6  _sprite_transparent_animations     sprite_transparent
     003D70F6  _sprite_transparent_animations_l   sprite_transparent
     003D70F8  _sprite_transparent                sprite_transparent
     003D710B  ___func_sprite_unknown_key_copy_   sprite_unknown_key_copy_2__t
     003D710B  _sprite_unknown_key_copy_2__tile   sprite_unknown_key_copy_2__t
     003D714D  ___func_sprite_unknown_key_copy_   sprite_unknown_key_copy_2_
     003D714D  _sprite_unknown_key_copy_2__meta   sprite_unknown_key_copy_2_
     003D7159  _sprite_unknown_key_copy_2__meta   sprite_unknown_key_copy_2_
     003D715B  _sprite_unknown_key_copy_2__anim   sprite_unknown_key_copy_2_
     003D716B  _sprite_unknown_key_copy_2__anim   sprite_unknown_key_copy_2_
     003D716D  _sprite_unknown_key_copy_2_        sprite_unknown_key_copy_2_
     003D7180  ___func_sprite_unknown_key_copy_   sprite_unknown_key_copy_tile
     003D7180  _sprite_unknown_key_copy_tileset   sprite_unknown_key_copy_tile
     003D71C2  ___func_sprite_unknown_key_copy    sprite_unknown_key_copy
     003D71C2  _sprite_unknown_key_copy_metaspr   sprite_unknown_key_copy
     003D71CE  _sprite_unknown_key_copy_metaspr   sprite_unknown_key_copy
     003D71D0  _sprite_unknown_key_copy_animati   sprite_unknown_key_copy
     003D71E0  _sprite_unknown_key_copy_animati   sprite_unknown_key_copy
     003D71E2  _sprite_unknown_key_copy           sprite_unknown_key_copy
     003D71F5  ___func_sprite_water_tileset       sprite_water_tileset
     003D71F5  _sprite_water_tileset              sprite_water_tileset
     003D7217  ___func_sprite_water               sprite_water
     003D7217  _sprite_water_metasprite_0         sprite_water
     003D7223  _sprite_water_metasprites          sprite_water
     003D7225  _sprite_water_animations           sprite_water
     003D7235  _sprite_water_animations_lookup    sprite_water
     003D7237  _sprite_water                      sprite_water
     003D724A  _spritesheet_none_metasprite       spritesheet_none
     003D724E  _spritesheet_none_metasprites      spritesheet_none
     003D7250  _spritesheet_none                  spritesheet_none
     003D7263  _trigger_0_interact                trigger_0_interact
     003D7277  GBVM$trigger_0_interact$6b1208c1   trigger_0_interact
     003D727F  GBVM_END$trigger_0_interact$6b12   trigger_0_interact
     003D7291  GBVM$trigger_0_interact$89651838   trigger_0_interact
     003D7293  GBVM$trigger_0_interact$b893782e   trigger_0_interact
     003D7299  _trigger_1_interact                trigger_1_interact
     003D729C  GBVM$trigger_1_interact$d47fcf92   trigger_1_interact
     003D72CF  _trigger_107_interact              trigger_107_interact
     003D72D2  GBVM$trigger_107_interact$9c4424   trigger_107_interact
     003D72F0  GBVM$trigger_107_interact$fd6e24   trigger_107_interact
     003D7327  _trigger_108_interact              trigger_108_interact
     003D732A  GBVM$trigger_108_interact$baef27   trigger_108_interact
     003D7348  GBVM$trigger_108_interact$325687   trigger_108_interact
     003D737F  _trigger_111_interact              trigger_111_interact
     003D7382  GBVM$trigger_111_interact$3e0afd   trigger_111_interact
     003D73B5  _trigger_118_interact              trigger_118_interact
     003D73B8  GBVM$trigger_118_interact$688664   trigger_118_interact
     003D73D6  GBVM$trigger_118_interact$ca2123   trigger_118_interact
     003D740D  _trigger_119_interact              trigger_119_interact
     003D7410  GBVM$trigger_119_interact$435dbc   trigger_119_interact
     003D742E  GBVM$trigger_119_interact$313724   trigger_119_interact
ASxxxx Linker V03.00/V05.40 + sdld,  page 94.
Hexadecimal  [32-Bits]

Area                                    Addr        Size        Decimal Bytes (Attributes)
--------------------------------        ----        ----        ------- ----- ------------
_CODE_61                            003D4000    00003FFF =       16383. bytes (REL,CON)

      Value  Global                              Global Defined In Module
      -----  --------------------------------   ------------------------
     003D7465  _trigger_126_interact              trigger_126_interact
     003D7466  GBVM$trigger_126_interact$a5f5e4   trigger_126_interact
     003D746B  GBVM$trigger_126_interact$9a953e   trigger_126_interact
     003D746F  GBVM$trigger_126_interact$d95da7   trigger_126_interact
     003D7474  GBVM$trigger_126_interact$3ff7a8   trigger_126_interact
     003D7479  _trigger_127_interact              trigger_127_interact
     003D747A  GBVM$trigger_127_interact$a65207   trigger_127_interact
     003D747F  GBVM$trigger_127_interact$234bd8   trigger_127_interact
     003D7483  GBVM$trigger_127_interact$c9bf9d   trigger_127_interact
     003D7488  GBVM$trigger_127_interact$3169e6   trigger_127_interact
     003D748D  _trigger_129_interact              trigger_129_interact
     003D748E  GBVM$trigger_129_interact$8928ff   trigger_129_interact
     003D7493  GBVM$trigger_129_interact$5dead7   trigger_129_interact
     003D7497  GBVM$trigger_129_interact$a2ed75   trigger_129_interact
     003D749C  GBVM$trigger_129_interact$bcaba6   trigger_129_interact
     003D74A1  _trigger_150_interact              trigger_150_interact
     003D74A2  GBVM$trigger_150_interact$85aa6d   trigger_150_interact
     003D74A7  GBVM$trigger_150_interact$4576fe   trigger_150_interact
     003D74AB  GBVM$trigger_150_interact$d2b2e3   trigger_150_interact
     003D74B0  GBVM$trigger_150_interact$f43c54   trigger_150_interact
     003D74B5  _trigger_176_interact              trigger_176_interact
     003D74B8  GBVM$trigger_176_interact$7a622c   trigger_176_interact
     003D74EB  _trigger_178_interact              trigger_178_interact
     003D74EE  GBVM$trigger_178_interact$7a4bb3   trigger_178_interact
     003D7521  _trigger_179_interact              trigger_179_interact
     003D7524  GBVM$trigger_179_interact$6e991d   trigger_179_interact
     003D7557  _trigger_185_interact              trigger_185_interact
     003D7558  GBVM$trigger_185_interact$57cfee   trigger_185_interact
     003D7563  GBVM$trigger_185_interact$a8161d   trigger_185_interact
     003D756D  _trigger_187_interact              trigger_187_interact
     003D756E  GBVM$trigger_187_interact$ea8274   trigger_187_interact
     003D7579  GBVM$trigger_187_interact$23a771   trigger_187_interact
     003D7583  _trigger_188_interact              trigger_188_interact
     003D7584  GBVM$trigger_188_interact$f13957   trigger_188_interact
     003D758F  GBVM$trigger_188_interact$f9223b   trigger_188_interact
     003D7599  _trigger_19_interact               trigger_19_interact
     003D759C  GBVM$trigger_19_interact$6598713   trigger_19_interact
     003D75CF  _trigger_194_interact              trigger_194_interact
     003D75D2  GBVM$trigger_194_interact$784396   trigger_194_interact
     003D75F0  GBVM$trigger_194_interact$725688   trigger_194_interact
     003D7627  _trigger_195_interact              trigger_195_interact
     003D7628  GBVM$trigger_195_interact$3795a4   trigger_195_interact
     003D7633  GBVM$trigger_195_interact$82793d   trigger_195_interact
     003D763D  _trigger_196_interact              trigger_196_interact
     003D763E  GBVM$trigger_196_interact$ff70f4   trigger_196_interact
     003D7649  GBVM$trigger_196_interact$0d98e5   trigger_196_interact
     003D7653  _trigger_197_interact              trigger_197_interact
     003D7654  GBVM$trigger_197_interact$172d71   trigger_197_interact
     003D765F  GBVM$trigger_197_interact$3e4d41   trigger_197_interact
     003D7669  _trigger_198_interact              trigger_198_interact
     003D766A  GBVM$trigger_198_interact$3eb839   trigger_198_interact
ASxxxx Linker V03.00/V05.40 + sdld,  page 95.
Hexadecimal  [32-Bits]

Area                                    Addr        Size        Decimal Bytes (Attributes)
--------------------------------        ----        ----        ------- ----- ------------
_CODE_61                            003D4000    00003FFF =       16383. bytes (REL,CON)

      Value  Global                              Global Defined In Module
      -----  --------------------------------   ------------------------
     003D7675  GBVM$trigger_198_interact$92e553   trigger_198_interact
     003D767F  _trigger_199_interact              trigger_199_interact
     003D7680  GBVM$trigger_199_interact$08bcf5   trigger_199_interact
     003D768B  GBVM$trigger_199_interact$bcabb0   trigger_199_interact
     003D7695  _trigger_2_interact                trigger_2_interact
     003D7698  GBVM$trigger_2_interact$4b473b99   trigger_2_interact
     003D76CB  _trigger_200_interact              trigger_200_interact
     003D76CC  GBVM$trigger_200_interact$184ab3   trigger_200_interact
     003D76D7  GBVM$trigger_200_interact$933099   trigger_200_interact
     003D76E1  _trigger_201_interact              trigger_201_interact
     003D76E2  GBVM$trigger_201_interact$aa24da   trigger_201_interact
     003D76ED  GBVM$trigger_201_interact$8667c4   trigger_201_interact
     003D76F7  _trigger_202_interact              trigger_202_interact
     003D76F8  GBVM$trigger_202_interact$eef5e0   trigger_202_interact
     003D7703  GBVM$trigger_202_interact$e44308   trigger_202_interact
     003D770D  _trigger_203_interact              trigger_203_interact
     003D770E  GBVM$trigger_203_interact$03dea4   trigger_203_interact
     003D7719  GBVM$trigger_203_interact$fbffcb   trigger_203_interact
     003D7723  _trigger_21_interact               trigger_21_interact
     003D7726  GBVM$trigger_21_interact$ace5f8b   trigger_21_interact
     003D7759  _trigger_22_interact               trigger_22_interact
     003D775C  GBVM$trigger_22_interact$4145b2a   trigger_22_interact
     003D775C  GBVM$trigger_22_interact$9d57b26   trigger_22_interact
     003D777A  GBVM$trigger_22_interact$c1023c0   trigger_22_interact
     003D777A  GBVM_END$trigger_22_interact$9d5   trigger_22_interact
     003D77B1  _trigger_224_interact              trigger_224_interact
     003D77B4  GBVM$trigger_224_interact$63d6db   trigger_224_interact
     003D77E7  _trigger_227_interact              trigger_227_interact
     003D77E8  GBVM$trigger_227_interact$01ae89   trigger_227_interact
     003D77F3  GBVM$trigger_227_interact$bc86bf   trigger_227_interact
     003D77FD  _trigger_228_interact              trigger_228_interact
     003D7800  GBVM$trigger_228_interact$c14bb7   trigger_228_interact
     003D7833  _trigger_229_interact              trigger_229_interact
     003D7836  GBVM$trigger_229_interact$3e31cd   trigger_229_interact
     003D7869  _trigger_231_interact              trigger_231_interact
     003D786A  GBVM$trigger_231_interact$02907c   trigger_231_interact
     003D7875  GBVM$trigger_231_interact$3ac004   trigger_231_interact
     003D787F  _trigger_232_interact              trigger_232_interact
     003D7880  GBVM$trigger_232_interact$3797e4   trigger_232_interact
     003D788B  GBVM$trigger_232_interact$3ce20c   trigger_232_interact
     003D7895  _trigger_233_interact              trigger_233_interact
     003D7898  GBVM$trigger_233_interact$7d697a   trigger_233_interact
     003D78CB  _trigger_24_interact               trigger_24_interact
     003D78DF  GBVM$trigger_24_interact$0c3cf82   trigger_24_interact
     003D78E7  GBVM_END$trigger_24_interact$0c3   trigger_24_interact
     003D78F9  GBVM$trigger_24_interact$5eabd6d   trigger_24_interact
     003D78FB  GBVM$trigger_24_interact$3d12aad   trigger_24_interact
     003D7901  _trigger_25_interact               trigger_25_interact
     003D7915  GBVM$trigger_25_interact$28b5ec3   trigger_25_interact
     003D791D  GBVM_END$trigger_25_interact$28b   trigger_25_interact
     003D792F  GBVM$trigger_25_interact$f81bafa   trigger_25_interact
ASxxxx Linker V03.00/V05.40 + sdld,  page 96.
Hexadecimal  [32-Bits]

Area                                    Addr        Size        Decimal Bytes (Attributes)
--------------------------------        ----        ----        ------- ----- ------------
_CODE_61                            003D4000    00003FFF =       16383. bytes (REL,CON)

      Value  Global                              Global Defined In Module
      -----  --------------------------------   ------------------------
     003D7931  GBVM$trigger_25_interact$cee7597   trigger_25_interact
     003D7937  _trigger_26_interact               trigger_26_interact
     003D794B  GBVM$trigger_26_interact$5d409bf   trigger_26_interact
     003D7953  GBVM_END$trigger_26_interact$5d4   trigger_26_interact
     003D7965  GBVM$trigger_26_interact$a06e78f   trigger_26_interact
     003D7967  GBVM$trigger_26_interact$f1c983b   trigger_26_interact
     003D796D  _trigger_27_interact               trigger_27_interact
     003D7981  GBVM$trigger_27_interact$c1f4af0   trigger_27_interact
     003D7989  GBVM_END$trigger_27_interact$c1f   trigger_27_interact
     003D799B  GBVM$trigger_27_interact$98476c2   trigger_27_interact
     003D799D  GBVM$trigger_27_interact$4243e4b   trigger_27_interact
     003D79A3  _trigger_28_interact               trigger_28_interact
     003D79B7  GBVM$trigger_28_interact$da70479   trigger_28_interact
     003D79BF  GBVM_END$trigger_28_interact$da7   trigger_28_interact
     003D79D1  GBVM$trigger_28_interact$bfe023b   trigger_28_interact
     003D79D3  GBVM$trigger_28_interact$a0d853c   trigger_28_interact
     003D79D9  _trigger_29_interact               trigger_29_interact
     003D79ED  GBVM$trigger_29_interact$285ff0f   trigger_29_interact
     003D79F5  GBVM_END$trigger_29_interact$285   trigger_29_interact
     003D7A07  GBVM$trigger_29_interact$3750c23   trigger_29_interact
     003D7A09  GBVM$trigger_29_interact$956acd2   trigger_29_interact
     003D7A0F  _trigger_30_interact               trigger_30_interact
     003D7A23  GBVM$trigger_30_interact$167d9b4   trigger_30_interact
     003D7A2B  GBVM_END$trigger_30_interact$167   trigger_30_interact
     003D7A3D  GBVM$trigger_30_interact$c2b79eb   trigger_30_interact
     003D7A3F  GBVM$trigger_30_interact$d31c033   trigger_30_interact
     003D7A45  _trigger_31_interact               trigger_31_interact
     003D7A59  GBVM$trigger_31_interact$e8a53c0   trigger_31_interact
     003D7A61  GBVM_END$trigger_31_interact$e8a   trigger_31_interact
     003D7A73  GBVM$trigger_31_interact$8d91531   trigger_31_interact
     003D7A75  GBVM$trigger_31_interact$1883586   trigger_31_interact
     003D7A7B  _trigger_32_interact               trigger_32_interact
     003D7A8F  GBVM$trigger_32_interact$a47c98c   trigger_32_interact
     003D7A97  GBVM_END$trigger_32_interact$a47   trigger_32_interact
     003D7AA9  GBVM$trigger_32_interact$e2e7873   trigger_32_interact
     003D7AAB  GBVM$trigger_32_interact$a1fcd86   trigger_32_interact
     003D7AB1  _trigger_33_interact               trigger_33_interact
     003D7AC5  GBVM$trigger_33_interact$1929d84   trigger_33_interact
     003D7ACD  GBVM_END$trigger_33_interact$192   trigger_33_interact
     003D7ADF  GBVM$trigger_33_interact$f182773   trigger_33_interact
     003D7AE1  GBVM$trigger_33_interact$69942d1   trigger_33_interact
     003D7AE7  _trigger_34_interact               trigger_34_interact
     003D7AFB  GBVM$trigger_34_interact$18f8c99   trigger_34_interact
     003D7B03  GBVM_END$trigger_34_interact$18f   trigger_34_interact
     003D7B15  GBVM$trigger_34_interact$179670b   trigger_34_interact
     003D7B17  GBVM$trigger_34_interact$660f36b   trigger_34_interact
     003D7B1D  _trigger_35_interact               trigger_35_interact
     003D7B31  GBVM$trigger_35_interact$b51e7b0   trigger_35_interact
     003D7B39  GBVM_END$trigger_35_interact$b51   trigger_35_interact
     003D7B4B  GBVM$trigger_35_interact$9605780   trigger_35_interact
     003D7B4D  GBVM$trigger_35_interact$51511e8   trigger_35_interact
ASxxxx Linker V03.00/V05.40 + sdld,  page 97.
Hexadecimal  [32-Bits]

Area                                    Addr        Size        Decimal Bytes (Attributes)
--------------------------------        ----        ----        ------- ----- ------------
_CODE_61                            003D4000    00003FFF =       16383. bytes (REL,CON)

      Value  Global                              Global Defined In Module
      -----  --------------------------------   ------------------------
     003D7B53  _trigger_36_interact               trigger_36_interact
     003D7B67  GBVM$trigger_36_interact$c4cf567   trigger_36_interact
     003D7B6F  GBVM_END$trigger_36_interact$c4c   trigger_36_interact
     003D7B81  GBVM$trigger_36_interact$6138956   trigger_36_interact
     003D7B83  GBVM$trigger_36_interact$3e7e0ee   trigger_36_interact
     003D7B89  _trigger_37_interact               trigger_37_interact
     003D7B9D  GBVM$trigger_37_interact$ade8be3   trigger_37_interact
     003D7BA5  GBVM_END$trigger_37_interact$ade   trigger_37_interact
     003D7BB7  GBVM$trigger_37_interact$6197838   trigger_37_interact
     003D7BB9  GBVM$trigger_37_interact$2bcfa5e   trigger_37_interact
     003D7BBF  _trigger_39_interact               trigger_39_interact
     003D7BD3  GBVM$trigger_39_interact$85c0da0   trigger_39_interact
     003D7BDB  GBVM_END$trigger_39_interact$85c   trigger_39_interact
     003D7BED  GBVM$trigger_39_interact$c06f0d8   trigger_39_interact
     003D7BEF  GBVM$trigger_39_interact$9c70c3b   trigger_39_interact
     003D7BF5  _trigger_40_interact               trigger_40_interact
     003D7BF8  GBVM$trigger_40_interact$27dbccb   trigger_40_interact
     003D7BF8  GBVM$trigger_40_interact$7097b27   trigger_40_interact
     003D7C16  GBVM$trigger_40_interact$ae3c749   trigger_40_interact
     003D7C16  GBVM_END$trigger_40_interact$709   trigger_40_interact
     003D7C4D  _trigger_41_interact               trigger_41_interact
     003D7C50  GBVM$trigger_41_interact$61e4a55   trigger_41_interact
     003D7C7E  GBVM$trigger_41_interact$230a652   trigger_41_interact
     003D7C8A  GBVM$trigger_41_interact$0725c0f   trigger_41_interact
     003D7C96  GBVM$trigger_41_interact$34629ce   trigger_41_interact
     003D7C9B  _trigger_43_interact               trigger_43_interact
     003D7C9E  GBVM$trigger_43_interact$fe4b5a8   trigger_43_interact
     003D7CCC  GBVM$trigger_43_interact$1fe5e0b   trigger_43_interact
     003D7CD8  GBVM$trigger_43_interact$5e04341   trigger_43_interact
     003D7CE4  GBVM$trigger_43_interact$b65c145   trigger_43_interact
     003D7CE9  _trigger_44_interact               trigger_44_interact
     003D7CEC  GBVM$trigger_44_interact$b84b598   trigger_44_interact
     003D7D1A  GBVM$trigger_44_interact$fe09012   trigger_44_interact
     003D7D26  GBVM$trigger_44_interact$ad4c2ad   trigger_44_interact
     003D7D32  GBVM$trigger_44_interact$253389b   trigger_44_interact
     003D7D37  _trigger_46_interact               trigger_46_interact
     003D7D4B  GBVM$trigger_46_interact$4318090   trigger_46_interact
     003D7D53  GBVM_END$trigger_46_interact$431   trigger_46_interact
     003D7D65  GBVM$trigger_46_interact$235cca7   trigger_46_interact
     003D7D67  GBVM$trigger_46_interact$2b2ae4c   trigger_46_interact
     003D7D6D  _trigger_47_interact               trigger_47_interact
     003D7D70  GBVM$trigger_47_interact$fc6090f   trigger_47_interact
     003D7DA3  _trigger_48_interact               trigger_48_interact
     003D7DA6  GBVM$trigger_48_interact$c2fc9c1   trigger_48_interact
     003D7DD9  _trigger_5_interact                trigger_5_interact
     003D7DDC  GBVM$trigger_5_interact$979e71fa   trigger_5_interact
     003D7DFA  GBVM$trigger_5_interact$25687fb5   trigger_5_interact
     003D7E31  _trigger_68_interact               trigger_68_interact
     003D7E34  GBVM$trigger_68_interact$4d70cfa   trigger_68_interact
     003D7E34  GBVM$trigger_68_interact$ebaaf36   trigger_68_interact
     003D7E52  GBVM$trigger_68_interact$b620b0b   trigger_68_interact
ASxxxx Linker V03.00/V05.40 + sdld,  page 98.
Hexadecimal  [32-Bits]

Area                                    Addr        Size        Decimal Bytes (Attributes)
--------------------------------        ----        ----        ------- ----- ------------
_CODE_61                            003D4000    00003FFF =       16383. bytes (REL,CON)

      Value  Global                              Global Defined In Module
      -----  --------------------------------   ------------------------
     003D7E52  GBVM_END$trigger_68_interact$4d7   trigger_68_interact
     003D7E89  _trigger_70_interact               trigger_70_interact
     003D7E8A  GBVM$trigger_70_interact$f14fabc   trigger_70_interact
     003D7E95  GBVM$trigger_70_interact$f559193   trigger_70_interact
     003D7E9F  _trigger_71_interact               trigger_71_interact
     003D7EA0  GBVM$trigger_71_interact$14eb71b   trigger_71_interact
     003D7EAB  GBVM$trigger_71_interact$6bde866   trigger_71_interact
     003D7EB5  _trigger_72_interact               trigger_72_interact
     003D7EB6  GBVM$trigger_72_interact$2ea158b   trigger_72_interact
     003D7EC1  GBVM$trigger_72_interact$5d80ad7   trigger_72_interact
     003D7ECB  _trigger_8_interact                trigger_8_interact
     003D7ECE  GBVM$trigger_8_interact$740f77d4   trigger_8_interact
     003D7EEC  GBVM$trigger_8_interact$9a53c48a   trigger_8_interact
     003D7F23  _trigger_80_interact               trigger_80_interact
     003D7F26  GBVM$trigger_80_interact$5b18c4b   trigger_80_interact
     003D7F26  GBVM$trigger_80_interact$cd2d7fa   trigger_80_interact
     003D7F44  GBVM$trigger_80_interact$6a9d2ad   trigger_80_interact
     003D7F44  GBVM_END$trigger_80_interact$cd2   trigger_80_interact
     003D7F7B  _trigger_82_interact               trigger_82_interact
     003D7F7C  GBVM$trigger_82_interact$a76ec68   trigger_82_interact
     003D7F87  GBVM$trigger_82_interact$0ec5113   trigger_82_interact
     003D7F91  _trigger_83_interact               trigger_83_interact
     003D7F92  GBVM$trigger_83_interact$c01e2c3   trigger_83_interact
     003D7F9D  GBVM$trigger_83_interact$7f7fabc   trigger_83_interact
     003D7FA7  _trigger_84_interact               trigger_84_interact
     003D7FA8  GBVM$trigger_84_interact$ab8db92   trigger_84_interact
     003D7FB3  GBVM$trigger_84_interact$60d8b61   trigger_84_interact
     003D7FBD  _trigger_85_interact               trigger_85_interact
     003D7FBE  GBVM$trigger_85_interact$a590859   trigger_85_interact
     003D7FC9  GBVM$trigger_85_interact$74851fc   trigger_85_interact
     003D7FD3  _trigger_86_interact               trigger_86_interact
     003D7FD4  GBVM$trigger_86_interact$e736fb5   trigger_86_interact
     003D7FDF  GBVM$trigger_86_interact$5d1b0b4   trigger_86_interact
     003D7FE9  _trigger_87_interact               trigger_87_interact
     003D7FEA  GBVM$trigger_87_interact$eb9447d   trigger_87_interact
     003D7FF5  GBVM$trigger_87_interact$4156f67   trigger_87_interact

ASxxxx Linker V03.00/V05.40 + sdld,  page 99.
Hexadecimal  [32-Bits]

Area                                    Addr        Size        Decimal Bytes (Attributes)
--------------------------------        ----        ----        ------- ----- ------------
_CODE_57                            00394000    00004000 =       16384. bytes (REL,CON)

      Value  Global                              Global Defined In Module
      -----  --------------------------------   ------------------------
     00394000  _core_reset                        core
     00394075  _process_VM                        core
     003942F3  _core_run                          core
     00394417  ___HandleCrash_banked              
     0039477F  _remove_LCD_ISRs                   interrupts
     0039479A  _data_init                         load_save
     003947E5  _save_points                       load_save
     00394845  _data_slot_address                 load_save
     003948BD  _data_save                         load_save
     0039497E  _data_load                         load_save
     00394A92  _data_clear                        load_save
     00394ABF  _data_peek                         load_save
     00394B60  _trigger_reset                     trigger
     00394B70  _trigger_interact                  trigger
     00394BAF  _trigger_activate_at               trigger
     00394BFA  _trigger_at_intersection           trigger
     00394D21  _trigger_activate_at_intersectio   trigger
     00394E62  _trigger_at_tile                   trigger
     00394EF3  ___func_VM_CAMERA                  vm_camera
     00394EF3  _vm_camera_move_to                 vm_camera
     00395146  _vm_camera_set_pos                 vm_camera
     0039518D  _camera_shake_frames               vm_camera
     003952BC  ___func_bg_blight_s_memory_p1_ti   bg_blight_s_memory_p1_tilema
     003952BC  _bg_blight_s_memory_p1_tilemap_a   bg_blight_s_memory_p1_tilema
     003956F4  ___func_bg_blight_s_memory_p1_ti   bg_blight_s_memory_p1_tilema
     003956F4  _bg_blight_s_memory_p1_tilemap     bg_blight_s_memory_p1_tilema
     00395B2C  ___func_bg_earth_burnclaw_forest   bg_earth_burnclaw_forest_ca_
     00395B2C  _bg_earth_burnclaw_forest_ca_til   bg_earth_burnclaw_forest_ca_
     00395F2E  ___func_bg_earth_shuttle_bay_sec   bg_earth_shuttle_bay_secret_
     00395F2E  _bg_earth_shuttle_bay_secret_til   bg_earth_shuttle_bay_secret_
     00396260  ___func_bg_earth_shuttle_bay_upp   bg_earth_shuttle_bay_upper_t
     00396260  _bg_earth_shuttle_bay_upper_tile   bg_earth_shuttle_bay_upper_t
     003966B2  ___func_bg_luna_serenity_cave_lo   bg_luna_serenity_cave_lower_
     003966B2  _bg_luna_serenity_cave_lower_til   bg_luna_serenity_cave_lower_
     003969E4  ___func_bg_platformer_test01_til   bg_platformer_test01_tileset
     003969E4  _bg_platformer_test01_tileset      bg_platformer_test01_tileset
     00396E46  ___func_bg_venus_dropshaft_1_til   bg_venus_dropshaft_1_tileset
     00396E46  _bg_venus_dropshaft_1_tileset      bg_venus_dropshaft_1_tileset
     00397268  ___func_bg_venus_evidence_room_t   bg_venus_evidence_room_tiles
     00397268  _bg_venus_evidence_room_tileset    bg_venus_evidence_room_tiles
     003975BA  _scene_31_init                     scene_31_init
     003975BD  GBVM$scene_31_init$eb6a499a_887d   scene_31_init
     003975C1  GBVM$scene_31_init$autofade$f0f4   scene_31_init
     003975CC  GBVM$scene_31_init$910df9aa_693b   scene_31_init
     003975CC  GBVM$scene_31_init$c59937d8_945b   scene_31_init
     003975D1  GBVM$scene_31_init$67b2631f_1e5d   scene_31_init
     003975D8  GBVM$scene_31_init$1dcd6d0f_49d2   scene_31_init
     003975DC  GBVM$scene_31_init$b7e37aa1_d65b   scene_31_init
     003975F0  GBVM$scene_31_init$2cda69e5_d258   scene_31_init
     003975F8  GBVM$scene_31_init$e6ec657e_3663   scene_31_init
ASxxxx Linker V03.00/V05.40 + sdld,  page 100.
Hexadecimal  [32-Bits]

Area                                    Addr        Size        Decimal Bytes (Attributes)
--------------------------------        ----        ----        ------- ----- ------------
_CODE_57                            00394000    00004000 =       16384. bytes (REL,CON)

      Value  Global                              Global Defined In Module
      -----  --------------------------------   ------------------------
     003975F8  GBVM_END$scene_31_init$2cda69e5_   scene_31_init
     003975F8  GBVM_END$scene_31_init$910df9aa_   scene_31_init
     0039760A  GBVM$scene_31_init$592f26d2_948a   scene_31_init
     00397615  GBVM$scene_31_init$df0d7ee9_cabc   scene_31_init
     00397695  GBVM$scene_31_init$0510a0f6_0148   scene_31_init
     003976A0  GBVM$scene_31_init$e824a7aa_6fd2   scene_31_init
     003977E7  GBVM$scene_31_init$cd982c9c_ef65   scene_31_init
     003977F2  GBVM$scene_31_init$4c0993ee_ac8f   scene_31_init
     003978CB  GBVM$scene_31_init$82d8863b_809a   scene_31_init
     003978D6  GBVM$scene_31_init$601caa21_68ba   scene_31_init
     00397970  GBVM$scene_31_init$7cf89df5_7759   scene_31_init
     0039797F  GBVM$scene_31_init$8765c438_55de   scene_31_init
     0039797F  GBVM$scene_31_init$ea6b95c6_ee0a   scene_31_init
     0039797F  GBVM_END$scene_31_init$e6ec657e_   scene_31_init
     00397984  GBVM$scene_31_init$a6b832ae_80de   scene_31_init
     0039798B  GBVM$scene_31_init$54bce406_e944   scene_31_init
     0039798F  GBVM$scene_31_init$782ac1e5_b323   scene_31_init
     003979A3  GBVM$scene_31_init$be096309_c06e   scene_31_init
     003979AB  GBVM_END$scene_31_init$8765c438_   scene_31_init
     003979AB  GBVM_END$scene_31_init$be096309_   scene_31_init
     003979AC  ___func_scene_40_collisions        scene_40_collisions
     003979AC  _scene_40_collisions               scene_40_collisions
     00397DE4  _scene_43_init                     scene_43_init
     00397DE7  GBVM$scene_43_init$bbe52c12_3d0d   scene_43_init
     00397DFC  GBVM$scene_43_init$0d42461b_efe9   scene_43_init
     00397E04  GBVM$scene_43_init$0ac43e83_bdcd   scene_43_init
     00397E04  GBVM_END$scene_43_init$bbe52c12_   scene_43_init
     00397E19  GBVM$scene_43_init$cbf176e8_5886   scene_43_init
     00397E21  GBVM$scene_43_init$9a9eb443_f5f3   scene_43_init
     00397E21  GBVM_END$scene_43_init$0ac43e83_   scene_43_init
     00397E36  GBVM$scene_43_init$0dd6de36_6584   scene_43_init
     00397E3E  GBVM$scene_43_init$95f9c3cb_2ac8   scene_43_init
     00397E3E  GBVM_END$scene_43_init$9a9eb443_   scene_43_init
     00397E53  GBVM$scene_43_init$94984137_1844   scene_43_init
     00397E5B  GBVM$scene_43_init$f9336bc6_8014   scene_43_init
     00397E5B  GBVM_END$scene_43_init$95f9c3cb_   scene_43_init
     00397E70  GBVM$scene_43_init$4b59c2b9_cdd6   scene_43_init
     00397E78  GBVM$scene_43_init$a020e641_aebe   scene_43_init
     00397E78  GBVM_END$scene_43_init$f9336bc6_   scene_43_init
     00397E8D  GBVM$scene_43_init$000747d6_3a86   scene_43_init
     00397E95  GBVM$scene_43_init$14e63d39_8971   scene_43_init
     00397E95  GBVM_END$scene_43_init$a020e641_   scene_43_init
     00397EAA  GBVM$scene_43_init$bf4f4661_b6cb   scene_43_init
     00397EB2  GBVM$scene_43_init$autofade$289a   scene_43_init
     00397EB2  GBVM_END$scene_43_init$14e63d39_   scene_43_init
     00397EBD  GBVM$scene_43_init$504d782d_bdbb   scene_43_init
     00397ECF  GBVM$scene_43_init$47171eb4_9246   scene_43_init
     00397EDA  GBVM$scene_43_init$e13bb648_282e   scene_43_init
     00397FB9  GBVM$scene_43_init$c22b1806_f426   scene_43_init
     00397FC4  GBVM$scene_43_init$cfa373e4_4d4b   scene_43_init
     00397FD3  GBVM$scene_43_init$7210d992_1ca0   scene_43_init
ASxxxx Linker V03.00/V05.40 + sdld,  page 101.
Hexadecimal  [32-Bits]

Area                                    Addr        Size        Decimal Bytes (Attributes)
--------------------------------        ----        ----        ------- ----- ------------
_CODE_57                            00394000    00004000 =       16384. bytes (REL,CON)

      Value  Global                              Global Defined In Module
      -----  --------------------------------   ------------------------
     00397FD3  GBVM$scene_43_init$7211c378_19f5   scene_43_init
     00397FD3  GBVM_END$scene_43_init$504d782d_   scene_43_init
     00397FD8  GBVM$scene_43_init$ef3f75fd_26b3   scene_43_init
     00397FDF  GBVM$scene_43_init$ac839592_5624   scene_43_init
     00397FE3  GBVM$scene_43_init$dd3ebfb8_f240   scene_43_init
     00397FF7  GBVM$scene_43_init$dc6f8276_600c   scene_43_init
     00397FFF  GBVM_END$scene_43_init$7210d992_   scene_43_init
     00397FFF  GBVM_END$scene_43_init$dc6f8276_   scene_43_init

ASxxxx Linker V03.00/V05.40 + sdld,  page 102.
Hexadecimal  [32-Bits]

Area                                    Addr        Size        Decimal Bytes (Attributes)
--------------------------------        ----        ----        ------- ----- ------------
_CRASH_HEADER0                      00000000    00000005 =           5. bytes (ABS,CON)

      Value  Global                              Global Defined In Module
      -----  --------------------------------   ------------------------
ASxxxx Linker V03.00/V05.40 + sdld,  page 103.
Hexadecimal  [32-Bits]

Area                                    Addr        Size        Decimal Bytes (Attributes)
--------------------------------        ----        ----        ------- ----- ------------
_CRASH_HEADER1                      00000000    00000004 =           4. bytes (ABS,CON)

      Value  Global                              Global Defined In Module
      -----  --------------------------------   ------------------------
ASxxxx Linker V03.00/V05.40 + sdld,  page 104.
Hexadecimal  [32-Bits]

Area                                    Addr        Size        Decimal Bytes (Attributes)
--------------------------------        ----        ----        ------- ----- ------------
_CRASH_SCRATCH2                     00000000    000001CB =         459. bytes (ABS,CON)

      Value  Global                              Global Defined In Module
      -----  --------------------------------   ------------------------
ASxxxx Linker V03.00/V05.40 + sdld,  page 105.
Hexadecimal  [32-Bits]

Area                                    Addr        Size        Decimal Bytes (Attributes)
--------------------------------        ----        ----        ------- ----- ------------
_CODE_52                            00344000    00004000 =       16384. bytes (REL,CON)

      Value  Global                              Global Defined In Module
      -----  --------------------------------   ------------------------
     00344000  _load_init                         data_manager
     00344013  _spritesheet_none_far              data_manager
     00344016  _load_bkg_tileset                  data_manager
     003440F3  _load_background                   data_manager
     003441B9  _load_sprite                       data_manager
     0034428F  _load_bounds                       data_manager
     003442AC  _do_load_palette                   data_manager
     00344331  _load_scene                        data_manager
     003449BD  _load_player                       data_manager
     00344A06  _load_emote                        data_manager
     00344A1F  ___func_bg_earth_distortion_moun   bg_earth_distortion_mountai_
     00344A1F  _bg_earth_distortion_mountai_til   bg_earth_distortion_mountai_
     00345501  ___func_bg_luna_serenity_forest_   bg_luna_serenity_forest_tile
     00345501  _bg_luna_serenity_forest_tileset   bg_luna_serenity_forest_tile
     00345EC3  ___func_bg_mercury_throne_room_t   bg_mercury_throne_room_tiles
     00345EC3  _bg_mercury_throne_room_tileset    bg_mercury_throne_room_tiles
     003468B5  ___func_bg_mercury_viewing_area_   bg_mercury_viewing_area_tile
     003468B5  _bg_mercury_viewing_area_tileset   bg_mercury_viewing_area_tile
     00347477  _scene_28_init                     scene_28_init
     0034747A  GBVM$scene_28_init$autofade$5c97   scene_28_init
     00347485  GBVM$scene_28_init$4453fe7e_eac1   scene_28_init
     00347497  GBVM$scene_28_init$cb37b8d6_0908   scene_28_init
     003474AC  GBVM$scene_28_init$b4ac85be_ca4c   scene_28_init
     003474B7  GBVM$scene_28_init$466104a3_fbb3   scene_28_init
     003474C2  GBVM$scene_28_init$d0c4c94d_988a   scene_28_init
     003474CE  GBVM$scene_28_init$51f172cd_d077   scene_28_init
     0034750E  GBVM$scene_28_init$143a03d9_0b3f   scene_28_init
     00347519  GBVM$scene_28_init$a7c46fe8_83e8   scene_28_init
     00347524  GBVM$scene_28_init$c4b5bf58_f843   scene_28_init
     003475B1  GBVM$scene_28_init$0580068f_a1f4   scene_28_init
     003475BC  GBVM$scene_28_init$a117d620_8d5d   scene_28_init
     00347621  GBVM$scene_28_init$13f21aa7_02d0   scene_28_init
     0034762E  GBVM$scene_28_init$30508f02_5d43   scene_28_init
     0034763A  GBVM$scene_28_init$4b7ab7be_3879   scene_28_init
     0034763E  GBVM$scene_28_init$4583e121_7697   scene_28_init
     00347646  GBVM_END$scene_28_init$4583e121_   scene_28_init
     00347649  GBVM$scene_28_init$e68e57e5_db1c   scene_28_init
     00347692  GBVM$scene_28_init$b5fef343_234e   scene_28_init
     0034769D  GBVM$scene_28_init$6c43ae2e_ffa1   scene_28_init
     003476D9  GBVM$scene_28_init$2a4afdcf_0b5a   scene_28_init
     003476F7  GBVM$scene_28_init$edd680ae_4a08   scene_28_init
     00347722  GBVM$scene_28_init$8d375543_42af   scene_28_init
     00347722  GBVM$scene_28_init$e2a447b2_ba1c   scene_28_init
     00347727  GBVM$scene_28_init$6a20d169_5c79   scene_28_init
     00347732  GBVM$scene_28_init$d2c6a574_07bb   scene_28_init
     0034773D  GBVM$scene_28_init$c46964fd_ea1d   scene_28_init
     00347742  GBVM$scene_28_init$32b40e73_8bcb   scene_28_init
     00347751  GBVM$scene_28_init$11306fef_18af   scene_28_init
     0034775C  GBVM$scene_28_init$35f31524_798c   scene_28_init
     003477AE  GBVM$scene_28_init$6f19341b_71e1   scene_28_init
ASxxxx Linker V03.00/V05.40 + sdld,  page 106.
Hexadecimal  [32-Bits]

Area                                    Addr        Size        Decimal Bytes (Attributes)
--------------------------------        ----        ----        ------- ----- ------------
_CODE_52                            00344000    00004000 =       16384. bytes (REL,CON)

      Value  Global                              Global Defined In Module
      -----  --------------------------------   ------------------------
     003477B9  GBVM$scene_28_init$707e9021_3444   scene_28_init
     00347838  GBVM$scene_28_init$07b4694d_d6db   scene_28_init
     00347843  GBVM$scene_28_init$c437f5e3_fce6   scene_28_init
     00347893  GBVM$scene_28_init$d6ff4654_d6a0   scene_28_init
     003478A0  GBVM$scene_28_init$f73eda2b_2918   scene_28_init
     003478AB  GBVM$scene_28_init$5bcb2823_dded   scene_28_init
     00347928  GBVM$scene_28_init$5bdaa3c0_dab7   scene_28_init
     00347933  GBVM$scene_28_init$45de8c66_dd66   scene_28_init
     00347985  GBVM$scene_28_init$0192c78e_9991   scene_28_init
     00347990  GBVM$scene_28_init$0ab84f62_d1a6   scene_28_init
     003479CF  GBVM$scene_28_init$bbf5bf7f_d945   scene_28_init
     003479DA  GBVM$scene_28_init$b608dd38_3a78   scene_28_init
     003479E5  GBVM$scene_28_init$fe0e12cf_5649   scene_28_init
     00347A35  GBVM$scene_28_init$a1697edb_9332   scene_28_init
     00347A3A  GBVM$scene_28_init$c0d63c7e_3143   scene_28_init
     00347A3F  GBVM$scene_28_init$67adc82e_cdb1   scene_28_init
     00347A4E  GBVM$scene_28_init$78627b8d_eb25   scene_28_init
     00347A59  GBVM$scene_28_init$bf327fb8_1b2e   scene_28_init
     00347B24  GBVM$scene_28_init$ebbb5649_5c70   scene_28_init
     00347B2F  GBVM$scene_28_init$0640be1f_7a09   scene_28_init
     00347B6B  GBVM$scene_28_init$b1391135_022a   scene_28_init
     00347B7D  GBVM$scene_28_init$01b858d7_00f0   scene_28_init
     00347B8C  GBVM$scene_28_init$c42050fd_f45c   scene_28_init
     00347BCF  GBVM$scene_28_init$f5adaac7_b125   scene_28_init
     00347BCF  GBVM_END$scene_28_init$b1391135_   scene_28_init
     00347BD4  GBVM$scene_28_init$6e5e8be9_3b92   scene_28_init
     00347BDF  GBVM$scene_28_init$7fec4487_5b1a   scene_28_init
     00347BEA  GBVM$scene_28_init$b8e5c2c6_429c   scene_28_init
     00347BF5  GBVM$scene_28_init$9504fddb_c8c3   scene_28_init
     00347C7F  GBVM$scene_28_init$a90bc139_0152   scene_28_init
     00347C84  GBVM$scene_28_init$0a0db7dc_ad27   scene_28_init
     00347C93  GBVM$scene_28_init$c2169b05_7511   scene_28_init
     00347C9E  GBVM$scene_28_init$9ad28066_27fb   scene_28_init
     00347D07  GBVM$scene_28_init$405abc7e_e912   scene_28_init
     00347D12  GBVM$scene_28_init$42b3b2d6_3b8a   scene_28_init
     00347D66  GBVM$scene_28_init$9c164ed6_c735   scene_28_init
     00347D71  GBVM$scene_28_init$18a36f12_4a2c   scene_28_init
     00347DBF  GBVM$scene_28_init$97b51a4b_72cf   scene_28_init
     00347DCA  GBVM$scene_28_init$3ddce9f5_a653   scene_28_init
     00347DD5  GBVM$scene_28_init$176afa23_ae46   scene_28_init
     00347DDA  GBVM$scene_28_init$fc631b50_9ad8   scene_28_init
     00347DDF  GBVM$scene_28_init$224172a8_eab2   scene_28_init
     00347DEE  GBVM_END$scene_28_init$d6ff4654_   scene_28_init
     00347DF1  GBVM_END$scene_28_init$13f21aa7_   scene_28_init
     00347DF1  GBVM_END$scene_28_init$cb37b8d6_   scene_28_init
     00347DF4  GBVM$scene_28_init$2e84f888_3c29   scene_28_init
     00347E06  GBVM$scene_28_init$56677d52_031b   scene_28_init
     00347E11  GBVM$scene_28_init$47018be1_260d   scene_28_init
     00347E62  GBVM$scene_28_init$723b42b1_6e50   scene_28_init
     00347E6D  GBVM$scene_28_init$ddef7b2f_02a9   scene_28_init
     00347EFC  GBVM$scene_28_init$7acc6362_d40b   scene_28_init
ASxxxx Linker V03.00/V05.40 + sdld,  page 107.
Hexadecimal  [32-Bits]

Area                                    Addr        Size        Decimal Bytes (Attributes)
--------------------------------        ----        ----        ------- ----- ------------
_CODE_52                            00344000    00004000 =       16384. bytes (REL,CON)

      Value  Global                              Global Defined In Module
      -----  --------------------------------   ------------------------
     00347F07  GBVM$scene_28_init$820e651b_9ae2   scene_28_init
     00347F58  GBVM$scene_28_init$a74fd93e_f98f   scene_28_init
     00347F64  GBVM$scene_28_init$5d6fb4cc_dca4   scene_28_init
     00347F6B  GBVM$scene_28_init$dffe584d_c825   scene_28_init
     00347F6B  GBVM_END$scene_28_init$2e84f888_   scene_28_init
     00347F73  GBVM$scene_28_init$c3a63284_3f5c   scene_28_init
     00347F73  GBVM$scene_28_init$ff73beab_8651   scene_28_init
     00347F73  GBVM_END$scene_28_init$4453fe7e_   scene_28_init
     00347F73  GBVM_END$scene_28_init$dffe584d_   scene_28_init
     00347F78  GBVM$scene_28_init$f984863e_a517   scene_28_init
     00347F7F  GBVM$scene_28_init$f068123f_4a00   scene_28_init
     00347F83  GBVM$scene_28_init$bf7293d7_1072   scene_28_init
     00347F97  GBVM$scene_28_init$3237a1a6_84ee   scene_28_init
     00347FAB  GBVM$scene_28_init$99f43948_36e5   scene_28_init
     00347FB3  GBVM$scene_28_init$d3df46c8_adc3   scene_28_init
     00347FB3  GBVM_END$scene_28_init$99f43948_   scene_28_init
     00347FB3  GBVM_END$scene_28_init$ff73beab_   scene_28_init
     00347FB8  GBVM$scene_28_init$9437cd75_f042   scene_28_init
     00347FB8  GBVM$scene_28_init$bd12aeea_3b0c   scene_28_init
     00347FBD  GBVM$scene_28_init$3277bb27_3c75   scene_28_init
     00347FC4  GBVM$scene_28_init$f3d83c5d_75a0   scene_28_init
     00347FC8  GBVM$scene_28_init$7ddf6923_3490   scene_28_init
     00347FDC  GBVM$scene_28_init$204914b3_1e8d   scene_28_init
     00347FF0  GBVM$scene_28_init$882750b0_372b   scene_28_init
     00347FF8  GBVM_END$scene_28_init$882750b0_   scene_28_init
     00347FF8  GBVM_END$scene_28_init$bd12aeea_   scene_28_init
     00347FF9  _trigger_181_interact              trigger_181_interact
     00347FFA  GBVM$trigger_181_interact$51e477   trigger_181_interact
ASxxxx Linker V03.00/V05.40 + sdld,  page 108.
Hexadecimal  [32-Bits]

Area                                    Addr        Size        Decimal Bytes (Attributes)
--------------------------------        ----        ----        ------- ----- ------------
_CODE_60                            003C4000    00004000 =       16384. bytes (REL,CON)

      Value  Global                              Global Defined In Module
      -----  --------------------------------   ------------------------
     003C4000  _events_init                       events
     003C4040  _timers_init                       events
     003C4080  _restore_sram_bank                 flasher
     003C40B6  _restore_sram                      flasher
     003C40CC  _save_sram                         flasher
     003C40F8  _music_init_driver                 music_manager
     003C4154  _music_init_events                 music_manager
     003C4190  _music_events_poll                 music_manager
     003C41B8  _music_pause                       music_manager
     003C41DA  ___func_VM_GBPRINTER               vm_gbprinter
     003C41DA  _vm_print_detect                   vm_gbprinter
     003C4229  _vm_print_overlay                  vm_gbprinter
     003C427E  ___func_VM_LOAD_SAVE               vm_load_save
     003C427E  _vm_save_clear                     vm_load_save
     003C428D  _vm_save_peek                      vm_load_save
     003C430F  ___func_VM_PROJECTILE              vm_projectiles
     003C430F  _vm_projectile_launch              vm_projectiles
     003C4350  _vm_projectile_load_type           vm_projectiles
     003C43E2  ___func_VM_RTC                     vm_rtc
     003C43E2  _vm_rtc_latch                      vm_rtc
     003C43EA  _vm_rtc_get                        vm_rtc
     003C4451  _vm_rtc_set                        vm_rtc
     003C44AF  _vm_rtc_start                      vm_rtc
     003C44D2  ___func_VM_SCENE                   vm_scene
     003C44D2  _vm_scene_push                     vm_scene
     003C4548  _vm_scene_pop                      vm_scene
     003C4556  _vm_scene_pop_all                  vm_scene
     003C4561  _vm_scene_stack_reset              vm_scene
     003C456A  _itoa_fmt                          vm_ui_a
     003C45A3  .utoa_fmt                          vm_ui_a
     003C464D  _actor_45_update                   actor_45_update
     003C464F  GBVM$actor_45_update$ecd8ea17_9d   actor_45_update
     003C465B  GBVM$actor_45_update$26d9b387_39   actor_45_update
     003C4679  GBVM$actor_45_update$fc62f710_e7   actor_45_update
     003C46B8  GBVM_END$actor_45_update$ecd8ea1   actor_45_update
     003C46BD  _actor_46_interact                 actor_46_interact
     003C46D0  GBVM$actor_46_interact$1ee2ee3f_   actor_46_interact
     003C46DB  GBVM$actor_46_interact$09551cfa_   actor_46_interact
     003C46E6  GBVM$actor_46_interact$4edeb108_   actor_46_interact
     003C4703  GBVM$actor_46_interact$02d3a06a_   actor_46_interact
     003C4720  GBVM$actor_46_interact$6df4548a_   actor_46_interact
     003C473D  GBVM$actor_46_interact$485e63b2_   actor_46_interact
     003C474A  _actor_60_interact                 actor_60_interact
     003C474D  GBVM$actor_60_interact$637ecd0a_   actor_60_interact
     003C4778  GBVM$actor_60_interact$ad34e6fd_   actor_60_interact
     003C478A  GBVM$actor_60_interact$3deff222_   actor_60_interact
     003C4796  GBVM$actor_60_interact$be8cad6e_   actor_60_interact
     003C47A8  GBVM$actor_60_interact$fae95200_   actor_60_interact
     003C47B4  GBVM$actor_60_interact$e0680948_   actor_60_interact
     003C47BB  GBVM$actor_60_interact$6c937618_   actor_60_interact
ASxxxx Linker V03.00/V05.40 + sdld,  page 109.
Hexadecimal  [32-Bits]

Area                                    Addr        Size        Decimal Bytes (Attributes)
--------------------------------        ----        ----        ------- ----- ------------
_CODE_60                            003C4000    00004000 =       16384. bytes (REL,CON)

      Value  Global                              Global Defined In Module
      -----  --------------------------------   ------------------------
     003C4801  GBVM$actor_60_interact$0fae0d43_   actor_60_interact
     003C4801  GBVM_END$actor_60_interact$be8ca   actor_60_interact
     003C480C  GBVM$actor_60_interact$9b5109b1_   actor_60_interact
     003C4814  GBVM$actor_60_interact$757e78f5_   actor_60_interact
     003C4814  GBVM$actor_60_interact$e46384ef_   actor_60_interact
     003C4814  GBVM_END$actor_60_interact$ad34e   actor_60_interact
     003C4819  GBVM$actor_60_interact$6fdf24c2_   actor_60_interact
     003C4820  GBVM$actor_60_interact$13611ef0_   actor_60_interact
     003C4824  GBVM$actor_60_interact$5e11cb56_   actor_60_interact
     003C4838  GBVM$actor_60_interact$45c90e75_   actor_60_interact
     003C4840  GBVM_END$actor_60_interact$45c90   actor_60_interact
     003C4840  GBVM_END$actor_60_interact$757e7   actor_60_interact
     003C4841  _actor_61_interact                 actor_61_interact
     003C4844  GBVM$actor_61_interact$9100c939_   actor_61_interact
     003C486F  GBVM$actor_61_interact$e1bb06c8_   actor_61_interact
     003C4881  GBVM$actor_61_interact$26847eed_   actor_61_interact
     003C488D  GBVM$actor_61_interact$3ac58303_   actor_61_interact
     003C489F  GBVM$actor_61_interact$de14866b_   actor_61_interact
     003C48AB  GBVM$actor_61_interact$039f2ce9_   actor_61_interact
     003C48B2  GBVM$actor_61_interact$11cc67e1_   actor_61_interact
     003C48F8  GBVM$actor_61_interact$f2805f5b_   actor_61_interact
     003C48F8  GBVM_END$actor_61_interact$3ac58   actor_61_interact
     003C4903  GBVM$actor_61_interact$49cc4826_   actor_61_interact
     003C490B  GBVM$actor_61_interact$6ee635ab_   actor_61_interact
     003C490B  GBVM$actor_61_interact$ca82d1e4_   actor_61_interact
     003C490B  GBVM_END$actor_61_interact$e1bb0   actor_61_interact
     003C4910  GBVM$actor_61_interact$a00bc36b_   actor_61_interact
     003C4917  GBVM$actor_61_interact$85fd0cb5_   actor_61_interact
     003C491B  GBVM$actor_61_interact$75e095a4_   actor_61_interact
     003C492F  GBVM$actor_61_interact$957ea39c_   actor_61_interact
     003C4937  GBVM_END$actor_61_interact$957ea   actor_61_interact
     003C4937  GBVM_END$actor_61_interact$ca82d   actor_61_interact
     003C4938  _actor_7_interact                  actor_7_interact
     003C493B  GBVM$actor_7_interact$d02cf3ab_f   actor_7_interact
     003C4966  GBVM$actor_7_interact$9af8be19_0   actor_7_interact
     003C4978  GBVM$actor_7_interact$2a1eedf5_d   actor_7_interact
     003C4984  GBVM$actor_7_interact$5665f140_3   actor_7_interact
     003C4996  GBVM$actor_7_interact$29bbce90_c   actor_7_interact
     003C49A2  GBVM$actor_7_interact$09c0a146_3   actor_7_interact
     003C49A9  GBVM$actor_7_interact$9f9e9d0f_e   actor_7_interact
     003C49EF  GBVM$actor_7_interact$a11cf4f3_e   actor_7_interact
     003C49EF  GBVM_END$actor_7_interact$5665f1   actor_7_interact
     003C49FA  GBVM$actor_7_interact$2ea074ad_1   actor_7_interact
     003C4A02  GBVM$actor_7_interact$18a21b4d_7   actor_7_interact
     003C4A02  GBVM$actor_7_interact$ca7b1260_d   actor_7_interact
     003C4A02  GBVM_END$actor_7_interact$9af8be   actor_7_interact
     003C4A07  GBVM$actor_7_interact$d91da664_7   actor_7_interact
     003C4A0E  GBVM$actor_7_interact$437767bc_2   actor_7_interact
     003C4A12  GBVM$actor_7_interact$b067b20a_2   actor_7_interact
     003C4A26  GBVM$actor_7_interact$f1a771e3_7   actor_7_interact
     003C4A2E  GBVM_END$actor_7_interact$ca7b12   actor_7_interact
ASxxxx Linker V03.00/V05.40 + sdld,  page 110.
Hexadecimal  [32-Bits]

Area                                    Addr        Size        Decimal Bytes (Attributes)
--------------------------------        ----        ----        ------- ----- ------------
_CODE_60                            003C4000    00004000 =       16384. bytes (REL,CON)

      Value  Global                              Global Defined In Module
      -----  --------------------------------   ------------------------
     003C4A2E  GBVM_END$actor_7_interact$f1a771   actor_7_interact
     003C4A2F  _actor_8_interact                  actor_8_interact
     003C4A32  GBVM$actor_8_interact$1ddec698_b   actor_8_interact
     003C4A5D  GBVM$actor_8_interact$3d19e461_d   actor_8_interact
     003C4A6F  GBVM$actor_8_interact$1282238f_0   actor_8_interact
     003C4A7B  GBVM$actor_8_interact$1c86245e_1   actor_8_interact
     003C4A8D  GBVM$actor_8_interact$a4bf9c2a_7   actor_8_interact
     003C4A99  GBVM$actor_8_interact$b3e5d65d_1   actor_8_interact
     003C4AA0  GBVM$actor_8_interact$b7f02daa_a   actor_8_interact
     003C4AE6  GBVM$actor_8_interact$eca4538d_f   actor_8_interact
     003C4AE6  GBVM_END$actor_8_interact$1c8624   actor_8_interact
     003C4AF1  GBVM$actor_8_interact$a8cf80b1_1   actor_8_interact
     003C4AF9  GBVM$actor_8_interact$121f8dd4_5   actor_8_interact
     003C4AF9  GBVM$actor_8_interact$34869101_d   actor_8_interact
     003C4AF9  GBVM_END$actor_8_interact$3d19e4   actor_8_interact
     003C4AFE  GBVM$actor_8_interact$9a42fd3d_c   actor_8_interact
     003C4B05  GBVM$actor_8_interact$1b6d2e53_4   actor_8_interact
     003C4B09  GBVM$actor_8_interact$c6f86c78_1   actor_8_interact
     003C4B1D  GBVM$actor_8_interact$35ec7e28_9   actor_8_interact
     003C4B25  GBVM_END$actor_8_interact$121f8d   actor_8_interact
     003C4B25  GBVM_END$actor_8_interact$35ec7e   actor_8_interact
     003C4B26  ___func_frame_image                frame_image
     003C4B26  _frame_image                       frame_image
     003C4BB6  ___func_scene_10_actors            scene_10_actors
     003C4BB6  _scene_10_actors                   scene_10_actors
     003C4BEA  ___func_scene_11_actors            scene_11_actors
     003C4BEA  _scene_11_actors                   scene_11_actors
     003C4C52  _scene_11_init                     scene_11_init
     003C4C55  GBVM$scene_11_init$2dc1391b_93bf   scene_11_init
     003C4C6A  GBVM$scene_11_init$163d20f5_ed9b   scene_11_init
     003C4C72  GBVM$scene_11_init$75c89a59_e5e7   scene_11_init
     003C4C72  GBVM_END$scene_11_init$2dc1391b_   scene_11_init
     003C4C87  GBVM$scene_11_init$3bbc5cb6_50af   scene_11_init
     003C4C8F  GBVM$scene_11_init$5a85dfc4_6fcb   scene_11_init
     003C4C8F  GBVM_END$scene_11_init$75c89a59_   scene_11_init
     003C4C93  GBVM$scene_11_init$autofade$0946   scene_11_init
     003C4C9E  GBVM$scene_11_init$575a01a7_7e58   scene_11_init
     003C4C9E  GBVM$scene_11_init$70f3b299_35c8   scene_11_init
     003C4CA3  GBVM$scene_11_init$a984d41e_f6e5   scene_11_init
     003C4CAA  GBVM$scene_11_init$0768d8cc_a542   scene_11_init
     003C4CAE  GBVM$scene_11_init$da787efb_4f1f   scene_11_init
     003C4CC2  GBVM$scene_11_init$4314138f_5b31   scene_11_init
     003C4CCA  GBVM_END$scene_11_init$4314138f_   scene_11_init
     003C4CCA  GBVM_END$scene_11_init$70f3b299_   scene_11_init
     003C4CCB  _scene_14_init                     scene_14_init
     003C4CCE  GBVM$scene_14_init$2b5e127a_1b17   scene_14_init
     003C4CE3  GBVM$scene_14_init$a75e39f8_1471   scene_14_init
     003C4CEB  GBVM$scene_14_init$f6ad5093_e29d   scene_14_init
     003C4CEB  GBVM_END$scene_14_init$2b5e127a_   scene_14_init
     003C4CEF  GBVM$scene_14_init$autofade$f3a6   scene_14_init
     003C4CFA  GBVM$scene_14_init$07036a3e_28f3   scene_14_init
ASxxxx Linker V03.00/V05.40 + sdld,  page 111.
Hexadecimal  [32-Bits]

Area                                    Addr        Size        Decimal Bytes (Attributes)
--------------------------------        ----        ----        ------- ----- ------------
_CODE_60                            003C4000    00004000 =       16384. bytes (REL,CON)

      Value  Global                              Global Defined In Module
      -----  --------------------------------   ------------------------
     003C4CFA  GBVM$scene_14_init$9c71d671_f847   scene_14_init
     003C4CFF  GBVM$scene_14_init$6472a6f8_07da   scene_14_init
     003C4D06  GBVM$scene_14_init$241fa771_e51e   scene_14_init
     003C4D0A  GBVM$scene_14_init$12b13791_973b   scene_14_init
     003C4D1E  GBVM$scene_14_init$e4aeb78b_e9fa   scene_14_init
     003C4D26  GBVM_END$scene_14_init$9c71d671_   scene_14_init
     003C4D26  GBVM_END$scene_14_init$e4aeb78b_   scene_14_init
     003C4D27  ___func_scene_16_triggers          scene_16_triggers
     003C4D27  _scene_16_triggers                 scene_16_triggers
     003C4D9F  ___func_scene_19_actors            scene_19_actors
     003C4D9F  _scene_19_actors                   scene_19_actors
     003C4E6F  ___func_scene_22_triggers          scene_22_triggers
     003C4E6F  _scene_22_triggers                 scene_22_triggers
     003C4EEF  _scene_25_init                     scene_25_init
     003C4EF2  GBVM$scene_25_init$d07b3a4d_1ba8   scene_25_init
     003C4F07  GBVM$scene_25_init$42684550_4c8a   scene_25_init
     003C4F0F  GBVM$scene_25_init$99025fc4_14b8   scene_25_init
     003C4F0F  GBVM_END$scene_25_init$d07b3a4d_   scene_25_init
     003C4F13  GBVM$scene_25_init$autofade$6eb8   scene_25_init
     003C4F1E  GBVM$scene_25_init$29f6ead7_a653   scene_25_init
     003C4F1E  GBVM$scene_25_init$3ca39835_0623   scene_25_init
     003C4F23  GBVM$scene_25_init$796827ff_85fa   scene_25_init
     003C4F2A  GBVM$scene_25_init$bdb6dd4d_2e84   scene_25_init
     003C4F2E  GBVM$scene_25_init$02e2b582_44b6   scene_25_init
     003C4F42  GBVM$scene_25_init$2cbb929e_4070   scene_25_init
     003C4F4A  GBVM_END$scene_25_init$2cbb929e_   scene_25_init
     003C4F4A  GBVM_END$scene_25_init$3ca39835_   scene_25_init
     003C4F4B  ___func_scene_26_triggers          scene_26_triggers
     003C4F4B  _scene_26_triggers                 scene_26_triggers
     003C4FCB  _scene_28_p_hit1                   scene_28_p_hit1
     003C4FDE  GBVM$scene_28_p_hit1$8980b586_b1   scene_28_p_hit1
     003C4FFB  GBVM$scene_28_p_hit1$7231ec80_9a   scene_28_p_hit1
     003C5018  GBVM$scene_28_p_hit1$196aa0fe_17   scene_28_p_hit1
     003C5025  ___func_scene_29_actors            scene_29_actors
     003C5025  _scene_29_actors                   scene_29_actors
     003C508D  ___func_scene_33_actors            scene_33_actors
     003C508D  _scene_33_actors                   scene_33_actors
     003C50F5  _scene_33_init                     scene_33_init
     003C50F8  GBVM$scene_33_init$df8b072a_5834   scene_33_init
     003C510D  GBVM$scene_33_init$bb8df00a_8ffa   scene_33_init
     003C5115  GBVM$scene_33_init$6cafad68_f476   scene_33_init
     003C5115  GBVM_END$scene_33_init$df8b072a_   scene_33_init
     003C512A  GBVM$scene_33_init$704444de_9707   scene_33_init
     003C5132  GBVM$scene_33_init$autofade$0b0c   scene_33_init
     003C5132  GBVM_END$scene_33_init$6cafad68_   scene_33_init
     003C513D  GBVM$scene_33_init$064326a5_c527   scene_33_init
     003C513D  GBVM$scene_33_init$e77a1fef_5ad1   scene_33_init
     003C5142  GBVM$scene_33_init$71874c79_2fe1   scene_33_init
     003C5149  GBVM$scene_33_init$706528bb_e1c5   scene_33_init
     003C514D  GBVM$scene_33_init$d56e5591_5c87   scene_33_init
     003C5161  GBVM$scene_33_init$6d766f3f_ddd4   scene_33_init
ASxxxx Linker V03.00/V05.40 + sdld,  page 112.
Hexadecimal  [32-Bits]

Area                                    Addr        Size        Decimal Bytes (Attributes)
--------------------------------        ----        ----        ------- ----- ------------
_CODE_60                            003C4000    00004000 =       16384. bytes (REL,CON)

      Value  Global                              Global Defined In Module
      -----  --------------------------------   ------------------------
     003C5169  GBVM_END$scene_33_init$064326a5_   scene_33_init
     003C5169  GBVM_END$scene_33_init$6d766f3f_   scene_33_init
     003C516A  ___func_scene_35_actors            scene_35_actors
     003C516A  _scene_35_actors                   scene_35_actors
     003C51D2  ___func_scene_39_actors            scene_39_actors
     003C51D2  _scene_39_actors                   scene_39_actors
     003C523A  ___func_scene_40_projectiles       scene_40_projectiles
     003C523A  _scene_40_projectiles              scene_40_projectiles
     003C5296  _scene_41_p_hit1                   scene_41_p_hit1
     003C52A9  GBVM$scene_41_p_hit1$9b9cb677_90   scene_41_p_hit1
     003C52C6  GBVM$scene_41_p_hit1$2a718ceb_20   scene_41_p_hit1
     003C52E3  GBVM$scene_41_p_hit1$6ffa9b69_a7   scene_41_p_hit1
     003C52F0  _scene_42_init                     scene_42_init
     003C52F3  GBVM$scene_42_init$13e374e0_5f48   scene_42_init
     003C5308  GBVM$scene_42_init$566f5ce1_ff0b   scene_42_init
     003C5310  GBVM$scene_42_init$autofade$046e   scene_42_init
     003C5310  GBVM_END$scene_42_init$13e374e0_   scene_42_init
     003C531B  GBVM$scene_42_init$aaef6e41_ee39   scene_42_init
     003C532D  GBVM$scene_42_init$4adcb0bc_0533   scene_42_init
     003C5338  GBVM$scene_42_init$393cdbe6_082a   scene_42_init
     003C538E  GBVM$scene_42_init$93d252a5_c337   scene_42_init
     003C538E  GBVM$scene_42_init$b12ac9e0_3412   scene_42_init
     003C538E  GBVM_END$scene_42_init$aaef6e41_   scene_42_init
     003C5393  GBVM$scene_42_init$74085ffa_ee99   scene_42_init
     003C539A  GBVM$scene_42_init$05f65367_1b42   scene_42_init
     003C539E  GBVM$scene_42_init$ff7bda50_7b34   scene_42_init
     003C53B2  GBVM$scene_42_init$f4104cc1_b5d4   scene_42_init
     003C53BA  GBVM$scene_42_init$21296231_4c3a   scene_42_init
     003C53BA  GBVM_END$scene_42_init$93d252a5_   scene_42_init
     003C53BA  GBVM_END$scene_42_init$f4104cc1_   scene_42_init
     003C53BF  ___func_scene_45_actors            scene_45_actors
     003C53BF  _scene_45_actors                   scene_45_actors
     003C5427  ___func_scene_47_actors            scene_47_actors
     003C5427  _scene_47_actors                   scene_47_actors
     003C548F  ___func_scene_54_actors            scene_54_actors
     003C548F  _scene_54_actors                   scene_54_actors
     003C552B  _scene_6_init                      scene_6_init
     003C552E  GBVM$scene_6_init$2de5795b_c2a0_   scene_6_init
     003C5540  GBVM$scene_6_init$739fcb0c_6fb6_   scene_6_init
     003C554B  GBVM$scene_6_init$2e91d5fb_8cee_   scene_6_init
     003C554B  GBVM_END$scene_6_init$2de5795b_c   scene_6_init
     003C555D  GBVM$scene_6_init$3755a8e2_4e17_   scene_6_init
     003C5568  GBVM$scene_6_init$1b4e5cd8_f7cd_   scene_6_init
     003C5568  GBVM_END$scene_6_init$2e91d5fb_8   scene_6_init
     003C557A  GBVM$scene_6_init$ef3f3342_82f6_   scene_6_init
     003C5585  GBVM$scene_6_init$245a1f0c_7699_   scene_6_init
     003C5585  GBVM_END$scene_6_init$1b4e5cd8_f   scene_6_init
     003C558F  GBVM$scene_6_init$9b7831c4_15fa_   scene_6_init
     003C5597  GBVM$scene_6_init$autofade$ba1f9   scene_6_init
     003C5597  GBVM_END$scene_6_init$9b7831c4_1   scene_6_init
     003C55A3  _script_1                          script_1
ASxxxx Linker V03.00/V05.40 + sdld,  page 113.
Hexadecimal  [32-Bits]

Area                                    Addr        Size        Decimal Bytes (Attributes)
--------------------------------        ----        ----        ------- ----- ------------
_CODE_60                            003C4000    00004000 =       16384. bytes (REL,CON)

      Value  Global                              Global Defined In Module
      -----  --------------------------------   ------------------------
     003C55A5  GBVM$script_1$d0d3bdd0_87d5_4448   script_1
     003C55B6  GBVM$script_1$48779fb8_384c_494b   script_1
     003C55C4  GBVM$script_1$c6aea531_fba2_42ef   script_1
     003C55CF  GBVM$script_1$1f58a9c4_b30d_431f   script_1
     003C55DD  GBVM$script_1$81c9e7ed_c245_424b   script_1
     003C55E8  GBVM$script_1$17d3696e_497a_4a6d   script_1
     003C55F6  GBVM$script_1$fb873cec_be90_49e5   script_1
     003C5601  GBVM$script_1$3f1de9a6_7f3a_4712   script_1
     003C560F  GBVM$script_1$08854bbc_bcc1_4153   script_1
     003C560F  GBVM_END$script_1$d0d3bdd0_87d5_   script_1
     003C5617  GBVM$script_1$d0658877_ee4a_45b1   script_1
     003C5617  GBVM_END$script_1$08854bbc_bcc1_   script_1
     003C561F  GBVM$script_1$5dfed471_5ee8_404f   script_1
     003C561F  GBVM_END$script_1$d0658877_ee4a_   script_1
     003C5627  GBVM$script_1$2fb1f720_79cc_4358   script_1
     003C5627  GBVM_END$script_1$5dfed471_5ee8_   script_1
     003C562F  GBVM_END$script_1$2fb1f720_79cc_   script_1
     003C5633  GBVM$script_2$2ac23d5e_e2c4_4aee   script_2
     003C5633  _script_2                          script_2
     003C5638  GBVM$script_2$0a14d606_e80e_43cc   script_2
     003C563D  GBVM$script_2$1e391671_be55_4103   script_2
     003C564D  GBVM$script_2$af752c76_cecd_49b6   script_2
     003C5652  GBVM$script_2$e78b7a6c_116d_4be9   script_2
     003C5657  GBVM$script_2$23012e89_7753_48eb   script_2
     003C565E  GBVM$script_2$7a575551_1765_49df   script_2
     003C5663  GBVM$script_2$0c54bb19_ee72_4f0a   script_2
     003C5668  GBVM$script_2$5a762626_ec6e_455d   script_2
     003C5678  GBVM$script_2$40e1a042_f4f8_48dd   script_2
     003C567D  GBVM$script_2$c9e5a198_3e5a_4bc6   script_2
     003C568D  GBVM$script_2$2e64cca6_0fe8_431a   script_2
     003C569D  GBVM$script_2$fc05e57d_7691_46e3   script_2
     003C56AD  GBVM$script_2$fe90c4d2_d48b_4a4e   script_2
     003C56BD  GBVM$script_2$f0b5742b_c9ec_4001   script_2
     003C56C2  GBVM$script_2$39098737_7b29_4d03   script_2
     003C56C7  GBVM$script_2$0a49fdd8_ef25_4b39   script_2
     003C56CC  GBVM$script_2$2a2957f5_135e_45f8   script_2
     003C56D1  GBVM$script_2$0911d1aa_e01f_414c   script_2
     003C56D6  GBVM$script_2$f662cea1_cfcb_4c5a   script_2
     003C56DB  GBVM$script_2$39043347_86fb_401e   script_2
     003C56E0  GBVM$script_2$4a9645cd_e341_46c5   script_2
     003C56E5  GBVM$script_2$c11cb144_94c2_476a   script_2
     003C56EC  _script_engine_init                
     003C576C  _script_input_12                   script_input_12
     003C576E  GBVM$script_input_12$c1fa8e33_24   script_input_12
     003C5779  GBVM$script_input_12$88243f30_e1   script_input_12
     003C57F7  GBVM$script_input_12$6be47345_be   script_input_12
     003C57F7  GBVM$script_input_12$dc36b6c5_1e   script_input_12
     003C57FC  GBVM$script_input_12$3a4dd2b9_d8   script_input_12
     003C5803  GBVM$script_input_12$3e804bd1_1a   script_input_12
     003C5807  GBVM$script_input_12$ee9886f5_5f   script_input_12
     003C581B  GBVM$script_input_12$63fc35e3_fc   script_input_12
ASxxxx Linker V03.00/V05.40 + sdld,  page 114.
Hexadecimal  [32-Bits]

Area                                    Addr        Size        Decimal Bytes (Attributes)
--------------------------------        ----        ----        ------- ----- ------------
_CODE_60                            003C4000    00004000 =       16384. bytes (REL,CON)

      Value  Global                              Global Defined In Module
      -----  --------------------------------   ------------------------
     003C5823  GBVM_END$script_input_12$63fc35e   script_input_12
     003C5823  GBVM_END$script_input_12$6be4734   script_input_12
     003C5824  _script_input_13                   script_input_13
     003C5826  GBVM$script_input_13$31472a3d_d8   script_input_13
     003C5831  GBVM$script_input_13$12e0b279_4d   script_input_13
     003C58AF  GBVM$script_input_13$a05f4b07_f1   script_input_13
     003C58AF  GBVM$script_input_13$a627d7a6_a8   script_input_13
     003C58B4  GBVM$script_input_13$879d1d47_15   script_input_13
     003C58BB  GBVM$script_input_13$22c83ecb_dd   script_input_13
     003C58BF  GBVM$script_input_13$8b0bcdfc_d6   script_input_13
     003C58D3  GBVM$script_input_13$824572d5_a3   script_input_13
     003C58DB  GBVM_END$script_input_13$824572d   script_input_13
     003C58DB  GBVM_END$script_input_13$a05f4b0   script_input_13
     003C58DC  _script_input_14                   script_input_14
     003C58DE  GBVM$script_input_14$c35390db_6a   script_input_14
     003C58E9  GBVM$script_input_14$10330a02_7a   script_input_14
     003C5967  GBVM$script_input_14$3c24e3b0_58   script_input_14
     003C5967  GBVM$script_input_14$46d7c415_13   script_input_14
     003C596C  GBVM$script_input_14$376633a1_14   script_input_14
     003C5973  GBVM$script_input_14$021a33e9_50   script_input_14
     003C5977  GBVM$script_input_14$065f3cbb_f5   script_input_14
     003C598B  GBVM$script_input_14$822a4bd9_df   script_input_14
     003C5993  GBVM_END$script_input_14$46d7c41   script_input_14
     003C5993  GBVM_END$script_input_14$822a4bd   script_input_14
     003C5994  _script_input_15                   script_input_15
     003C5996  GBVM$script_input_15$96d8ec73_e4   script_input_15
     003C59A1  GBVM$script_input_15$6f5ce252_79   script_input_15
     003C5A1F  GBVM$script_input_15$5c562837_49   script_input_15
     003C5A1F  GBVM$script_input_15$a60dd691_38   script_input_15
     003C5A24  GBVM$script_input_15$79cb8daa_0c   script_input_15
     003C5A2B  GBVM$script_input_15$2d1e742d_a4   script_input_15
     003C5A2F  GBVM$script_input_15$1877c94f_0d   script_input_15
     003C5A43  GBVM$script_input_15$ea89434b_66   script_input_15
     003C5A4B  GBVM_END$script_input_15$5c56283   script_input_15
     003C5A4B  GBVM_END$script_input_15$ea89434   script_input_15
     003C5A4C  _script_input_16                   script_input_16
     003C5A4E  GBVM$script_input_16$64c5f384_43   script_input_16
     003C5A59  GBVM$script_input_16$745cff0a_62   script_input_16
     003C5AD7  GBVM$script_input_16$69ee3c6a_02   script_input_16
     003C5AD7  GBVM$script_input_16$8964a492_40   script_input_16
     003C5ADC  GBVM$script_input_16$a5abbed3_7d   script_input_16
     003C5AE3  GBVM$script_input_16$72910fd9_4b   script_input_16
     003C5AE7  GBVM$script_input_16$8d095f9c_a4   script_input_16
     003C5AFB  GBVM$script_input_16$e19d3a89_b2   script_input_16
     003C5B03  GBVM_END$script_input_16$69ee3c6   script_input_16
     003C5B03  GBVM_END$script_input_16$e19d3a8   script_input_16
     003C5B04  _script_input_17                   script_input_17
     003C5B06  GBVM$script_input_17$37d090e4_c6   script_input_17
     003C5B11  GBVM$script_input_17$9575490d_80   script_input_17
     003C5B8F  GBVM$script_input_17$4d5a07bb_95   script_input_17
     003C5B8F  GBVM$script_input_17$ae14e476_aa   script_input_17
ASxxxx Linker V03.00/V05.40 + sdld,  page 115.
Hexadecimal  [32-Bits]

Area                                    Addr        Size        Decimal Bytes (Attributes)
--------------------------------        ----        ----        ------- ----- ------------
_CODE_60                            003C4000    00004000 =       16384. bytes (REL,CON)

      Value  Global                              Global Defined In Module
      -----  --------------------------------   ------------------------
     003C5B94  GBVM$script_input_17$23670021_76   script_input_17
     003C5B9B  GBVM$script_input_17$7011360e_b9   script_input_17
     003C5B9F  GBVM$script_input_17$72ab0cc9_1d   script_input_17
     003C5BB3  GBVM$script_input_17$e91f8071_57   script_input_17
     003C5BBB  GBVM_END$script_input_17$4d5a07b   script_input_17
     003C5BBB  GBVM_END$script_input_17$e91f807   script_input_17
     003C5BBC  GBVM$script_input_18$f95f7c44_e5   script_input_18
     003C5BBC  _script_input_18                   script_input_18
     003C5C3B  _script_input_19                   script_input_19
     003C5C3D  GBVM$script_input_19$a08f99d5_72   script_input_19
     003C5C48  GBVM$script_input_19$02946056_5f   script_input_19
     003C5CC6  GBVM$script_input_19$90eb4ecc_07   script_input_19
     003C5CC6  GBVM$script_input_19$b1d45cfa_8f   script_input_19
     003C5CCB  GBVM$script_input_19$839e37c7_b2   script_input_19
     003C5CD2  GBVM$script_input_19$aa624fbd_da   script_input_19
     003C5CD6  GBVM$script_input_19$618c7f81_8a   script_input_19
     003C5CEA  GBVM$script_input_19$12e90847_2f   script_input_19
     003C5CF2  GBVM_END$script_input_19$12e9084   script_input_19
     003C5CF2  GBVM_END$script_input_19$90eb4ec   script_input_19
     003C5CF3  _script_input_20                   script_input_20
     003C5CF5  GBVM$script_input_20$19d24105_cd   script_input_20
     003C5D00  GBVM$script_input_20$d285d36d_cb   script_input_20
     003C5D7E  GBVM$script_input_20$708d3368_d1   script_input_20
     003C5D7E  GBVM$script_input_20$e84e1a9e_63   script_input_20
     003C5D83  GBVM$script_input_20$53de1de3_ab   script_input_20
     003C5D8A  GBVM$script_input_20$af9229bf_d1   script_input_20
     003C5D8E  GBVM$script_input_20$ce61a8ff_d6   script_input_20
     003C5DA2  GBVM$script_input_20$77c6210b_6b   script_input_20
     003C5DAA  GBVM_END$script_input_20$708d336   script_input_20
     003C5DAA  GBVM_END$script_input_20$77c6210   script_input_20
     003C5DAB  _script_input_23                   script_input_23
     003C5DAD  GBVM$script_input_23$3c7733da_16   script_input_23
     003C5DB8  GBVM$script_input_23$a6d08e1b_c2   script_input_23
     003C5E41  GBVM$script_input_23$5839e93b_5f   script_input_23
     003C5E41  GBVM$script_input_23$cf074494_0f   script_input_23
     003C5E46  GBVM$script_input_23$cbeccf68_84   script_input_23
     003C5E4D  GBVM$script_input_23$04ac6b49_7a   script_input_23
     003C5E51  GBVM$script_input_23$92a02cf8_93   script_input_23
     003C5E65  GBVM$script_input_23$19c9ece7_8b   script_input_23
     003C5E6D  GBVM_END$script_input_23$19c9ece   script_input_23
     003C5E6D  GBVM_END$script_input_23$5839e93   script_input_23
     003C5E6E  _script_input_25                   script_input_25
     003C5E70  GBVM$script_input_25$d6f51d27_bb   script_input_25
     003C5E7B  GBVM$script_input_25$ccf15131_c7   script_input_25
     003C5F0B  GBVM$script_input_25$0330ad0d_26   script_input_25
     003C5F0B  GBVM$script_input_25$ff0c4822_ce   script_input_25
     003C5F10  GBVM$script_input_25$0e8287ea_8c   script_input_25
     003C5F17  GBVM$script_input_25$5659be43_81   script_input_25
     003C5F1B  GBVM$script_input_25$d458f2e8_ba   script_input_25
     003C5F2F  GBVM$script_input_25$56deaa63_cb   script_input_25
     003C5F37  GBVM_END$script_input_25$0330ad0   script_input_25
ASxxxx Linker V03.00/V05.40 + sdld,  page 116.
Hexadecimal  [32-Bits]

Area                                    Addr        Size        Decimal Bytes (Attributes)
--------------------------------        ----        ----        ------- ----- ------------
_CODE_60                            003C4000    00004000 =       16384. bytes (REL,CON)

      Value  Global                              Global Defined In Module
      -----  --------------------------------   ------------------------
     003C5F37  GBVM_END$script_input_25$56deaa6   script_input_25
     003C5F38  _script_input_26                   script_input_26
     003C5F3A  GBVM$script_input_26$8b85d055_90   script_input_26
     003C5F45  GBVM$script_input_26$0b763009_6d   script_input_26
     003C5FC3  GBVM$script_input_26$16fc3d28_f3   script_input_26
     003C5FC3  GBVM$script_input_26$da84e9ee_2b   script_input_26
     003C5FC8  GBVM$script_input_26$05c73b7c_ff   script_input_26
     003C5FCF  GBVM$script_input_26$867dc6dd_b0   script_input_26
     003C5FD3  GBVM$script_input_26$2af3bbfa_05   script_input_26
     003C5FE7  GBVM$script_input_26$6de44ea3_05   script_input_26
     003C5FEF  GBVM_END$script_input_26$16fc3d2   script_input_26
     003C5FEF  GBVM_END$script_input_26$6de44ea   script_input_26
     003C5FF0  _script_input_28                   script_input_28
     003C5FF2  GBVM$script_input_28$957a4721_fd   script_input_28
     003C6004  GBVM$script_input_28$9a4ea7c4_41   script_input_28
     003C6039  GBVM$script_input_28$43347fe6_4b   script_input_28
     003C604B  GBVM$script_input_28$3e16a6bc_3d   script_input_28
     003C6080  GBVM$script_input_28$3fdbf4b0_fe   script_input_28
     003C60B2  GBVM_END$script_input_28$43347fe   script_input_28
     003C60B2  GBVM_END$script_input_28$957a472   script_input_28
     003C60B3  _script_input_31                   script_input_31
     003C60B5  GBVM$script_input_31$b9a509a9_23   script_input_31
     003C60C0  GBVM$script_input_31$dd778bbf_9b   script_input_31
     003C6162  GBVM$script_input_31$47adc41f_5a   script_input_31
     003C616E  GBVM$script_input_31$6d4d8457_30   script_input_31
     003C616E  GBVM$script_input_31$d5b9f282_82   script_input_31
     003C6173  GBVM$script_input_31$a744678c_9b   script_input_31
     003C617A  GBVM$script_input_31$3e787548_d8   script_input_31
     003C617E  GBVM$script_input_31$1f2d7827_8a   script_input_31
     003C6192  GBVM$script_input_31$ff56ea71_e0   script_input_31
     003C619A  GBVM_END$script_input_31$d5b9f28   script_input_31
     003C619A  GBVM_END$script_input_31$ff56ea7   script_input_31
     003C619B  _script_input_8                    script_input_8
     003C619D  GBVM$script_input_8$4bab89c4_046   script_input_8
     003C6244  GBVM$script_input_8$03500be9_bb8   script_input_8
     003C6244  GBVM$script_input_8$af9ec0a2_c3b   script_input_8
     003C6249  GBVM$script_input_8$989e873c_c96   script_input_8
     003C6250  GBVM$script_input_8$bab64835_aac   script_input_8
     003C6254  GBVM$script_input_8$315daf21_5d6   script_input_8
     003C6268  GBVM$script_input_8$daff0b8e_e9f   script_input_8
     003C6270  GBVM_END$script_input_8$af9ec0a2   script_input_8
     003C6270  GBVM_END$script_input_8$daff0b8e   script_input_8
     003C6271  ___func_sprite_actor_animated      sprite_actor_animated
     003C6271  _sprite_actor_animated_metasprit   sprite_actor_animated
     003C627D  _sprite_actor_animated_metasprit   sprite_actor_animated
     003C6289  _sprite_actor_animated_metasprit   sprite_actor_animated
     003C6295  _sprite_actor_animated_metasprit   sprite_actor_animated
     003C62A1  _sprite_actor_animated_metasprit   sprite_actor_animated
     003C62AD  _sprite_actor_animated_metasprit   sprite_actor_animated
     003C62B9  _sprite_actor_animated_metasprit   sprite_actor_animated
     003C62C5  _sprite_actor_animated_metasprit   sprite_actor_animated
ASxxxx Linker V03.00/V05.40 + sdld,  page 117.
Hexadecimal  [32-Bits]

Area                                    Addr        Size        Decimal Bytes (Attributes)
--------------------------------        ----        ----        ------- ----- ------------
_CODE_60                            003C4000    00004000 =       16384. bytes (REL,CON)

      Value  Global                              Global Defined In Module
      -----  --------------------------------   ------------------------
     003C62D1  _sprite_actor_animated_metasprit   sprite_actor_animated
     003C62E9  _sprite_actor_animated_animation   sprite_actor_animated
     003C62F9  _sprite_actor_animated_animation   sprite_actor_animated
     003C62FB  _sprite_actor_animated             sprite_actor_animated
     003C630E  ___func_sprite_bullet_tileset      sprite_bullet_tileset
     003C630E  _sprite_bullet_tileset             sprite_bullet_tileset
     003C63D0  ___func_sprite_bullet              sprite_bullet
     003C63D0  _sprite_bullet_metasprite_0        sprite_bullet
     003C63DC  _sprite_bullet_metasprite_1        sprite_bullet
     003C63E8  _sprite_bullet_metasprite_2        sprite_bullet
     003C63F4  _sprite_bullet_metasprite_3        sprite_bullet
     003C6400  _sprite_bullet_metasprites         sprite_bullet
     003C6408  _sprite_bullet_animations          sprite_bullet
     003C6418  _sprite_bullet_animations_lookup   sprite_bullet
     003C641A  _sprite_bullet                     sprite_bullet
     003C642D  ___func_sprite_cedric_copy_tiles   sprite_cedric_copy_tileset
     003C642D  _sprite_cedric_copy_tileset        sprite_cedric_copy_tileset
     003C650F  ___func_sprite_cedric              sprite_cedric
     003C650F  _sprite_cedric_metasprite_0        sprite_cedric
     003C6537  _sprite_cedric_metasprite_1        sprite_cedric
     003C6557  _sprite_cedric_metasprite_2        sprite_cedric
     003C655B  _sprite_cedric_metasprite_3        sprite_cedric
     003C657B  _sprite_cedric_metasprites         sprite_cedric
     003C6583  _sprite_cedric_animations          sprite_cedric
     003C6593  _sprite_cedric_animations_lookup   sprite_cedric
     003C6595  _sprite_cedric                     sprite_cedric
     003C65A8  ___func_sprite_flame_whip_tilese   sprite_flame_whip_tileset
     003C65A8  _sprite_flame_whip_tileset         sprite_flame_whip_tileset
     003C660A  ___func_sprite_flare_static        sprite_flare_static
     003C660A  _sprite_flare_static_metasprite_   sprite_flare_static
     003C660E  _sprite_flare_static_metasprite_   sprite_flare_static
     003C6622  _sprite_flare_static_metasprite_   sprite_flare_static
     003C6636  _sprite_flare_static_metasprite_   sprite_flare_static
     003C664A  _sprite_flare_static_metasprite_   sprite_flare_static
     003C6666  _sprite_flare_static_metasprites   sprite_flare_static
     003C6670  _sprite_flare_static_animations    sprite_flare_static
     003C6690  _sprite_flare_static_animations_   sprite_flare_static
     003C6694  _sprite_flare_static               sprite_flare_static
     003C66A7  ___func_sprite_jem_animated_0_ti   sprite_jem_animated_0_tilese
     003C66A7  _sprite_jem_animated_0_tileset     sprite_jem_animated_0_tilese
     003C6749  ___func_sprite_light_animated_co   sprite_light_animated_copy
     003C6749  _sprite_light_animated_copy_meta   sprite_light_animated_copy
     003C6765  _sprite_light_animated_copy_meta   sprite_light_animated_copy
     003C6785  _sprite_light_animated_copy_meta   sprite_light_animated_copy
     003C679D  _sprite_light_animated_copy_meta   sprite_light_animated_copy
     003C67BD  _sprite_light_animated_copy_meta   sprite_light_animated_copy
     003C67C5  _sprite_light_animated_copy_anim   sprite_light_animated_copy
     003C67D5  _sprite_light_animated_copy_anim   sprite_light_animated_copy
     003C67D7  _sprite_light_animated_copy        sprite_light_animated_copy
     003C67EA  ___func_sprite_light_key_0_tiles   sprite_light_key_0_tileset
     003C67EA  _sprite_light_key_0_tileset        sprite_light_key_0_tileset
ASxxxx Linker V03.00/V05.40 + sdld,  page 118.
Hexadecimal  [32-Bits]

Area                                    Addr        Size        Decimal Bytes (Attributes)
--------------------------------        ----        ----        ------- ----- ------------
_CODE_60                            003C4000    00004000 =       16384. bytes (REL,CON)

      Value  Global                              Global Defined In Module
      -----  --------------------------------   ------------------------
     003C686C  ___func_sprite_light_key_0         sprite_light_key_0
     003C686C  _sprite_light_key_0_metasprite_0   sprite_light_key_0
     003C6878  _sprite_light_key_0_metasprite_1   sprite_light_key_0
     003C6884  _sprite_light_key_0_metasprite_2   sprite_light_key_0
     003C6890  _sprite_light_key_0_metasprite_3   sprite_light_key_0
     003C689C  _sprite_light_key_0_metasprites    sprite_light_key_0
     003C68A4  _sprite_light_key_0_animations     sprite_light_key_0
     003C68B4  _sprite_light_key_0_animations_l   sprite_light_key_0
     003C68B6  _sprite_light_key_0                sprite_light_key_0
     003C68C9  ___func_sprite_light_key_tileset   sprite_light_key_tileset
     003C68C9  _sprite_light_key_tileset          sprite_light_key_tileset
     003C694B  ___func_sprite_light_key           sprite_light_key
     003C694B  _sprite_light_key_metasprite_0     sprite_light_key
     003C6957  _sprite_light_key_metasprite_1     sprite_light_key
     003C6963  _sprite_light_key_metasprite_2     sprite_light_key
     003C696F  _sprite_light_key_metasprite_3     sprite_light_key
     003C697B  _sprite_light_key_metasprites      sprite_light_key
     003C6983  _sprite_light_key_animations       sprite_light_key
     003C6993  _sprite_light_key_animations_loo   sprite_light_key
     003C6995  _sprite_light_key                  sprite_light_key
     003C69A8  ___func_sprite_number_ui           sprite_number_ui
     003C69A8  _sprite_number_ui_metasprite_0     sprite_number_ui
     003C69B4  _sprite_number_ui_metasprite_1     sprite_number_ui
     003C69BC  _sprite_number_ui_metasprite_2     sprite_number_ui
     003C69C8  _sprite_number_ui_metasprite_3     sprite_number_ui
     003C69D0  _sprite_number_ui_metasprite_4     sprite_number_ui
     003C69DC  _sprite_number_ui_metasprite_5     sprite_number_ui
     003C69E8  _sprite_number_ui_metasprite_6     sprite_number_ui
     003C69F0  _sprite_number_ui_metasprite_7     sprite_number_ui
     003C69FC  _sprite_number_ui_metasprite_8     sprite_number_ui
     003C6A08  _sprite_number_ui_metasprite_9     sprite_number_ui
     003C6A10  _sprite_number_ui_metasprites      sprite_number_ui
     003C6A24  _sprite_number_ui_animations       sprite_number_ui
     003C6A34  _sprite_number_ui_animations_loo   sprite_number_ui
     003C6A36  _sprite_number_ui                  sprite_number_ui
     003C6A49  ___func_sprite_phoenix_cop_copy_   sprite_phoenix_cop_copy_tile
     003C6A49  _sprite_phoenix_cop_copy_tileset   sprite_phoenix_cop_copy_tile
     003C6B0B  ___func_sprite_sly_slimeball_til   sprite_sly_slimeball_tileset
     003C6B0B  _sprite_sly_slimeball_tileset      sprite_sly_slimeball_tileset
     003C6BCD  ___func_sprite_sly_slimeball       sprite_sly_slimeball
     003C6BCD  _sprite_sly_slimeball_metasprite   sprite_sly_slimeball
     003C6BF1  _sprite_sly_slimeball_metasprite   sprite_sly_slimeball
     003C6C15  _sprite_sly_slimeball_metasprite   sprite_sly_slimeball
     003C6C39  _sprite_sly_slimeball_metasprite   sprite_sly_slimeball
     003C6C3F  _sprite_sly_slimeball_animations   sprite_sly_slimeball
     003C6C4F  _sprite_sly_slimeball_animations   sprite_sly_slimeball
     003C6C51  _sprite_sly_slimeball              sprite_sly_slimeball
     003C6C64  ___func_sprite_swordattack_tiles   sprite_swordattack_tileset
     003C6C64  _sprite_swordattack_tileset        sprite_swordattack_tileset
     003C6CE6  ___func_sprite_swordattack         sprite_swordattack
     003C6CE6  _sprite_swordattack_metasprite_0   sprite_swordattack
ASxxxx Linker V03.00/V05.40 + sdld,  page 119.
Hexadecimal  [32-Bits]

Area                                    Addr        Size        Decimal Bytes (Attributes)
--------------------------------        ----        ----        ------- ----- ------------
_CODE_60                            003C4000    00004000 =       16384. bytes (REL,CON)

      Value  Global                              Global Defined In Module
      -----  --------------------------------   ------------------------
     003C6CF2  _sprite_swordattack_metasprite_1   sprite_swordattack
     003C6CFE  _sprite_swordattack_metasprite_2   sprite_swordattack
     003C6D0A  _sprite_swordattack_metasprite_3   sprite_swordattack
     003C6D16  _sprite_swordattack_metasprites    sprite_swordattack
     003C6D1E  _sprite_swordattack_animations     sprite_swordattack
     003C6D2E  _sprite_swordattack_animations_l   sprite_swordattack
     003C6D30  _sprite_swordattack                sprite_swordattack
     003C6D43  _trigger_10_interact               trigger_10_interact
     003C6D46  GBVM$trigger_10_interact$29c15f8   trigger_10_interact
     003C6D46  GBVM$trigger_10_interact$6c0f7f0   trigger_10_interact
     003C6D64  GBVM$trigger_10_interact$6788cb2   trigger_10_interact
     003C6D70  GBVM$trigger_10_interact$d5fc171   trigger_10_interact
     003C6D70  GBVM_END$trigger_10_interact$29c   trigger_10_interact
     003C6DA7  _trigger_103_interact              trigger_103_interact
     003C6DAA  GBVM$trigger_103_interact$d8f4c3   trigger_103_interact
     003C6DAA  GBVM$trigger_103_interact$e5975e   trigger_103_interact
     003C6DC8  GBVM$trigger_103_interact$e551d9   trigger_103_interact
     003C6DD4  GBVM$trigger_103_interact$2f0032   trigger_103_interact
     003C6DD4  GBVM_END$trigger_103_interact$e5   trigger_103_interact
     003C6E0B  _trigger_105_interact              trigger_105_interact
     003C6E0E  GBVM$trigger_105_interact$1b730d   trigger_105_interact
     003C6E2C  GBVM$trigger_105_interact$0bd1d4   trigger_105_interact
     003C6E38  GBVM$trigger_105_interact$95a3b8   trigger_105_interact
     003C6E6F  _trigger_106_interact              trigger_106_interact
     003C6E72  GBVM$trigger_106_interact$02d776   trigger_106_interact
     003C6E90  GBVM$trigger_106_interact$59fec4   trigger_106_interact
     003C6E9C  GBVM$trigger_106_interact$180116   trigger_106_interact
     003C6ED3  _trigger_109_interact              trigger_109_interact
     003C6ED6  GBVM$trigger_109_interact$e46263   trigger_109_interact
     003C6EF4  GBVM$trigger_109_interact$2c1948   trigger_109_interact
     003C6F00  GBVM$trigger_109_interact$65f850   trigger_109_interact
     003C6F37  _trigger_110_interact              trigger_110_interact
     003C6F3A  GBVM$trigger_110_interact$1f15ae   trigger_110_interact
     003C6F58  GBVM$trigger_110_interact$ca92f9   trigger_110_interact
     003C6F64  GBVM$trigger_110_interact$3447ef   trigger_110_interact
     003C6F9B  _trigger_112_interact              trigger_112_interact
     003C6F9E  GBVM$trigger_112_interact$15f1e1   trigger_112_interact
     003C6FBC  GBVM$trigger_112_interact$0d61d8   trigger_112_interact
     003C6FC8  GBVM$trigger_112_interact$67a471   trigger_112_interact
     003C6FFF  _trigger_113_interact              trigger_113_interact
     003C7002  GBVM$trigger_113_interact$647136   trigger_113_interact
     003C7020  GBVM$trigger_113_interact$857591   trigger_113_interact
     003C702C  GBVM$trigger_113_interact$27013f   trigger_113_interact
     003C7063  _trigger_114_interact              trigger_114_interact
     003C7066  GBVM$trigger_114_interact$7a848f   trigger_114_interact
     003C7084  GBVM$trigger_114_interact$dc21a6   trigger_114_interact
     003C7090  GBVM$trigger_114_interact$3226ba   trigger_114_interact
     003C70C7  _trigger_115_interact              trigger_115_interact
     003C70CA  GBVM$trigger_115_interact$eba00e   trigger_115_interact
     003C70E8  GBVM$trigger_115_interact$f7a4da   trigger_115_interact
     003C70F4  GBVM$trigger_115_interact$fdaf5e   trigger_115_interact
ASxxxx Linker V03.00/V05.40 + sdld,  page 120.
Hexadecimal  [32-Bits]

Area                                    Addr        Size        Decimal Bytes (Attributes)
--------------------------------        ----        ----        ------- ----- ------------
_CODE_60                            003C4000    00004000 =       16384. bytes (REL,CON)

      Value  Global                              Global Defined In Module
      -----  --------------------------------   ------------------------
     003C712B  _trigger_116_interact              trigger_116_interact
     003C712E  GBVM$trigger_116_interact$4473e9   trigger_116_interact
     003C714C  GBVM$trigger_116_interact$a2b8d9   trigger_116_interact
     003C7158  GBVM$trigger_116_interact$30e39b   trigger_116_interact
     003C718E  GBVM$trigger_116_interact$6bd7d4   trigger_116_interact
     003C7193  GBVM$trigger_116_interact$52f7aa   trigger_116_interact
     003C7198  _trigger_117_interact              trigger_117_interact
     003C719B  GBVM$trigger_117_interact$4c97b4   trigger_117_interact
     003C71B9  GBVM$trigger_117_interact$ab58d3   trigger_117_interact
     003C71C5  GBVM$trigger_117_interact$63c873   trigger_117_interact
     003C71FC  _trigger_121_interact              trigger_121_interact
     003C71FF  GBVM$trigger_121_interact$059e7f   trigger_121_interact
     003C721D  GBVM$trigger_121_interact$944ba2   trigger_121_interact
     003C7229  GBVM$trigger_121_interact$5058ed   trigger_121_interact
     003C7260  _trigger_122_interact              trigger_122_interact
     003C7263  GBVM$trigger_122_interact$7da745   trigger_122_interact
     003C7281  GBVM$trigger_122_interact$f8e7f7   trigger_122_interact
     003C728D  GBVM$trigger_122_interact$31aa2e   trigger_122_interact
     003C72C4  _trigger_123_interact              trigger_123_interact
     003C72C7  GBVM$trigger_123_interact$e89046   trigger_123_interact
     003C72E5  GBVM$trigger_123_interact$524cca   trigger_123_interact
     003C72F1  GBVM$trigger_123_interact$4425ca   trigger_123_interact
     003C7328  _trigger_124_interact              trigger_124_interact
     003C732B  GBVM$trigger_124_interact$f2256a   trigger_124_interact
     003C7349  GBVM$trigger_124_interact$cf3278   trigger_124_interact
     003C7355  GBVM$trigger_124_interact$d238bd   trigger_124_interact
     003C738C  _trigger_160_interact              trigger_160_interact
     003C738F  GBVM$trigger_160_interact$4bebf1   trigger_160_interact
     003C73AD  GBVM$trigger_160_interact$d41608   trigger_160_interact
     003C73B9  GBVM$trigger_160_interact$7d196e   trigger_160_interact
     003C73F0  _trigger_163_interact              trigger_163_interact
     003C73F3  GBVM$trigger_163_interact$dd06ba   trigger_163_interact
     003C7411  GBVM$trigger_163_interact$78d5f8   trigger_163_interact
     003C741D  GBVM$trigger_163_interact$9d5b0e   trigger_163_interact
     003C7454  _trigger_174_interact              trigger_174_interact
     003C7457  GBVM$trigger_174_interact$11894e   trigger_174_interact
     003C7475  GBVM$trigger_174_interact$663ae3   trigger_174_interact
     003C7481  GBVM$trigger_174_interact$0d285d   trigger_174_interact
     003C74B8  _trigger_175_interact              trigger_175_interact
     003C74BB  GBVM$trigger_175_interact$eb78f9   trigger_175_interact
     003C74D9  GBVM$trigger_175_interact$95840d   trigger_175_interact
     003C74E5  GBVM$trigger_175_interact$bedf48   trigger_175_interact
     003C751C  _trigger_177_interact              trigger_177_interact
     003C751F  GBVM$trigger_177_interact$310299   trigger_177_interact
     003C7531  GBVM$trigger_177_interact$a8546e   trigger_177_interact
     003C7566  GBVM$trigger_177_interact$cc6696   trigger_177_interact
     003C7578  GBVM$trigger_177_interact$548f02   trigger_177_interact
     003C75AD  GBVM$trigger_177_interact$be2508   trigger_177_interact
     003C75DF  GBVM_END$trigger_177_interact$31   trigger_177_interact
     003C75DF  GBVM_END$trigger_177_interact$cc   trigger_177_interact
     003C75E0  _trigger_186_interact              trigger_186_interact
ASxxxx Linker V03.00/V05.40 + sdld,  page 121.
Hexadecimal  [32-Bits]

Area                                    Addr        Size        Decimal Bytes (Attributes)
--------------------------------        ----        ----        ------- ----- ------------
_CODE_60                            003C4000    00004000 =       16384. bytes (REL,CON)

      Value  Global                              Global Defined In Module
      -----  --------------------------------   ------------------------
     003C75E3  GBVM$trigger_186_interact$dc8313   trigger_186_interact
     003C7601  GBVM$trigger_186_interact$e86a86   trigger_186_interact
     003C760D  GBVM$trigger_186_interact$bade85   trigger_186_interact
     003C7644  _trigger_189_interact              trigger_189_interact
     003C7647  GBVM$trigger_189_interact$5d10be   trigger_189_interact
     003C7665  GBVM$trigger_189_interact$3c0b1f   trigger_189_interact
     003C7671  GBVM$trigger_189_interact$1e6744   trigger_189_interact
     003C76A8  _trigger_191_interact              trigger_191_interact
     003C76AB  GBVM$trigger_191_interact$5ebd42   trigger_191_interact
     003C76C9  GBVM$trigger_191_interact$3d8148   trigger_191_interact
     003C76D5  GBVM$trigger_191_interact$03ce60   trigger_191_interact
     003C770C  _trigger_193_interact              trigger_193_interact
     003C7720  GBVM$trigger_193_interact$7b5d98   trigger_193_interact
     003C7728  GBVM_END$trigger_193_interact$7b   trigger_193_interact
     003C773A  GBVM$trigger_193_interact$a0c7a2   trigger_193_interact
     003C773C  GBVM$trigger_193_interact$fc87b3   trigger_193_interact
     003C7740  GBVM$trigger_193_interact$1c8a21   trigger_193_interact
     003C7740  GBVM$trigger_193_interact$9b9282   trigger_193_interact
     003C7745  GBVM$trigger_193_interact$f72998   trigger_193_interact
     003C774C  GBVM$trigger_193_interact$6fb0b1   trigger_193_interact
     003C7750  GBVM$trigger_193_interact$c2e9f4   trigger_193_interact
     003C7764  GBVM$trigger_193_interact$7b59e4   trigger_193_interact
     003C776C  GBVM_END$trigger_193_interact$1c   trigger_193_interact
     003C776C  GBVM_END$trigger_193_interact$7b   trigger_193_interact
     003C776E  _trigger_20_interact               trigger_20_interact
     003C7782  GBVM$trigger_20_interact$bd5c162   trigger_20_interact
     003C778A  GBVM_END$trigger_20_interact$bd5   trigger_20_interact
     003C779C  GBVM$trigger_20_interact$8caf65d   trigger_20_interact
     003C779E  GBVM$trigger_20_interact$9b30674   trigger_20_interact
     003C77A2  GBVM$trigger_20_interact$76fc628   trigger_20_interact
     003C77A2  GBVM$trigger_20_interact$f60929b   trigger_20_interact
     003C77A7  GBVM$trigger_20_interact$254f4fb   trigger_20_interact
     003C77AE  GBVM$trigger_20_interact$0f3efdd   trigger_20_interact
     003C77B2  GBVM$trigger_20_interact$af88f7f   trigger_20_interact
     003C77C6  GBVM$trigger_20_interact$1a9fbed   trigger_20_interact
     003C77CE  GBVM_END$trigger_20_interact$1a9   trigger_20_interact
     003C77CE  GBVM_END$trigger_20_interact$f60   trigger_20_interact
     003C77D0  _trigger_213_interact              trigger_213_interact
     003C77D3  GBVM$trigger_213_interact$9df1cc   trigger_213_interact
     003C77F1  GBVM$trigger_213_interact$66ef96   trigger_213_interact
     003C77F6  GBVM$trigger_213_interact$fa0c29   trigger_213_interact
     003C782D  _trigger_219_interact              trigger_219_interact
     003C7830  GBVM$trigger_219_interact$de1e7e   trigger_219_interact
     003C784E  GBVM$trigger_219_interact$1d5469   trigger_219_interact
     003C7853  GBVM$trigger_219_interact$1a40a0   trigger_219_interact
     003C788A  _trigger_220_interact              trigger_220_interact
     003C789E  GBVM$trigger_220_interact$954745   trigger_220_interact
     003C78A6  GBVM_END$trigger_220_interact$95   trigger_220_interact
     003C78B8  GBVM$trigger_220_interact$86558c   trigger_220_interact
     003C78BA  GBVM$trigger_220_interact$a9928c   trigger_220_interact
     003C78BE  GBVM$trigger_220_interact$a78ba2   trigger_220_interact
ASxxxx Linker V03.00/V05.40 + sdld,  page 122.
Hexadecimal  [32-Bits]

Area                                    Addr        Size        Decimal Bytes (Attributes)
--------------------------------        ----        ----        ------- ----- ------------
_CODE_60                            003C4000    00004000 =       16384. bytes (REL,CON)

      Value  Global                              Global Defined In Module
      -----  --------------------------------   ------------------------
     003C78BE  GBVM$trigger_220_interact$de29dc   trigger_220_interact
     003C78C3  GBVM$trigger_220_interact$ed692b   trigger_220_interact
     003C78CA  GBVM$trigger_220_interact$697c12   trigger_220_interact
     003C78CE  GBVM$trigger_220_interact$a48812   trigger_220_interact
     003C78E2  GBVM$trigger_220_interact$af3d44   trigger_220_interact
     003C78EA  GBVM_END$trigger_220_interact$af   trigger_220_interact
     003C78EA  GBVM_END$trigger_220_interact$de   trigger_220_interact
     003C78EC  _trigger_221_interact              trigger_221_interact
     003C7900  GBVM$trigger_221_interact$105140   trigger_221_interact
     003C7908  GBVM_END$trigger_221_interact$10   trigger_221_interact
     003C791A  GBVM$trigger_221_interact$942bc1   trigger_221_interact
     003C791C  GBVM$trigger_221_interact$95411c   trigger_221_interact
     003C7920  GBVM$trigger_221_interact$8b0a0b   trigger_221_interact
     003C7920  GBVM$trigger_221_interact$e9f3e5   trigger_221_interact
     003C7925  GBVM$trigger_221_interact$5fe11c   trigger_221_interact
     003C792C  GBVM$trigger_221_interact$0710b4   trigger_221_interact
     003C7930  GBVM$trigger_221_interact$8e375b   trigger_221_interact
     003C7944  GBVM$trigger_221_interact$4e68b8   trigger_221_interact
     003C794C  GBVM_END$trigger_221_interact$4e   trigger_221_interact
     003C794C  GBVM_END$trigger_221_interact$8b   trigger_221_interact
     003C794E  _trigger_222_interact              trigger_222_interact
     003C7962  GBVM$trigger_222_interact$51b4bf   trigger_222_interact
     003C796A  GBVM_END$trigger_222_interact$51   trigger_222_interact
     003C797C  GBVM$trigger_222_interact$0c5a4b   trigger_222_interact
     003C797E  GBVM$trigger_222_interact$61c0b0   trigger_222_interact
     003C7982  GBVM$trigger_222_interact$5d3f23   trigger_222_interact
     003C7982  GBVM$trigger_222_interact$c5f577   trigger_222_interact
     003C7987  GBVM$trigger_222_interact$2e8c78   trigger_222_interact
     003C798E  GBVM$trigger_222_interact$f6cb49   trigger_222_interact
     003C7992  GBVM$trigger_222_interact$fe84a7   trigger_222_interact
     003C79A6  GBVM$trigger_222_interact$32b4fa   trigger_222_interact
     003C79AE  GBVM_END$trigger_222_interact$32   trigger_222_interact
     003C79AE  GBVM_END$trigger_222_interact$c5   trigger_222_interact
     003C79B0  _trigger_223_interact              trigger_223_interact
     003C79C4  GBVM$trigger_223_interact$71103e   trigger_223_interact
     003C79CC  GBVM_END$trigger_223_interact$71   trigger_223_interact
     003C79DE  GBVM$trigger_223_interact$58b03d   trigger_223_interact
     003C79E0  GBVM$trigger_223_interact$429ff5   trigger_223_interact
     003C79E4  GBVM$trigger_223_interact$0fbd54   trigger_223_interact
     003C79E4  GBVM$trigger_223_interact$b17581   trigger_223_interact
     003C79E9  GBVM$trigger_223_interact$9366d3   trigger_223_interact
     003C79F0  GBVM$trigger_223_interact$91c674   trigger_223_interact
     003C79F4  GBVM$trigger_223_interact$755a72   trigger_223_interact
     003C7A08  GBVM$trigger_223_interact$a9a1cb   trigger_223_interact
     003C7A10  GBVM_END$trigger_223_interact$0f   trigger_223_interact
     003C7A10  GBVM_END$trigger_223_interact$a9   trigger_223_interact
     003C7A12  _trigger_225_interact              trigger_225_interact
     003C7A26  GBVM$trigger_225_interact$d13884   trigger_225_interact
     003C7A2E  GBVM_END$trigger_225_interact$d1   trigger_225_interact
     003C7A40  GBVM$trigger_225_interact$1dcd9b   trigger_225_interact
     003C7A42  GBVM$trigger_225_interact$9f58ed   trigger_225_interact
ASxxxx Linker V03.00/V05.40 + sdld,  page 123.
Hexadecimal  [32-Bits]

Area                                    Addr        Size        Decimal Bytes (Attributes)
--------------------------------        ----        ----        ------- ----- ------------
_CODE_60                            003C4000    00004000 =       16384. bytes (REL,CON)

      Value  Global                              Global Defined In Module
      -----  --------------------------------   ------------------------
     003C7A46  GBVM$trigger_225_interact$a71cff   trigger_225_interact
     003C7A46  GBVM$trigger_225_interact$e7205e   trigger_225_interact
     003C7A4B  GBVM$trigger_225_interact$12e810   trigger_225_interact
     003C7A52  GBVM$trigger_225_interact$96954d   trigger_225_interact
     003C7A56  GBVM$trigger_225_interact$4f02e4   trigger_225_interact
     003C7A6A  GBVM$trigger_225_interact$3a3f1f   trigger_225_interact
     003C7A72  GBVM_END$trigger_225_interact$3a   trigger_225_interact
     003C7A72  GBVM_END$trigger_225_interact$a7   trigger_225_interact
     003C7A74  _trigger_226_interact              trigger_226_interact
     003C7A77  GBVM$trigger_226_interact$b3e58e   trigger_226_interact
     003C7A95  GBVM$trigger_226_interact$42a13d   trigger_226_interact
     003C7AA1  GBVM$trigger_226_interact$c2acbf   trigger_226_interact
     003C7AD8  _trigger_23_interact               trigger_23_interact
     003C7AEC  GBVM$trigger_23_interact$adc508c   trigger_23_interact
     003C7AF4  GBVM_END$trigger_23_interact$adc   trigger_23_interact
     003C7B06  GBVM$trigger_23_interact$de291aa   trigger_23_interact
     003C7B08  GBVM$trigger_23_interact$4b74d42   trigger_23_interact
     003C7B0C  GBVM$trigger_23_interact$200e18a   trigger_23_interact
     003C7B0C  GBVM$trigger_23_interact$b0cfd03   trigger_23_interact
     003C7B11  GBVM$trigger_23_interact$29e8c02   trigger_23_interact
     003C7B18  GBVM$trigger_23_interact$c2b76c8   trigger_23_interact
     003C7B1C  GBVM$trigger_23_interact$8892908   trigger_23_interact
     003C7B30  GBVM$trigger_23_interact$5cf7ff1   trigger_23_interact
     003C7B38  GBVM_END$trigger_23_interact$5cf   trigger_23_interact
     003C7B38  GBVM_END$trigger_23_interact$b0c   trigger_23_interact
     003C7B3A  _trigger_230_interact              trigger_230_interact
     003C7B3D  GBVM$trigger_230_interact$34ff99   trigger_230_interact
     003C7B5B  GBVM$trigger_230_interact$218e22   trigger_230_interact
     003C7B67  GBVM$trigger_230_interact$66190a   trigger_230_interact
     003C7B9E  _trigger_38_interact               trigger_38_interact
     003C7BB2  GBVM$trigger_38_interact$74f8a26   trigger_38_interact
     003C7BBA  GBVM_END$trigger_38_interact$74f   trigger_38_interact
     003C7BCC  GBVM$trigger_38_interact$2c292df   trigger_38_interact
     003C7BCE  GBVM$trigger_38_interact$233e272   trigger_38_interact
     003C7BCE  GBVM$trigger_38_interact$c637daf   trigger_38_interact
     003C7BD3  GBVM$trigger_38_interact$d57cc65   trigger_38_interact
     003C7BDA  GBVM$trigger_38_interact$375fc42   trigger_38_interact
     003C7BDE  GBVM$trigger_38_interact$f7ec079   trigger_38_interact
     003C7BF2  GBVM$trigger_38_interact$b69534d   trigger_38_interact
     003C7BFA  GBVM$trigger_38_interact$e7ff4db   trigger_38_interact
     003C7BFA  GBVM_END$trigger_38_interact$233   trigger_38_interact
     003C7BFA  GBVM_END$trigger_38_interact$b69   trigger_38_interact
     003C7C00  _trigger_4_interact                trigger_4_interact
     003C7C03  GBVM$trigger_4_interact$6e39758e   trigger_4_interact
     003C7C03  GBVM$trigger_4_interact$718336f2   trigger_4_interact
     003C7C21  GBVM$trigger_4_interact$71c04e75   trigger_4_interact
     003C7C2D  GBVM$trigger_4_interact$1e3b02af   trigger_4_interact
     003C7C2D  GBVM_END$trigger_4_interact$6e39   trigger_4_interact
     003C7C64  _trigger_42_interact               trigger_42_interact
     003C7C67  GBVM$trigger_42_interact$abed180   trigger_42_interact
     003C7C95  GBVM$trigger_42_interact$432dbf0   trigger_42_interact
ASxxxx Linker V03.00/V05.40 + sdld,  page 124.
Hexadecimal  [32-Bits]

Area                                    Addr        Size        Decimal Bytes (Attributes)
--------------------------------        ----        ----        ------- ----- ------------
_CODE_60                            003C4000    00004000 =       16384. bytes (REL,CON)

      Value  Global                              Global Defined In Module
      -----  --------------------------------   ------------------------
     003C7CA1  GBVM$trigger_42_interact$81c6165   trigger_42_interact
     003C7CAD  GBVM$trigger_42_interact$d1937c9   trigger_42_interact
     003C7CE0  _trigger_45_interact               trigger_45_interact
     003C7CE3  GBVM$trigger_45_interact$a750db8   trigger_45_interact
     003C7CE3  GBVM$trigger_45_interact$d8306c0   trigger_45_interact
     003C7D01  GBVM$trigger_45_interact$2ae7e81   trigger_45_interact
     003C7D0D  GBVM$trigger_45_interact$c6b487d   trigger_45_interact
     003C7D0D  GBVM_END$trigger_45_interact$d83   trigger_45_interact
     003C7D44  _trigger_6_interact                trigger_6_interact
     003C7D47  GBVM$trigger_6_interact$024412ec   trigger_6_interact
     003C7D47  GBVM$trigger_6_interact$de12fcf1   trigger_6_interact
     003C7D65  GBVM$trigger_6_interact$3bcc6e8e   trigger_6_interact
     003C7D71  GBVM$trigger_6_interact$8eed393d   trigger_6_interact
     003C7D71  GBVM_END$trigger_6_interact$de12   trigger_6_interact
     003C7DA8  _trigger_69_interact               trigger_69_interact
     003C7DAB  GBVM$trigger_69_interact$9ef4b23   trigger_69_interact
     003C7DAB  GBVM$trigger_69_interact$c05dfbf   trigger_69_interact
     003C7DC9  GBVM$trigger_69_interact$f79959e   trigger_69_interact
     003C7DD5  GBVM$trigger_69_interact$15bc8a7   trigger_69_interact
     003C7DD5  GBVM_END$trigger_69_interact$c05   trigger_69_interact
     003C7E0C  _trigger_7_interact                trigger_7_interact
     003C7E0F  GBVM$trigger_7_interact$bea91a0d   trigger_7_interact
     003C7E0F  GBVM$trigger_7_interact$c29ffe4a   trigger_7_interact
     003C7E2D  GBVM$trigger_7_interact$657ec476   trigger_7_interact
     003C7E39  GBVM$trigger_7_interact$88e57225   trigger_7_interact
     003C7E39  GBVM_END$trigger_7_interact$c29f   trigger_7_interact
     003C7E70  _trigger_81_interact               trigger_81_interact
     003C7E73  GBVM$trigger_81_interact$084cc9b   trigger_81_interact
     003C7E73  GBVM$trigger_81_interact$83de412   trigger_81_interact
     003C7E91  GBVM$trigger_81_interact$5a6d2ac   trigger_81_interact
     003C7E9D  GBVM$trigger_81_interact$4ca58f2   trigger_81_interact
     003C7E9D  GBVM_END$trigger_81_interact$83d   trigger_81_interact
     003C7ED4  _trigger_9_interact                trigger_9_interact
     003C7ED7  GBVM$trigger_9_interact$6f749673   trigger_9_interact
     003C7EF5  GBVM$trigger_9_interact$2dfc50d3   trigger_9_interact
     003C7F01  GBVM$trigger_9_interact$386f4d66   trigger_9_interact
     003C7F38  _trigger_91_interact               trigger_91_interact
     003C7F3B  GBVM$trigger_91_interact$678e441   trigger_91_interact
     003C7F3B  GBVM$trigger_91_interact$b1ebbec   trigger_91_interact
     003C7F59  GBVM$trigger_91_interact$1f81230   trigger_91_interact
     003C7F65  GBVM$trigger_91_interact$7227b51   trigger_91_interact
     003C7F65  GBVM_END$trigger_91_interact$b1e   trigger_91_interact
     003C7F9C  _trigger_92_interact               trigger_92_interact
     003C7F9F  GBVM$trigger_92_interact$4263d32   trigger_92_interact
     003C7F9F  GBVM$trigger_92_interact$d2a18d5   trigger_92_interact
     003C7FBD  GBVM$trigger_92_interact$2be323c   trigger_92_interact
     003C7FC9  GBVM$trigger_92_interact$e4b02d2   trigger_92_interact
     003C7FC9  GBVM_END$trigger_92_interact$426   trigger_92_interact

ASxxxx Linker V03.00/V05.40 + sdld,  page 125.
Hexadecimal  [32-Bits]

Area                                    Addr        Size        Decimal Bytes (Attributes)
--------------------------------        ----        ----        ------- ----- ------------
_CODE_58                            003A4000    00004000 =       16384. bytes (REL,CON)

      Value  Global                              Global Defined In Module
      -----  --------------------------------   ------------------------
     003A4000  _CGBFadeToWhiteStep                fade_manager
     003A4039  _CGBFadeToBlackStep                fade_manager
     003A4074  _ApplyPaletteChangeColor           fade_manager
     003A40B1  _fade_speeds                       fade_manager
     003A40B8  _DMGFadeToWhiteStep                fade_manager
     003A40D9  _DMGFadeToBlackStep                fade_manager
     003A40FC  _ApplyPaletteChangeDMG             fade_manager
     003A4152  _fade_init                         fade_manager
     003A4173  _fade_in                           fade_manager
     003A41AB  _fade_out                          fade_manager
     003A41E4  _fade_update                       fade_manager
     003A4237  _fade_applypalettechange           fade_manager
     003A4249  _fade_setspeed                     fade_manager
     003A4259  _fade_in_modal                     fade_manager
     003A4273  _fade_out_modal                    fade_manager
     003A428D  _printer_send_receive              gbprinter
     003A42C3  _printer_send_byte                 gbprinter
     003A42D6  _printer_send_command              gbprinter
     003A42F9  _printer_print_tile                gbprinter
     003A438A  _printer_wait                      gbprinter
     003A43BC  _gbprinter_detect                  gbprinter
     003A43D6  _gbprinter_print_overlay           gbprinter
     003A45A3  _atan2                             math_atan2
     003A473C  _atan2_table                       math_atan2
     003A48A4  ___func_VM_PALETTE                 vm_palette
     003A48A4  _vm_load_palette                   vm_palette
     003A4A9B  ___func_VM_SIO                     vm_sio
     003A4A9B  _vm_sio_set_mode                   vm_sio
     003A4AAD  _vm_sio_exchange                   vm_sio
     003A4D8F  _actor_23_interact                 actor_23_interact
     003A4D92  GBVM$actor_23_interact$64b1d94c_   actor_23_interact
     003A4DBD  GBVM$actor_23_interact$8d6ad284_   actor_23_interact
     003A4DCF  GBVM$actor_23_interact$9936e7fb_   actor_23_interact
     003A4DDB  GBVM$actor_23_interact$fbe3b140_   actor_23_interact
     003A4DED  GBVM$actor_23_interact$dd1d1271_   actor_23_interact
     003A4DF9  GBVM$actor_23_interact$dd081f98_   actor_23_interact
     003A4E00  GBVM$actor_23_interact$31aab5f4_   actor_23_interact
     003A4E46  GBVM$actor_23_interact$db5868ca_   actor_23_interact
     003A4E46  GBVM_END$actor_23_interact$fbe3b   actor_23_interact
     003A4E51  GBVM$actor_23_interact$ad0acd2c_   actor_23_interact
     003A4E59  GBVM$actor_23_interact$4ae2072a_   actor_23_interact
     003A4E59  GBVM$actor_23_interact$f08a0e89_   actor_23_interact
     003A4E59  GBVM_END$actor_23_interact$8d6ad   actor_23_interact
     003A4E5E  GBVM$actor_23_interact$072f11ab_   actor_23_interact
     003A4E65  GBVM$actor_23_interact$e0539e7d_   actor_23_interact
     003A4E69  GBVM$actor_23_interact$fb87fda9_   actor_23_interact
     003A4E7D  GBVM$actor_23_interact$64a5f887_   actor_23_interact
     003A4E85  GBVM$actor_23_interact$54d9a33e_   actor_23_interact
     003A4E85  GBVM_END$actor_23_interact$64a5f   actor_23_interact
     003A4E97  GBVM$actor_23_interact$1b3b4242_   actor_23_interact
ASxxxx Linker V03.00/V05.40 + sdld,  page 126.
Hexadecimal  [32-Bits]

Area                                    Addr        Size        Decimal Bytes (Attributes)
--------------------------------        ----        ----        ------- ----- ------------
_CODE_58                            003A4000    00004000 =       16384. bytes (REL,CON)

      Value  Global                              Global Defined In Module
      -----  --------------------------------   ------------------------
     003A5041  GBVM_END$actor_23_interact$4ae20   actor_23_interact
     003A5041  GBVM_END$actor_23_interact$54d9a   actor_23_interact
     003A5042  ___func_avatar_font_0              avatar_font_0
     003A521E  _avatar_font_0                     avatar_font_0
     003A5226  ___func_bg_earth_level_1_intro_t   bg_earth_level_1_intro_tilem
     003A5226  _bg_earth_level_1_intro_tilemap    bg_earth_level_1_intro_tilem
     003A54F6  ___func_bg_luna_boss_room_tilese   bg_luna_boss_room_tileset
     003A54F6  _bg_luna_boss_room_tileset         bg_luna_boss_room_tileset
     003A57D8  ___func_bg_venus_ac_ventilation2   bg_venus_ac_ventilation2_til
     003A57D8  _bg_venus_ac_ventilation2_tilese   bg_venus_ac_ventilation2_til
     003A5AEA  ___func_bg_venus_defence_tunnel_   bg_venus_defence_tunnel_tile
     003A5AEA  _bg_venus_defence_tunnel_tileset   bg_venus_defence_tunnel_tile
     003A5C9C  ___func_bg_venus_office_tileset    bg_venus_office_tileset
     003A5C9C  _bg_venus_office_tileset           bg_venus_office_tileset
     003A5E7E  ___func_scene_18_collisions        scene_18_collisions
     003A5E7E  _scene_18_collisions               scene_18_collisions
     003A614E  ___func_scene_20_triggers          scene_20_triggers
     003A614E  _scene_20_triggers                 scene_20_triggers
     003A6156  _scene_21_init                     scene_21_init
     003A6159  GBVM$scene_21_init$c20b9c13_25e6   scene_21_init
     003A616E  GBVM$scene_21_init$21ae5f91_fc39   scene_21_init
     003A6176  GBVM$scene_21_init$autofade$01b4   scene_21_init
     003A6176  GBVM_END$scene_21_init$c20b9c13_   scene_21_init
     003A6181  GBVM$scene_21_init$c6fcc792_0822   scene_21_init
     003A6181  GBVM$scene_21_init$fd3c9a3c_be0d   scene_21_init
     003A6186  GBVM$scene_21_init$e815ede0_5930   scene_21_init
     003A618D  GBVM$scene_21_init$3d220b3e_8ba2   scene_21_init
     003A6191  GBVM$scene_21_init$ab849ef4_cdd8   scene_21_init
     003A61A5  GBVM$scene_21_init$41cdd18f_0641   scene_21_init
     003A61AD  GBVM$scene_21_init$853821c7_be8e   scene_21_init
     003A61AD  GBVM_END$scene_21_init$41cdd18f_   scene_21_init
     003A61BF  GBVM$scene_21_init$6225b240_27c6   scene_21_init
     003A61CA  GBVM$scene_21_init$a5ea3054_02fe   scene_21_init
     003A6371  GBVM$scene_21_init$8fe18ff8_99d4   scene_21_init
     003A6380  GBVM$scene_21_init$000484e8_6bba   scene_21_init
     003A6380  GBVM$scene_21_init$714c7896_f9a3   scene_21_init
     003A6380  GBVM_END$scene_21_init$853821c7_   scene_21_init
     003A6385  GBVM$scene_21_init$7adcc5f2_7feb   scene_21_init
     003A638C  GBVM$scene_21_init$219c7903_66cb   scene_21_init
     003A6390  GBVM$scene_21_init$f77c4e97_5e6b   scene_21_init
     003A63A4  GBVM$scene_21_init$171a59d0_0a56   scene_21_init
     003A63AC  GBVM_END$scene_21_init$171a59d0_   scene_21_init
     003A63AC  GBVM_END$scene_21_init$714c7896_   scene_21_init
     003A63AC  GBVM_END$scene_21_init$fd3c9a3c_   scene_21_init
     003A63AD  _scene_23_init                     scene_23_init
     003A63B0  GBVM$scene_23_init$1b23b8e9_f1f1   scene_23_init
     003A63C5  GBVM$scene_23_init$8fc9d1a1_cda9   scene_23_init
     003A63CD  GBVM$scene_23_init$autofade$2110   scene_23_init
     003A63CD  GBVM_END$scene_23_init$1b23b8e9_   scene_23_init
     003A63D8  GBVM$scene_23_init$40eaeae9_5f3c   scene_23_init
     003A63D8  GBVM$scene_23_init$581d85a6_5191   scene_23_init
ASxxxx Linker V03.00/V05.40 + sdld,  page 127.
Hexadecimal  [32-Bits]

Area                                    Addr        Size        Decimal Bytes (Attributes)
--------------------------------        ----        ----        ------- ----- ------------
_CODE_58                            003A4000    00004000 =       16384. bytes (REL,CON)

      Value  Global                              Global Defined In Module
      -----  --------------------------------   ------------------------
     003A63DD  GBVM$scene_23_init$8aa24e33_956b   scene_23_init
     003A63E4  GBVM$scene_23_init$1f1d5441_3d42   scene_23_init
     003A63E8  GBVM$scene_23_init$4162655a_94c4   scene_23_init
     003A63FC  GBVM$scene_23_init$7725350a_a6c7   scene_23_init
     003A6404  GBVM$scene_23_init$d02e005f_fd0a   scene_23_init
     003A6404  GBVM_END$scene_23_init$7725350a_   scene_23_init
     003A6416  GBVM$scene_23_init$32abbb82_fe57   scene_23_init
     003A65C0  GBVM_END$scene_23_init$581d85a6_   scene_23_init
     003A65C0  GBVM_END$scene_23_init$d02e005f_   scene_23_init
     003A65C1  _scene_51_init                     scene_51_init
     003A65C4  GBVM$scene_51_init$f4bc43c1_b20c   scene_51_init
     003A65C9  GBVM$scene_51_init$6ac7f884_13ac   scene_51_init
     003A65CE  GBVM$scene_51_init$356eb959_34c2   scene_51_init
     003A65CE  GBVM$scene_51_init$ac5f440d_2e04   scene_51_init
     003A65D6  GBVM$scene_51_init$73523995_7df9   scene_51_init
     003A65D6  GBVM_END$scene_51_init$356eb959_   scene_51_init
     003A65E1  GBVM$scene_51_init$autofade$8512   scene_51_init
     003A65EC  GBVM$scene_51_init$055be0d3_1db1   scene_51_init
     003A66AC  GBVM$scene_51_init$4f270d4e_683b   scene_51_init
     003A66B7  GBVM$scene_51_init$bb52b2bf_87e1   scene_51_init
     003A66C2  GBVM$scene_51_init$66694b60_5a0b   scene_51_init
     003A66FB  GBVM$scene_51_init$bbf3f13a_a47b   scene_51_init
     003A6706  GBVM$scene_51_init$86437ed7_0561   scene_51_init
     003A67A1  GBVM$scene_51_init$1ff32872_cdbd   scene_51_init
     003A67AC  GBVM$scene_51_init$c71d9e5a_5a74   scene_51_init
     003A6892  GBVM$scene_51_init$aac919d6_0a00   scene_51_init
     003A6897  GBVM$scene_51_init$5681dc1e_925d   scene_51_init
     003A689C  GBVM$scene_51_init$98dbf032_4b71   scene_51_init
     003A689C  GBVM$scene_51_init$9eacd90c_ca6f   scene_51_init
     003A68A1  GBVM$scene_51_init$00ae2f15_4160   scene_51_init
     003A68A8  GBVM$scene_51_init$a10dba8d_7984   scene_51_init
     003A68AC  GBVM$scene_51_init$6e2a32b3_83cc   scene_51_init
     003A68C0  GBVM$scene_51_init$e09c50a6_aa8c   scene_51_init
     003A68CF  GBVM$scene_51_init$494589ee_9233   scene_51_init
     003A68D7  GBVM_END$scene_51_init$494589ee_   scene_51_init
     003A68D7  GBVM_END$scene_51_init$98dbf032_   scene_51_init
     003A68D8  _scene_54_init                     scene_54_init
     003A68DB  GBVM$scene_54_init$1e6aee2e_da64   scene_54_init
     003A68F0  GBVM$scene_54_init$beb008f5_27b7   scene_54_init
     003A68F8  GBVM$scene_54_init$ca59197b_e8d0   scene_54_init
     003A68F8  GBVM_END$scene_54_init$1e6aee2e_   scene_54_init
     003A690D  GBVM$scene_54_init$3d653a87_c91b   scene_54_init
     003A6915  GBVM$scene_54_init$2ae789ea_6180   scene_54_init
     003A6915  GBVM_END$scene_54_init$ca59197b_   scene_54_init
     003A692A  GBVM$scene_54_init$89c6a05e_cc15   scene_54_init
     003A6932  GBVM$scene_54_init$autofade$6b16   scene_54_init
     003A6932  GBVM_END$scene_54_init$2ae789ea_   scene_54_init
     003A693D  GBVM$scene_54_init$d66c0632_eb0e   scene_54_init
     003A694F  GBVM$scene_54_init$5e51f5ea_2b5a   scene_54_init
     003A6A2E  GBVM$scene_54_init$d08d3f38_801a   scene_54_init
     003A6A39  GBVM$scene_54_init$9cc5fa0e_aad5   scene_54_init
ASxxxx Linker V03.00/V05.40 + sdld,  page 128.
Hexadecimal  [32-Bits]

Area                                    Addr        Size        Decimal Bytes (Attributes)
--------------------------------        ----        ----        ------- ----- ------------
_CODE_58                            003A4000    00004000 =       16384. bytes (REL,CON)

      Value  Global                              Global Defined In Module
      -----  --------------------------------   ------------------------
     003A6A48  GBVM$scene_54_init$1b9bc904_cd8f   scene_54_init
     003A6A48  GBVM$scene_54_init$3f6ea86d_f818   scene_54_init
     003A6A48  GBVM_END$scene_54_init$d66c0632_   scene_54_init
     003A6A4D  GBVM$scene_54_init$33ad0687_5cd9   scene_54_init
     003A6A54  GBVM$scene_54_init$6eb31dd3_e828   scene_54_init
     003A6A58  GBVM$scene_54_init$d3edc332_f51c   scene_54_init
     003A6A6C  GBVM$scene_54_init$2cb92e99_f0de   scene_54_init
     003A6A74  GBVM_END$scene_54_init$1b9bc904_   scene_54_init
     003A6A74  GBVM_END$scene_54_init$2cb92e99_   scene_54_init
     003A6A75  _scene_9_init                      scene_9_init
     003A6A78  GBVM$scene_9_init$7ca9fbc8_42b5_   scene_9_init
     003A6A7C  GBVM$scene_9_init$autofade$a9686   scene_9_init
     003A6A87  GBVM$scene_9_init$693ce7ea_2847_   scene_9_init
     003A6A99  GBVM$scene_9_init$52d1e83f_7d12_   scene_9_init
     003A6AA4  GBVM$scene_9_init$d92366c3_c4be_   scene_9_init
     003A6B40  GBVM$scene_9_init$8d562ab0_c861_   scene_9_init
     003A6BF8  GBVM$scene_9_init$f9939824_3fec_   scene_9_init
     003A6C07  GBVM$scene_9_init$05966631_6bfb_   scene_9_init
     003A6C07  GBVM$scene_9_init$77af7177_31e0_   scene_9_init
     003A6C07  GBVM_END$scene_9_init$693ce7ea_2   scene_9_init
     003A6C0C  GBVM$scene_9_init$4910a9de_b905_   scene_9_init
     003A6C13  GBVM$scene_9_init$b4e55d3d_dbf2_   scene_9_init
     003A6C17  GBVM$scene_9_init$20a14970_4472_   scene_9_init
     003A6C2B  GBVM$scene_9_init$4f5587e5_a3ce_   scene_9_init
     003A6C33  GBVM_END$scene_9_init$4f5587e5_a   scene_9_init
     003A6C33  GBVM_END$scene_9_init$77af7177_3   scene_9_init
     003A6C34  _script_8                          script_8
     003A6C36  GBVM$script_8$be35414a_25fc_4a10   script_8
     003A6C71  GBVM$script_8$7474998d_0112_47b1   script_8
     003A6CBE  GBVM$script_8$40dbb8f0_06b2_4a3f   script_8
     003A6CC7  GBVM$script_8$86f465c6_e9a1_41ca   script_8
     003A6CCE  GBVM$script_8$6693528d_2f3a_4c76   script_8
     003A6CF7  GBVM$script_8$b1fe5215_c152_43f7   script_8
     003A6D64  GBVM$script_8$1280d886_32c9_4847   script_8
     003A6D6D  GBVM$script_8$cc90e1a4_8ea6_463e   script_8
     003A6D81  GBVM$script_8$296624ba_64a4_4a06   script_8
     003A6D94  GBVM$script_8$2d6b7438_7a60_4f51   script_8
     003A6DD4  GBVM$script_8$93c89fd8_d9d8_4e70   script_8
     003A6DD7  GBVM$script_8$9af19f4f_75e9_4298   script_8
     003A6DDB  GBVM_END$script_8$296624ba_64a4_   script_8
     003A6DDE  GBVM$script_8$e074a0e5_167f_480a   script_8
     003A6DF1  GBVM$script_8$3a3bfdde_f0ba_43bf   script_8
     003A6E31  GBVM$script_8$2af5c84e_f52c_4084   script_8
     003A6E34  GBVM$script_8$d973e586_1234_407c   script_8
     003A6E38  GBVM_END$script_8$e074a0e5_167f_   script_8
     003A6E3B  GBVM$script_8$59faf5dd_ada5_4ecc   script_8
     003A6E4E  GBVM$script_8$324bc800_f67b_4195   script_8
     003A6E8E  GBVM$script_8$7e7ac7b0_f57a_45e1   script_8
     003A6E91  GBVM$script_8$2e314014_b6df_4681   script_8
     003A6E95  GBVM_END$script_8$59faf5dd_ada5_   script_8
     003A6E98  GBVM_END$script_8$cc90e1a4_8ea6_   script_8
ASxxxx Linker V03.00/V05.40 + sdld,  page 129.
Hexadecimal  [32-Bits]

Area                                    Addr        Size        Decimal Bytes (Attributes)
--------------------------------        ----        ----        ------- ----- ------------
_CODE_58                            003A4000    00004000 =       16384. bytes (REL,CON)

      Value  Global                              Global Defined In Module
      -----  --------------------------------   ------------------------
     003A6E9B  GBVM$script_8$8b9eeb15_9258_4d74   script_8
     003A6ECD  GBVM_END$script_8$1280d886_32c9_   script_8
     003A6ECD  GBVM_END$script_8$40dbb8f0_06b2_   script_8
     003A6ED1  _script_9                          script_9
     003A6ED3  GBVM$script_9$a5214e45_66a8_48a1   script_9
     003A6F04  GBVM$script_9$494abb76_4bff_439f   script_9
     003A6F74  GBVM$script_9$fbf9cbec_00f2_443f   script_9
     003A6F85  GBVM$script_9$9e14f49f_f3e7_4daa   script_9
     003A6FBA  GBVM$script_9$41863a92_f54c_4415   script_9
     003A6FCD  GBVM$script_9$9431fe06_9779_4d76   script_9
     003A6FFF  GBVM$script_9$239648b0_ecfa_436e   script_9
     003A7003  GBVM$script_9$92e960d9_2511_4992   script_9
     003A7005  GBVM$script_9$56d2581e_bfda_4104   script_9
     003A7037  GBVM$script_9$3d67491a_d05e_4fc5   script_9
     003A7038  GBVM_END$script_9$41863a92_f54c_   script_9
     003A703B  GBVM$script_9$f3bb9379_095c_436d   script_9
     003A704E  GBVM$script_9$ee6c9e87_4f74_4a33   script_9
     003A7080  GBVM$script_9$a8ea8b35_dd3b_4091   script_9
     003A7084  GBVM$script_9$f653b45d_9724_4c8a   script_9
     003A7086  GBVM$script_9$5116b4ac_f148_4dad   script_9
     003A70B8  GBVM$script_9$f3ab5c93_86f4_4f78   script_9
     003A70B9  GBVM_END$script_9$f3bb9379_095c_   script_9
     003A70BC  GBVM$script_9$5e9f51c3_36a9_4183   script_9
     003A70CF  GBVM$script_9$a81d77c4_d0ff_4e51   script_9
     003A7101  GBVM$script_9$f913734b_d704_4aec   script_9
     003A7105  GBVM$script_9$b445ec9a_d101_4392   script_9
     003A7107  GBVM$script_9$f4d8370f_3400_4ddf   script_9
     003A7139  GBVM$script_9$8f168683_e282_49f8   script_9
     003A713A  GBVM_END$script_9$5e9f51c3_36a9_   script_9
     003A713D  GBVM_END$script_9$fbf9cbec_00f2_   script_9
     003A7141  _script_input_24                   script_input_24
     003A7143  GBVM$script_input_24$f7b630ec_4d   script_input_24
     003A714E  GBVM$script_input_24$3f9a9f0d_c2   script_input_24
     003A72B9  GBVM$script_input_24$d7e27dd3_d0   script_input_24
     003A72EC  ___func_sprite_ember_foxphoenix    sprite_ember_foxphoenix
     003A72EC  _sprite_ember_foxphoenix_metaspr   sprite_ember_foxphoenix
     003A7304  _sprite_ember_foxphoenix_metaspr   sprite_ember_foxphoenix
     003A731C  _sprite_ember_foxphoenix_metaspr   sprite_ember_foxphoenix
     003A7334  _sprite_ember_foxphoenix_metaspr   sprite_ember_foxphoenix
     003A734C  _sprite_ember_foxphoenix_metaspr   sprite_ember_foxphoenix
     003A7364  _sprite_ember_foxphoenix_metaspr   sprite_ember_foxphoenix
     003A737C  _sprite_ember_foxphoenix_metaspr   sprite_ember_foxphoenix
     003A7380  _sprite_ember_foxphoenix_metaspr   sprite_ember_foxphoenix
     003A7398  _sprite_ember_foxphoenix_metaspr   sprite_ember_foxphoenix
     003A73B0  _sprite_ember_foxphoenix_metaspr   sprite_ember_foxphoenix
     003A73C8  _sprite_ember_foxphoenix_metaspr   sprite_ember_foxphoenix
     003A73E4  _sprite_ember_foxphoenix_metaspr   sprite_ember_foxphoenix
     003A73FC  _sprite_ember_foxphoenix_metaspr   sprite_ember_foxphoenix
     003A7414  _sprite_ember_foxphoenix_metaspr   sprite_ember_foxphoenix
     003A742C  _sprite_ember_foxphoenix_metaspr   sprite_ember_foxphoenix
     003A7444  _sprite_ember_foxphoenix_metaspr   sprite_ember_foxphoenix
ASxxxx Linker V03.00/V05.40 + sdld,  page 130.
Hexadecimal  [32-Bits]

Area                                    Addr        Size        Decimal Bytes (Attributes)
--------------------------------        ----        ----        ------- ----- ------------
_CODE_58                            003A4000    00004000 =       16384. bytes (REL,CON)

      Value  Global                              Global Defined In Module
      -----  --------------------------------   ------------------------
     003A7466  _sprite_ember_foxphoenix_animati   sprite_ember_foxphoenix
     003A7476  _sprite_ember_foxphoenix_animati   sprite_ember_foxphoenix
     003A7478  _sprite_ember_foxphoenix           sprite_ember_foxphoenix
     003A748B  ___func_sprite_ember_phoenix_cop   sprite_ember_phoenix_copy_ti
     003A748B  _sprite_ember_phoenix_copy_tiles   sprite_ember_phoenix_copy_ti
     003A762D  ___func_sprite_ember_phoenix_cop   sprite_ember_phoenix_copy
     003A762D  _sprite_ember_phoenix_copy_metas   sprite_ember_phoenix_copy
     003A764D  _sprite_ember_phoenix_copy_metas   sprite_ember_phoenix_copy
     003A7669  _sprite_ember_phoenix_copy_metas   sprite_ember_phoenix_copy
     003A7685  _sprite_ember_phoenix_copy_metas   sprite_ember_phoenix_copy
     003A769D  _sprite_ember_phoenix_copy_metas   sprite_ember_phoenix_copy
     003A76B9  _sprite_ember_phoenix_copy_metas   sprite_ember_phoenix_copy
     003A76D5  _sprite_ember_phoenix_copy_metas   sprite_ember_phoenix_copy
     003A76F5  _sprite_ember_phoenix_copy_metas   sprite_ember_phoenix_copy
     003A7715  _sprite_ember_phoenix_copy_metas   sprite_ember_phoenix_copy
     003A7731  _sprite_ember_phoenix_copy_metas   sprite_ember_phoenix_copy
     003A7749  _sprite_ember_phoenix_copy_metas   sprite_ember_phoenix_copy
     003A7761  _sprite_ember_phoenix_copy_metas   sprite_ember_phoenix_copy
     003A777D  _sprite_ember_phoenix_copy_metas   sprite_ember_phoenix_copy
     003A77A5  _sprite_ember_phoenix_copy_anima   sprite_ember_phoenix_copy
     003A77B5  _sprite_ember_phoenix_copy_anima   sprite_ember_phoenix_copy
     003A77B7  _sprite_ember_phoenix_copy         sprite_ember_phoenix_copy
     003A77CA  ___func_sprite_ember_stationary    sprite_ember_stationary
     003A77CA  _sprite_ember_stationary_metaspr   sprite_ember_stationary
     003A77E6  _sprite_ember_stationary_metaspr   sprite_ember_stationary
     003A7802  _sprite_ember_stationary_metaspr   sprite_ember_stationary
     003A781E  _sprite_ember_stationary_metaspr   sprite_ember_stationary
     003A783A  _sprite_ember_stationary_metaspr   sprite_ember_stationary
     003A7856  _sprite_ember_stationary_metaspr   sprite_ember_stationary
     003A7872  _sprite_ember_stationary_metaspr   sprite_ember_stationary
     003A788E  _sprite_ember_stationary_metaspr   sprite_ember_stationary
     003A78AA  _sprite_ember_stationary_metaspr   sprite_ember_stationary
     003A78AE  _sprite_ember_stationary_metaspr   sprite_ember_stationary
     003A78CA  _sprite_ember_stationary_metaspr   sprite_ember_stationary
     003A78E6  _sprite_ember_stationary_metaspr   sprite_ember_stationary
     003A78FE  _sprite_ember_stationary_metaspr   sprite_ember_stationary
     003A791A  _sprite_ember_stationary_metaspr   sprite_ember_stationary
     003A7936  _sprite_ember_stationary_metaspr   sprite_ember_stationary
     003A795C  _sprite_ember_stationary_animati   sprite_ember_stationary
     003A796C  _sprite_ember_stationary_animati   sprite_ember_stationary
     003A796E  _sprite_ember_stationary           sprite_ember_stationary
     003A7981  ___func_sprite_number_ui_tileset   sprite_number_ui_tileset
     003A7981  _sprite_number_ui_tileset          sprite_number_ui_tileset
     003A7B83  ___func_sprite_perlite_animated_   sprite_perlite_animated_tile
     003A7B83  _sprite_perlite_animated_tileset   sprite_perlite_animated_tile
     003A7D25  ___func_sprite_sly_slimeball_cop   sprite_sly_slimeball_copy
     003A7D25  _sprite_sly_slimeball_copy_metas   sprite_sly_slimeball_copy
     003A7D49  _sprite_sly_slimeball_copy_metas   sprite_sly_slimeball_copy
     003A7D6D  _sprite_sly_slimeball_copy_metas   sprite_sly_slimeball_copy
     003A7D91  _sprite_sly_slimeball_copy_metas   sprite_sly_slimeball_copy
     003A7DB5  _sprite_sly_slimeball_copy_metas   sprite_sly_slimeball_copy
ASxxxx Linker V03.00/V05.40 + sdld,  page 131.
Hexadecimal  [32-Bits]

Area                                    Addr        Size        Decimal Bytes (Attributes)
--------------------------------        ----        ----        ------- ----- ------------
_CODE_58                            003A4000    00004000 =       16384. bytes (REL,CON)

      Value  Global                              Global Defined In Module
      -----  --------------------------------   ------------------------
     003A7DD9  _sprite_sly_slimeball_copy_metas   sprite_sly_slimeball_copy
     003A7DFD  _sprite_sly_slimeball_copy_metas   sprite_sly_slimeball_copy
     003A7E09  _sprite_sly_slimeball_copy_anima   sprite_sly_slimeball_copy
     003A7E19  _sprite_sly_slimeball_copy_anima   sprite_sly_slimeball_copy
     003A7E1B  _sprite_sly_slimeball_copy         sprite_sly_slimeball_copy
     003A7E2E  _trigger_215_interact              trigger_215_interact
     003A7E2F  GBVM$trigger_215_interact$33f0aa   trigger_215_interact
     003A7E3A  GBVM$trigger_215_interact$cfb995   trigger_215_interact
     003A7F04  GBVM$trigger_215_interact$89f239   trigger_215_interact
     003A7F0F  GBVM$trigger_215_interact$d7ae6d   trigger_215_interact
ASxxxx Linker V03.00/V05.40 + sdld,  page 132.
Hexadecimal  [32-Bits]

Area                                    Addr        Size        Decimal Bytes (Attributes)
--------------------------------        ----        ----        ------- ----- ------------
_CODE_59                            003B4000    00004000 =       16384. bytes (REL,CON)

      Value  Global                              Global Defined In Module
      -----  --------------------------------   ------------------------
     003B4068  _save_sram_banks                   
     003B40F0  _erase_flash                       
     003B4106  _parallax_init                     parallax
     003B4126  ___func_VM_MATH                    vm_math
     003B4126  _vm_sin_scale                      vm_math
     003B41C2  _vm_cos_scale                      vm_math
     003B4260  ___func_VM_MUSIC                   vm_music
     003B4260  _vm_music_play                     vm_music
     003B42AD  _vm_music_stop                     vm_music
     003B42CF  _vm_music_mute                     vm_music
     003B430D  _vm_music_routine                  vm_music
     003B4334  _vm_music_setpos                   vm_music
     003B433A  _vm_sound_mastervol                vm_music
     003B4340  _vm_sfx_play                       vm_music
     003B43B3  _actor_18_interact                 actor_18_interact
     003B43B6  GBVM$actor_18_interact$66b72c40_   actor_18_interact
     003B43E1  GBVM$actor_18_interact$a3936b42_   actor_18_interact
     003B43F3  GBVM$actor_18_interact$b61908aa_   actor_18_interact
     003B43FF  GBVM$actor_18_interact$2515bdac_   actor_18_interact
     003B4411  GBVM$actor_18_interact$174abdd1_   actor_18_interact
     003B441D  GBVM$actor_18_interact$ccc391b9_   actor_18_interact
     003B4424  GBVM$actor_18_interact$5b73f775_   actor_18_interact
     003B446A  GBVM$actor_18_interact$df1dc18c_   actor_18_interact
     003B446A  GBVM_END$actor_18_interact$2515b   actor_18_interact
     003B4475  GBVM$actor_18_interact$a87661b3_   actor_18_interact
     003B447D  GBVM$actor_18_interact$123a9463_   actor_18_interact
     003B447D  GBVM$actor_18_interact$a656507f_   actor_18_interact
     003B447D  GBVM_END$actor_18_interact$a3936   actor_18_interact
     003B4482  GBVM$actor_18_interact$292397dd_   actor_18_interact
     003B4489  GBVM$actor_18_interact$e993a074_   actor_18_interact
     003B448D  GBVM$actor_18_interact$4dbca961_   actor_18_interact
     003B44A1  GBVM$actor_18_interact$f4b27838_   actor_18_interact
     003B44A9  GBVM_END$actor_18_interact$a6565   actor_18_interact
     003B44A9  GBVM_END$actor_18_interact$f4b27   actor_18_interact
     003B44AA  _actor_19_interact                 actor_19_interact
     003B44AD  GBVM$actor_19_interact$59093c57_   actor_19_interact
     003B44D8  GBVM$actor_19_interact$8911f4f9_   actor_19_interact
     003B44EA  GBVM$actor_19_interact$6069434a_   actor_19_interact
     003B44F6  GBVM$actor_19_interact$d5ff41be_   actor_19_interact
     003B4508  GBVM$actor_19_interact$7910868a_   actor_19_interact
     003B4514  GBVM$actor_19_interact$e9976af4_   actor_19_interact
     003B451B  GBVM$actor_19_interact$19b22943_   actor_19_interact
     003B4561  GBVM$actor_19_interact$472a2f2f_   actor_19_interact
     003B4561  GBVM_END$actor_19_interact$d5ff4   actor_19_interact
     003B456C  GBVM$actor_19_interact$dad6def5_   actor_19_interact
     003B4574  GBVM$actor_19_interact$462eb1b0_   actor_19_interact
     003B4574  GBVM$actor_19_interact$4a81e056_   actor_19_interact
     003B4574  GBVM_END$actor_19_interact$8911f   actor_19_interact
     003B4579  GBVM$actor_19_interact$c93f992f_   actor_19_interact
     003B4580  GBVM$actor_19_interact$1214fbfd_   actor_19_interact
ASxxxx Linker V03.00/V05.40 + sdld,  page 133.
Hexadecimal  [32-Bits]

Area                                    Addr        Size        Decimal Bytes (Attributes)
--------------------------------        ----        ----        ------- ----- ------------
_CODE_59                            003B4000    00004000 =       16384. bytes (REL,CON)

      Value  Global                              Global Defined In Module
      -----  --------------------------------   ------------------------
     003B4584  GBVM$actor_19_interact$00a77e3b_   actor_19_interact
     003B4598  GBVM$actor_19_interact$c3ed9e99_   actor_19_interact
     003B45A0  GBVM_END$actor_19_interact$462eb   actor_19_interact
     003B45A0  GBVM_END$actor_19_interact$c3ed9   actor_19_interact
     003B45A1  _actor_2_interact                  actor_2_interact
     003B45A2  GBVM$actor_2_interact$5641c9ed_a   actor_2_interact
     003B45AD  GBVM$actor_2_interact$0a53bc0a_6   actor_2_interact
     003B46DE  _actor_20_interact                 actor_20_interact
     003B46E1  GBVM$actor_20_interact$f95a094f_   actor_20_interact
     003B470C  GBVM$actor_20_interact$95951f53_   actor_20_interact
     003B471E  GBVM$actor_20_interact$996a5c04_   actor_20_interact
     003B472A  GBVM$actor_20_interact$38d8f5f6_   actor_20_interact
     003B473C  GBVM$actor_20_interact$0f8a2a57_   actor_20_interact
     003B4748  GBVM$actor_20_interact$cf83aae7_   actor_20_interact
     003B474F  GBVM$actor_20_interact$de24cba4_   actor_20_interact
     003B4795  GBVM$actor_20_interact$034490d9_   actor_20_interact
     003B4795  GBVM_END$actor_20_interact$38d8f   actor_20_interact
     003B47A0  GBVM$actor_20_interact$07a147c0_   actor_20_interact
     003B47A8  GBVM$actor_20_interact$0cb3179c_   actor_20_interact
     003B47A8  GBVM$actor_20_interact$854c6277_   actor_20_interact
     003B47A8  GBVM_END$actor_20_interact$95951   actor_20_interact
     003B47AD  GBVM$actor_20_interact$34b5d878_   actor_20_interact
     003B47B4  GBVM$actor_20_interact$0b8627de_   actor_20_interact
     003B47B8  GBVM$actor_20_interact$b0958b7a_   actor_20_interact
     003B47CC  GBVM$actor_20_interact$82258940_   actor_20_interact
     003B47D4  GBVM_END$actor_20_interact$0cb31   actor_20_interact
     003B47D4  GBVM_END$actor_20_interact$82258   actor_20_interact
     003B47D5  _actor_21_interact                 actor_21_interact
     003B47D8  GBVM$actor_21_interact$0955f896_   actor_21_interact
     003B4803  GBVM$actor_21_interact$30a9525a_   actor_21_interact
     003B4815  GBVM$actor_21_interact$272fd31f_   actor_21_interact
     003B4821  GBVM$actor_21_interact$54f0ccc1_   actor_21_interact
     003B4833  GBVM$actor_21_interact$e6c50b20_   actor_21_interact
     003B483F  GBVM$actor_21_interact$23bf24b4_   actor_21_interact
     003B4846  GBVM$actor_21_interact$fb56ee77_   actor_21_interact
     003B488C  GBVM$actor_21_interact$c8e6a8d6_   actor_21_interact
     003B488C  GBVM_END$actor_21_interact$54f0c   actor_21_interact
     003B4897  GBVM$actor_21_interact$2b4eac33_   actor_21_interact
     003B489F  GBVM$actor_21_interact$06012cc3_   actor_21_interact
     003B489F  GBVM$actor_21_interact$5c424e00_   actor_21_interact
     003B489F  GBVM_END$actor_21_interact$30a95   actor_21_interact
     003B48A4  GBVM$actor_21_interact$c81168b7_   actor_21_interact
     003B48AB  GBVM$actor_21_interact$cf162526_   actor_21_interact
     003B48AF  GBVM$actor_21_interact$54072a5a_   actor_21_interact
     003B48C3  GBVM$actor_21_interact$eff961d6_   actor_21_interact
     003B48CB  GBVM_END$actor_21_interact$5c424   actor_21_interact
     003B48CB  GBVM_END$actor_21_interact$eff96   actor_21_interact
     003B48CC  _actor_22_interact                 actor_22_interact
     003B48CF  GBVM$actor_22_interact$b19db8f5_   actor_22_interact
     003B48FA  GBVM$actor_22_interact$75db61eb_   actor_22_interact
     003B490C  GBVM$actor_22_interact$e1d7bc79_   actor_22_interact
ASxxxx Linker V03.00/V05.40 + sdld,  page 134.
Hexadecimal  [32-Bits]

Area                                    Addr        Size        Decimal Bytes (Attributes)
--------------------------------        ----        ----        ------- ----- ------------
_CODE_59                            003B4000    00004000 =       16384. bytes (REL,CON)

      Value  Global                              Global Defined In Module
      -----  --------------------------------   ------------------------
     003B4918  GBVM$actor_22_interact$8c6e384a_   actor_22_interact
     003B492A  GBVM$actor_22_interact$e634e776_   actor_22_interact
     003B4936  GBVM$actor_22_interact$e807e5ef_   actor_22_interact
     003B493D  GBVM$actor_22_interact$f62a458c_   actor_22_interact
     003B4983  GBVM$actor_22_interact$1bb53656_   actor_22_interact
     003B4983  GBVM_END$actor_22_interact$8c6e3   actor_22_interact
     003B498E  GBVM$actor_22_interact$e7c3fbf8_   actor_22_interact
     003B4996  GBVM$actor_22_interact$107da7e1_   actor_22_interact
     003B4996  GBVM$actor_22_interact$9f5fe9a8_   actor_22_interact
     003B4996  GBVM_END$actor_22_interact$75db6   actor_22_interact
     003B499B  GBVM$actor_22_interact$d9c70ffc_   actor_22_interact
     003B49A2  GBVM$actor_22_interact$22a63202_   actor_22_interact
     003B49A6  GBVM$actor_22_interact$c9db9b77_   actor_22_interact
     003B49BA  GBVM$actor_22_interact$f9676357_   actor_22_interact
     003B49C2  GBVM_END$actor_22_interact$9f5fe   actor_22_interact
     003B49C2  GBVM_END$actor_22_interact$f9676   actor_22_interact
     003B49C3  _actor_24_update                   actor_24_update
     003B49C5  GBVM$actor_24_update$d5707fe6_0c   actor_24_update
     003B49DA  GBVM$actor_24_update$64177c49_fd   actor_24_update
     003B49EC  GBVM$actor_24_update$b46c31ce_50   actor_24_update
     003B49F8  GBVM$actor_24_update$f99448fa_f8   actor_24_update
     003B4A62  GBVM$actor_24_update$537d62bc_72   actor_24_update
     003B4A6D  GBVM$actor_24_update$534e63e9_c8   actor_24_update
     003B4A76  GBVM$actor_24_update$2c27a698_63   actor_24_update
     003B4A81  GBVM$actor_24_update$bfef7fc2_94   actor_24_update
     003B4A8C  GBVM$actor_24_update$bcdaa45f_8b   actor_24_update
     003B4A97  GBVM$actor_24_update$9e0fa74f_4a   actor_24_update
     003B4A9F  GBVM$actor_24_update$901d9e06_ef   actor_24_update
     003B4AAA  GBVM$actor_24_update$3f0ac511_39   actor_24_update
     003B4AAA  GBVM_END$actor_24_update$b46c31c   actor_24_update
     003B4AAA  GBVM_END$actor_24_update$f99448f   actor_24_update
     003B4AF8  GBVM$actor_24_update$6453b480_9a   actor_24_update
     003B4B16  GBVM$actor_24_update$af8b9915_25   actor_24_update
     003B4B50  GBVM_END$actor_24_update$64177c4   actor_24_update
     003B4B50  GBVM_END$actor_24_update$d5707fe   actor_24_update
     003B4B55  _actor_3_interact                  actor_3_interact
     003B4B58  GBVM$actor_3_interact$a18dfe21_6   actor_3_interact
     003B4B83  GBVM$actor_3_interact$ce931646_e   actor_3_interact
     003B4B95  GBVM$actor_3_interact$e79d8060_9   actor_3_interact
     003B4BA1  GBVM$actor_3_interact$82052d4f_8   actor_3_interact
     003B4BB3  GBVM$actor_3_interact$723f645d_3   actor_3_interact
     003B4BBF  GBVM$actor_3_interact$9f226911_a   actor_3_interact
     003B4BC6  GBVM$actor_3_interact$a33393f6_5   actor_3_interact
     003B4C0C  GBVM$actor_3_interact$5f189a69_d   actor_3_interact
     003B4C0C  GBVM_END$actor_3_interact$82052d   actor_3_interact
     003B4C17  GBVM$actor_3_interact$2672aae3_8   actor_3_interact
     003B4C1F  GBVM$actor_3_interact$337be08d_0   actor_3_interact
     003B4C1F  GBVM$actor_3_interact$f141a059_4   actor_3_interact
     003B4C1F  GBVM_END$actor_3_interact$ce9316   actor_3_interact
     003B4C24  GBVM$actor_3_interact$38f42ca0_e   actor_3_interact
     003B4C2B  GBVM$actor_3_interact$33389b60_c   actor_3_interact
ASxxxx Linker V03.00/V05.40 + sdld,  page 135.
Hexadecimal  [32-Bits]

Area                                    Addr        Size        Decimal Bytes (Attributes)
--------------------------------        ----        ----        ------- ----- ------------
_CODE_59                            003B4000    00004000 =       16384. bytes (REL,CON)

      Value  Global                              Global Defined In Module
      -----  --------------------------------   ------------------------
     003B4C2F  GBVM$actor_3_interact$c725c675_d   actor_3_interact
     003B4C43  GBVM$actor_3_interact$764b6f69_5   actor_3_interact
     003B4C4B  GBVM_END$actor_3_interact$764b6f   actor_3_interact
     003B4C4B  GBVM_END$actor_3_interact$f141a0   actor_3_interact
     003B4C4C  _actor_39_interact                 actor_39_interact
     003B4C4F  GBVM$actor_39_interact$45d2736d_   actor_39_interact
     003B4C7A  GBVM$actor_39_interact$ae8572eb_   actor_39_interact
     003B4C8C  GBVM$actor_39_interact$87ba2148_   actor_39_interact
     003B4C98  GBVM$actor_39_interact$33892a3e_   actor_39_interact
     003B4CAA  GBVM$actor_39_interact$6fa93e78_   actor_39_interact
     003B4CB6  GBVM$actor_39_interact$cfc7228c_   actor_39_interact
     003B4CBD  GBVM$actor_39_interact$b64374e5_   actor_39_interact
     003B4D03  GBVM$actor_39_interact$b22dd3a0_   actor_39_interact
     003B4D03  GBVM_END$actor_39_interact$33892   actor_39_interact
     003B4D0E  GBVM$actor_39_interact$c38e50b4_   actor_39_interact
     003B4D16  GBVM$actor_39_interact$3d94a93e_   actor_39_interact
     003B4D16  GBVM$actor_39_interact$78e7ed31_   actor_39_interact
     003B4D16  GBVM_END$actor_39_interact$ae857   actor_39_interact
     003B4D1B  GBVM$actor_39_interact$1aa5d8b6_   actor_39_interact
     003B4D22  GBVM$actor_39_interact$737808e4_   actor_39_interact
     003B4D26  GBVM$actor_39_interact$8319a10f_   actor_39_interact
     003B4D3A  GBVM$actor_39_interact$f4d4f884_   actor_39_interact
     003B4D42  GBVM_END$actor_39_interact$78e7e   actor_39_interact
     003B4D42  GBVM_END$actor_39_interact$f4d4f   actor_39_interact
     003B4D43  _actor_4_interact                  actor_4_interact
     003B4D46  GBVM$actor_4_interact$038bade0_7   actor_4_interact
     003B4D71  GBVM$actor_4_interact$c785eb5f_b   actor_4_interact
     003B4D83  GBVM$actor_4_interact$c185e325_1   actor_4_interact
     003B4D8F  GBVM$actor_4_interact$85c70892_0   actor_4_interact
     003B4DA1  GBVM$actor_4_interact$b5234248_3   actor_4_interact
     003B4DAD  GBVM$actor_4_interact$946c4f67_f   actor_4_interact
     003B4DB4  GBVM$actor_4_interact$35ae6ba2_9   actor_4_interact
     003B4DFA  GBVM$actor_4_interact$53913abb_b   actor_4_interact
     003B4DFA  GBVM_END$actor_4_interact$85c708   actor_4_interact
     003B4E05  GBVM$actor_4_interact$115a2a2d_6   actor_4_interact
     003B4E0D  GBVM$actor_4_interact$0c3c215c_7   actor_4_interact
     003B4E0D  GBVM$actor_4_interact$7bcb3f72_3   actor_4_interact
     003B4E0D  GBVM_END$actor_4_interact$c785eb   actor_4_interact
     003B4E12  GBVM$actor_4_interact$a25dc877_0   actor_4_interact
     003B4E19  GBVM$actor_4_interact$e4b05797_a   actor_4_interact
     003B4E1D  GBVM$actor_4_interact$55d65086_b   actor_4_interact
     003B4E31  GBVM$actor_4_interact$950144ea_6   actor_4_interact
     003B4E39  GBVM_END$actor_4_interact$0c3c21   actor_4_interact
     003B4E39  GBVM_END$actor_4_interact$950144   actor_4_interact
     003B4E3A  _actor_40_interact                 actor_40_interact
     003B4E3D  GBVM$actor_40_interact$8abc70ee_   actor_40_interact
     003B4E68  GBVM$actor_40_interact$15d06fbb_   actor_40_interact
     003B4E7A  GBVM$actor_40_interact$d0a05db6_   actor_40_interact
     003B4E86  GBVM$actor_40_interact$66c69c39_   actor_40_interact
     003B4E98  GBVM$actor_40_interact$04ff8edb_   actor_40_interact
     003B4EA4  GBVM$actor_40_interact$f8cfddfb_   actor_40_interact
ASxxxx Linker V03.00/V05.40 + sdld,  page 136.
Hexadecimal  [32-Bits]

Area                                    Addr        Size        Decimal Bytes (Attributes)
--------------------------------        ----        ----        ------- ----- ------------
_CODE_59                            003B4000    00004000 =       16384. bytes (REL,CON)

      Value  Global                              Global Defined In Module
      -----  --------------------------------   ------------------------
     003B4EAB  GBVM$actor_40_interact$cbbfe498_   actor_40_interact
     003B4EF1  GBVM$actor_40_interact$c01afdb2_   actor_40_interact
     003B4EF1  GBVM_END$actor_40_interact$66c69   actor_40_interact
     003B4EFC  GBVM$actor_40_interact$56084cb2_   actor_40_interact
     003B4F04  GBVM$actor_40_interact$5116b678_   actor_40_interact
     003B4F04  GBVM$actor_40_interact$eba096df_   actor_40_interact
     003B4F04  GBVM_END$actor_40_interact$15d06   actor_40_interact
     003B4F09  GBVM$actor_40_interact$e81da143_   actor_40_interact
     003B4F10  GBVM$actor_40_interact$c0e6caca_   actor_40_interact
     003B4F14  GBVM$actor_40_interact$9056f723_   actor_40_interact
     003B4F28  GBVM$actor_40_interact$6bbec5e3_   actor_40_interact
     003B4F30  GBVM_END$actor_40_interact$6bbec   actor_40_interact
     003B4F30  GBVM_END$actor_40_interact$eba09   actor_40_interact
     003B4F31  _actor_41_interact                 actor_41_interact
     003B4F34  GBVM$actor_41_interact$6bbbdb54_   actor_41_interact
     003B4F5F  GBVM$actor_41_interact$a4be70b0_   actor_41_interact
     003B4F71  GBVM$actor_41_interact$d36c4444_   actor_41_interact
     003B4F7D  GBVM$actor_41_interact$e5a34c06_   actor_41_interact
     003B4F8F  GBVM$actor_41_interact$4e282926_   actor_41_interact
     003B4F9B  GBVM$actor_41_interact$ebdf2436_   actor_41_interact
     003B4FA2  GBVM$actor_41_interact$45b401ce_   actor_41_interact
     003B4FE8  GBVM$actor_41_interact$a242c947_   actor_41_interact
     003B4FE8  GBVM_END$actor_41_interact$e5a34   actor_41_interact
     003B4FF3  GBVM$actor_41_interact$1cffebb0_   actor_41_interact
     003B4FFB  GBVM$actor_41_interact$931d212f_   actor_41_interact
     003B4FFB  GBVM$actor_41_interact$adf9077f_   actor_41_interact
     003B4FFB  GBVM_END$actor_41_interact$a4be7   actor_41_interact
     003B5000  GBVM$actor_41_interact$e5b7e60d_   actor_41_interact
     003B5007  GBVM$actor_41_interact$312c21fc_   actor_41_interact
     003B500B  GBVM$actor_41_interact$abcd7493_   actor_41_interact
     003B501F  GBVM$actor_41_interact$d8319348_   actor_41_interact
     003B5027  GBVM_END$actor_41_interact$adf90   actor_41_interact
     003B5027  GBVM_END$actor_41_interact$d8319   actor_41_interact
     003B5028  _actor_5_interact                  actor_5_interact
     003B502B  GBVM$actor_5_interact$eb3251ac_e   actor_5_interact
     003B5056  GBVM$actor_5_interact$38107972_d   actor_5_interact
     003B5068  GBVM$actor_5_interact$3c02116d_e   actor_5_interact
     003B5074  GBVM$actor_5_interact$2d2ba0f6_c   actor_5_interact
     003B5086  GBVM$actor_5_interact$35417e54_4   actor_5_interact
     003B5092  GBVM$actor_5_interact$1fe1066c_5   actor_5_interact
     003B5099  GBVM$actor_5_interact$b05f694e_0   actor_5_interact
     003B50DF  GBVM$actor_5_interact$c9cb37ff_c   actor_5_interact
     003B50DF  GBVM_END$actor_5_interact$2d2ba0   actor_5_interact
     003B50EA  GBVM$actor_5_interact$ea9df51b_7   actor_5_interact
     003B50F2  GBVM$actor_5_interact$a0a4cd33_9   actor_5_interact
     003B50F2  GBVM$actor_5_interact$f9f46893_8   actor_5_interact
     003B50F2  GBVM_END$actor_5_interact$381079   actor_5_interact
     003B50F7  GBVM$actor_5_interact$b2f01fd1_4   actor_5_interact
     003B50FE  GBVM$actor_5_interact$d889cc94_0   actor_5_interact
     003B5102  GBVM$actor_5_interact$61b0fd48_4   actor_5_interact
     003B5116  GBVM$actor_5_interact$27faba76_8   actor_5_interact
ASxxxx Linker V03.00/V05.40 + sdld,  page 137.
Hexadecimal  [32-Bits]

Area                                    Addr        Size        Decimal Bytes (Attributes)
--------------------------------        ----        ----        ------- ----- ------------
_CODE_59                            003B4000    00004000 =       16384. bytes (REL,CON)

      Value  Global                              Global Defined In Module
      -----  --------------------------------   ------------------------
     003B511E  GBVM_END$actor_5_interact$27faba   actor_5_interact
     003B511E  GBVM_END$actor_5_interact$a0a4cd   actor_5_interact
     003B511F  _actor_55_interact                 actor_55_interact
     003B5122  GBVM$actor_55_interact$f90e4d74_   actor_55_interact
     003B514D  GBVM$actor_55_interact$8a4a808e_   actor_55_interact
     003B515F  GBVM$actor_55_interact$f331cd5d_   actor_55_interact
     003B516B  GBVM$actor_55_interact$1ef741fc_   actor_55_interact
     003B517D  GBVM$actor_55_interact$0b1ca5d2_   actor_55_interact
     003B5189  GBVM$actor_55_interact$16f51aa3_   actor_55_interact
     003B5190  GBVM$actor_55_interact$256c69e0_   actor_55_interact
     003B51D6  GBVM$actor_55_interact$6c185093_   actor_55_interact
     003B51D6  GBVM_END$actor_55_interact$1ef74   actor_55_interact
     003B51E1  GBVM$actor_55_interact$1367dff9_   actor_55_interact
     003B51E9  GBVM$actor_55_interact$420a6afd_   actor_55_interact
     003B51E9  GBVM$actor_55_interact$a7b86ac5_   actor_55_interact
     003B51E9  GBVM_END$actor_55_interact$8a4a8   actor_55_interact
     003B51EE  GBVM$actor_55_interact$4c8e5b0d_   actor_55_interact
     003B51F5  GBVM$actor_55_interact$a8c05bc1_   actor_55_interact
     003B51F9  GBVM$actor_55_interact$a96a5604_   actor_55_interact
     003B520D  GBVM$actor_55_interact$a5e1ce91_   actor_55_interact
     003B5215  GBVM_END$actor_55_interact$420a6   actor_55_interact
     003B5215  GBVM_END$actor_55_interact$a5e1c   actor_55_interact
     003B5216  _actor_57_interact                 actor_57_interact
     003B5219  GBVM$actor_57_interact$4559accf_   actor_57_interact
     003B5244  GBVM$actor_57_interact$882638ba_   actor_57_interact
     003B5256  GBVM$actor_57_interact$2dac88e8_   actor_57_interact
     003B5262  GBVM$actor_57_interact$2c9be435_   actor_57_interact
     003B5274  GBVM$actor_57_interact$9867ae4d_   actor_57_interact
     003B5280  GBVM$actor_57_interact$f4a82e8c_   actor_57_interact
     003B5287  GBVM$actor_57_interact$b1540002_   actor_57_interact
     003B52CD  GBVM$actor_57_interact$b377ca0a_   actor_57_interact
     003B52CD  GBVM_END$actor_57_interact$2c9be   actor_57_interact
     003B52D8  GBVM$actor_57_interact$592646d5_   actor_57_interact
     003B52E0  GBVM$actor_57_interact$7b767c67_   actor_57_interact
     003B52E0  GBVM$actor_57_interact$dd69cd68_   actor_57_interact
     003B52E0  GBVM_END$actor_57_interact$88263   actor_57_interact
     003B52E5  GBVM$actor_57_interact$608878f2_   actor_57_interact
     003B52EC  GBVM$actor_57_interact$ee2fa98d_   actor_57_interact
     003B52F0  GBVM$actor_57_interact$617a784d_   actor_57_interact
     003B5304  GBVM$actor_57_interact$c3ed52c0_   actor_57_interact
     003B530C  GBVM_END$actor_57_interact$7b767   actor_57_interact
     003B530C  GBVM_END$actor_57_interact$c3ed5   actor_57_interact
     003B530D  _actor_59_interact                 actor_59_interact
     003B5310  GBVM$actor_59_interact$8bffcb1c_   actor_59_interact
     003B533B  GBVM$actor_59_interact$96433192_   actor_59_interact
     003B534D  GBVM$actor_59_interact$8b2bccc0_   actor_59_interact
     003B5359  GBVM$actor_59_interact$285b5a68_   actor_59_interact
     003B536B  GBVM$actor_59_interact$6926b57d_   actor_59_interact
     003B5377  GBVM$actor_59_interact$e55c27d6_   actor_59_interact
     003B537E  GBVM$actor_59_interact$7154bd01_   actor_59_interact
     003B53C4  GBVM$actor_59_interact$63068f3f_   actor_59_interact
ASxxxx Linker V03.00/V05.40 + sdld,  page 138.
Hexadecimal  [32-Bits]

Area                                    Addr        Size        Decimal Bytes (Attributes)
--------------------------------        ----        ----        ------- ----- ------------
_CODE_59                            003B4000    00004000 =       16384. bytes (REL,CON)

      Value  Global                              Global Defined In Module
      -----  --------------------------------   ------------------------
     003B53C4  GBVM_END$actor_59_interact$285b5   actor_59_interact
     003B53CF  GBVM$actor_59_interact$8dc144e4_   actor_59_interact
     003B53D7  GBVM$actor_59_interact$56ed6e07_   actor_59_interact
     003B53D7  GBVM$actor_59_interact$ebe4745b_   actor_59_interact
     003B53D7  GBVM_END$actor_59_interact$96433   actor_59_interact
     003B53DC  GBVM$actor_59_interact$534ac828_   actor_59_interact
     003B53E3  GBVM$actor_59_interact$dacbd235_   actor_59_interact
     003B53E7  GBVM$actor_59_interact$c3c93139_   actor_59_interact
     003B53FB  GBVM$actor_59_interact$11e2522f_   actor_59_interact
     003B5403  GBVM_END$actor_59_interact$11e25   actor_59_interact
     003B5403  GBVM_END$actor_59_interact$ebe47   actor_59_interact
     003B5404  _actor_6_interact                  actor_6_interact
     003B5407  GBVM$actor_6_interact$525ccfb9_0   actor_6_interact
     003B5432  GBVM$actor_6_interact$73f2a9b7_5   actor_6_interact
     003B5444  GBVM$actor_6_interact$9db8e2d0_c   actor_6_interact
     003B5450  GBVM$actor_6_interact$d08347d5_1   actor_6_interact
     003B5462  GBVM$actor_6_interact$724ff86c_4   actor_6_interact
     003B546E  GBVM$actor_6_interact$6fa36a65_4   actor_6_interact
     003B5475  GBVM$actor_6_interact$92ce1e44_5   actor_6_interact
     003B54BB  GBVM$actor_6_interact$a392c3e7_4   actor_6_interact
     003B54BB  GBVM_END$actor_6_interact$d08347   actor_6_interact
     003B54C6  GBVM$actor_6_interact$cb52da56_f   actor_6_interact
     003B54CE  GBVM$actor_6_interact$08068641_1   actor_6_interact
     003B54CE  GBVM$actor_6_interact$4850c5fc_d   actor_6_interact
     003B54CE  GBVM_END$actor_6_interact$73f2a9   actor_6_interact
     003B54D3  GBVM$actor_6_interact$18629222_3   actor_6_interact
     003B54DA  GBVM$actor_6_interact$4c5f183f_6   actor_6_interact
     003B54DE  GBVM$actor_6_interact$cb7414f4_2   actor_6_interact
     003B54F2  GBVM$actor_6_interact$bb524df1_2   actor_6_interact
     003B54FA  GBVM_END$actor_6_interact$080686   actor_6_interact
     003B54FA  GBVM_END$actor_6_interact$bb524d   actor_6_interact
     003B54FB  ___func_bg_earth_shuttle_bay_sec   bg_earth_shuttle_bay_secret_
     003B54FB  _bg_earth_shuttle_bay_secret_til   bg_earth_shuttle_bay_secret_
     003B568B  ___func_bg_earth_shuttle_bay_sec   bg_earth_shuttle_bay_secret_
     003B568B  _bg_earth_shuttle_bay_secret_til   bg_earth_shuttle_bay_secret_
     003B581B  ___func_bg_luna_boss_room_tilema   bg_luna_boss_room_tilemap_at
     003B581B  _bg_luna_boss_room_tilemap_attr    bg_luna_boss_room_tilemap_at
     003B59AB  ___func_bg_luna_boss_room_tilema   bg_luna_boss_room_tilemap
     003B59AB  _bg_luna_boss_room_tilemap         bg_luna_boss_room_tilemap
     003B5B3B  ___func_scene_1_collisions         scene_1_collisions
     003B5B3B  _scene_1_collisions                scene_1_collisions
     003B5CA3  ___func_scene_10_collisions        scene_10_collisions
     003B5CA3  _scene_10_collisions               scene_10_collisions
     003B5E33  ___func_scene_2_collisions         scene_2_collisions
     003B5E33  _scene_2_collisions                scene_2_collisions
     003B5F9B  _scene_20_init                     scene_20_init
     003B5F9E  GBVM$scene_20_init$2b5404f8_e011   scene_20_init
     003B5FA9  GBVM$scene_20_init$autofade$7ea2   scene_20_init
     003B5FB4  GBVM$scene_20_init$b83e81a2_881b   scene_20_init
     003B6053  GBVM$scene_20_init$929b03d7_ee93   scene_20_init
     003B607C  GBVM$scene_20_init$a1d41344_62a7   scene_20_init
ASxxxx Linker V03.00/V05.40 + sdld,  page 139.
Hexadecimal  [32-Bits]

Area                                    Addr        Size        Decimal Bytes (Attributes)
--------------------------------        ----        ----        ------- ----- ------------
_CODE_59                            003B4000    00004000 =       16384. bytes (REL,CON)

      Value  Global                              Global Defined In Module
      -----  --------------------------------   ------------------------
     003B60D9  GBVM$scene_20_init$0f4cf5af_d387   scene_20_init
     003B60E2  GBVM$scene_20_init$1c65acaa_324b   scene_20_init
     003B60EB  GBVM$scene_20_init$f9856882_b276   scene_20_init
     003B60FB  GBVM$scene_20_init$f20bc07f_1a4f   scene_20_init
     003B6100  GBVM$scene_20_init$dc031d4f_fcce   scene_20_init
     003B6124  _scene_26_init                     scene_26_init
     003B6127  GBVM$scene_26_init$ee9618a8_34ef   scene_26_init
     003B612B  GBVM$scene_26_init$autofade$5897   scene_26_init
     003B6136  GBVM$scene_26_init$7a2ffdaa_3dfa   scene_26_init
     003B6148  GBVM$scene_26_init$892c310b_1cdf   scene_26_init
     003B6153  GBVM$scene_26_init$879942cb_e3a6   scene_26_init
     003B61FA  GBVM$scene_26_init$0e621c09_8bbb   scene_26_init
     003B6209  GBVM$scene_26_init$66c8ddda_447a   scene_26_init
     003B6209  GBVM$scene_26_init$fe85f5d8_384b   scene_26_init
     003B6209  GBVM_END$scene_26_init$7a2ffdaa_   scene_26_init
     003B620E  GBVM$scene_26_init$6ff8429e_4cf6   scene_26_init
     003B6215  GBVM$scene_26_init$5961c1cd_6a96   scene_26_init
     003B6219  GBVM$scene_26_init$77c98ee6_5aa5   scene_26_init
     003B622D  GBVM$scene_26_init$afaefb9c_89bb   scene_26_init
     003B6235  GBVM_END$scene_26_init$66c8ddda_   scene_26_init
     003B6235  GBVM_END$scene_26_init$afaefb9c_   scene_26_init
     003B6236  ___func_scene_28_collisions        scene_28_collisions
     003B6236  _scene_28_collisions               scene_28_collisions
     003B63C6  ___func_scene_3_collisions         scene_3_collisions
     003B63C6  _scene_3_collisions                scene_3_collisions
     003B652E  ___func_scene_4_collisions         scene_4_collisions
     003B652E  _scene_4_collisions                scene_4_collisions
     003B6696  ___func_scene_40_actors            scene_40_actors
     003B6696  _scene_40_actors                   scene_40_actors
     003B679A  ___func_scene_41_collisions        scene_41_collisions
     003B679A  _scene_41_collisions               scene_41_collisions
     003B692A  ___func_scene_48_collisions        scene_48_collisions
     003B692A  _scene_48_collisions               scene_48_collisions
     003B6A92  ___func_scene_5_collisions         scene_5_collisions
     003B6A92  _scene_5_collisions                scene_5_collisions
     003B6BFA  ___func_scene_6_collisions         scene_6_collisions
     003B6BFA  _scene_6_collisions                scene_6_collisions
     003B6D62  ___func_scene_7_collisions         scene_7_collisions
     003B6D62  _scene_7_collisions                scene_7_collisions
     003B6ECA  _script_input_22                   script_input_22
     003B6ECC  GBVM$script_input_22$683abd48_de   script_input_22
     003B6ED7  GBVM$script_input_22$b839a459_a3   script_input_22
     003B6FF1  GBVM$script_input_22$09364238_14   script_input_22
     003B6FF1  GBVM$script_input_22$bb415971_23   script_input_22
     003B6FF6  GBVM$script_input_22$abfdd3fc_bb   script_input_22
     003B6FFD  GBVM$script_input_22$1a2077bc_f2   script_input_22
     003B7001  GBVM$script_input_22$401d110a_81   script_input_22
     003B7015  GBVM$script_input_22$bab7c53e_ba   script_input_22
     003B701D  GBVM_END$script_input_22$bab7c53   script_input_22
     003B701D  GBVM_END$script_input_22$bb41597   script_input_22
     003B701E  ___func_sprite_actor_animated_ti   sprite_actor_animated_tilese
ASxxxx Linker V03.00/V05.40 + sdld,  page 140.
Hexadecimal  [32-Bits]

Area                                    Addr        Size        Decimal Bytes (Attributes)
--------------------------------        ----        ----        ------- ----- ------------
_CODE_59                            003B4000    00004000 =       16384. bytes (REL,CON)

      Value  Global                              Global Defined In Module
      -----  --------------------------------   ------------------------
     003B701E  _sprite_actor_animated_tileset     sprite_actor_animated_tilese
     003B7160  ___func_sprite_cedric_tileset      sprite_cedric_tileset
     003B7160  _sprite_cedric_tileset             sprite_cedric_tileset
     003B72C2  ___func_sprite_ember_dragon_copy   sprite_ember_dragon_copy_til
     003B72C2  _sprite_ember_dragon_copy_tilese   sprite_ember_dragon_copy_til
     003B7424  ___func_sprite_ember_dragon_copy   sprite_ember_dragon_copy
     003B7424  _sprite_ember_dragon_copy_metasp   sprite_ember_dragon_copy
     003B743C  _sprite_ember_dragon_copy_metasp   sprite_ember_dragon_copy
     003B7454  _sprite_ember_dragon_copy_metasp   sprite_ember_dragon_copy
     003B746C  _sprite_ember_dragon_copy_metasp   sprite_ember_dragon_copy
     003B7484  _sprite_ember_dragon_copy_metasp   sprite_ember_dragon_copy
     003B749C  _sprite_ember_dragon_copy_metasp   sprite_ember_dragon_copy
     003B74B4  _sprite_ember_dragon_copy_metasp   sprite_ember_dragon_copy
     003B74C8  _sprite_ember_dragon_copy_metasp   sprite_ember_dragon_copy
     003B74DC  _sprite_ember_dragon_copy_metasp   sprite_ember_dragon_copy
     003B74F0  _sprite_ember_dragon_copy_metasp   sprite_ember_dragon_copy
     003B7508  _sprite_ember_dragon_copy_metasp   sprite_ember_dragon_copy
     003B7520  _sprite_ember_dragon_copy_metasp   sprite_ember_dragon_copy
     003B7540  _sprite_ember_dragon_copy_animat   sprite_ember_dragon_copy
     003B7550  _sprite_ember_dragon_copy_animat   sprite_ember_dragon_copy
     003B7552  _sprite_ember_dragon_copy          sprite_ember_dragon_copy
     003B7565  ___func_sprite_ember_foxphoenix_   sprite_ember_foxphoenix_tile
     003B7565  _sprite_ember_foxphoenix_tileset   sprite_ember_foxphoenix_tile
     003B76A7  ___func_sprite_ember_phoenix_top   sprite_ember_phoenix_topdow_
     003B76A7  _sprite_ember_phoenix_topdow_til   sprite_ember_phoenix_topdow_
     003B7809  ___func_sprite_ember_phoenix_top   sprite_ember_phoenix_topdow
     003B7809  _sprite_ember_phoenix_topdow_met   sprite_ember_phoenix_topdow
     003B780D  _sprite_ember_phoenix_topdow_met   sprite_ember_phoenix_topdow
     003B7829  _sprite_ember_phoenix_topdow_met   sprite_ember_phoenix_topdow
     003B7841  _sprite_ember_phoenix_topdow_met   sprite_ember_phoenix_topdow
     003B785D  _sprite_ember_phoenix_topdow_met   sprite_ember_phoenix_topdow
     003B7879  _sprite_ember_phoenix_topdow_met   sprite_ember_phoenix_topdow
     003B7895  _sprite_ember_phoenix_topdow_met   sprite_ember_phoenix_topdow
     003B78AD  _sprite_ember_phoenix_topdow_met   sprite_ember_phoenix_topdow
     003B78C5  _sprite_ember_phoenix_topdow_met   sprite_ember_phoenix_topdow
     003B78DD  _sprite_ember_phoenix_topdow_met   sprite_ember_phoenix_topdow
     003B78F9  _sprite_ember_phoenix_topdow_met   sprite_ember_phoenix_topdow
     003B7915  _sprite_ember_phoenix_topdow_met   sprite_ember_phoenix_topdow
     003B7931  _sprite_ember_phoenix_topdow_ani   sprite_ember_phoenix_topdow
     003B7941  _sprite_ember_phoenix_topdow_ani   sprite_ember_phoenix_topdow
     003B7943  _sprite_ember_phoenix_topdow       sprite_ember_phoenix_topdow
     003B7956  ___func_sprite_ember_stationary_   sprite_ember_stationary_tile
     003B7956  _sprite_ember_stationary_tileset   sprite_ember_stationary_tile
     003B7AD8  ___func_sprite_flare_static_tile   sprite_flare_static_tileset
     003B7AD8  _sprite_flare_static_tileset       sprite_flare_static_tileset
     003B7BDA  ___func_sprite_jem_animated_tile   sprite_jem_animated_tileset
     003B7BDA  _sprite_jem_animated_tileset       sprite_jem_animated_tileset
     003B7D3C  ___func_sprite_light_animated_co   sprite_light_animated_copy_t
     003B7D3C  _sprite_light_animated_copy_tile   sprite_light_animated_copy_t
     003B7EBE  ___func_sprite_sly_slimeball_cop   sprite_sly_slimeball_copy_ti
     003B7EBE  _sprite_sly_slimeball_copy_tiles   sprite_sly_slimeball_copy_ti

ASxxxx Linker V03.00/V05.40 + sdld,  page 141.
Hexadecimal  [32-Bits]

Area                                    Addr        Size        Decimal Bytes (Attributes)
--------------------------------        ----        ----        ------- ----- ------------
_HEADER_SIO0                        00000000    00000004 =           4. bytes (ABS,CON)

      Value  Global                              Global Defined In Module
      -----  --------------------------------   ------------------------
ASxxxx Linker V03.00/V05.40 + sdld,  page 142.
Hexadecimal  [32-Bits]

Area                                    Addr        Size        Decimal Bytes (Attributes)
--------------------------------        ----        ----        ------- ----- ------------
_HEADER_TIMER0                      00000000    00000004 =           4. bytes (ABS,CON)

      Value  Global                              Global Defined In Module
      -----  --------------------------------   ------------------------
ASxxxx Linker V03.00/V05.40 + sdld,  page 143.
Hexadecimal  [32-Bits]

Area                                    Addr        Size        Decimal Bytes (Attributes)
--------------------------------        ----        ----        ------- ----- ------------
_CODE_48                            00304000    00003FFF =       16383. bytes (REL,CON)

      Value  Global                              Global Defined In Module
      -----  --------------------------------   ------------------------
     00304000  _palette_init                      palette
     00304037  _CGBZeroPalette                    palette
     0030404C  _SGBTransferPalettes               palette
     003040C4  ___func_bg_earth_shuttle_bay_til   bg_earth_shuttle_bay_tilemap
     003040C4  _bg_earth_shuttle_bay_tilemap      bg_earth_shuttle_bay_tilemap
     00306043  _song_uncertain_wilds_0_Data       song_uncertain_wilds_0_Data
     00306F7F  _song_wolf_city_distiortion__Dat   song_wolf_city_distiortion__
     00306F94  ___func_scene_37_sprites           scene_37_sprites
     00306F94  _scene_37_sprites                  scene_37_sprites
     00306F97  ___func_scene_9_collisions         scene_9_collisions
     00306F97  _scene_9_collisions                scene_9_collisions

ASxxxx Linker V03.00/V05.40 + sdld,  page 144.
Hexadecimal  [32-Bits]

Area                                    Addr        Size        Decimal Bytes (Attributes)
--------------------------------        ----        ----        ------- ----- ------------
_CODE_56                            00384000    00004000 =       16384. bytes (REL,CON)

      Value  Global                              Global Defined In Module
      -----  --------------------------------   ------------------------
     00384000  _projectiles_init                  projectiles
     0038402F  _projectile_launch                 projectiles
     00384446  ___func_bg_earth_shuttle_bay_wat   bg_earth_shuttle_bay_water_t
     00384446  _bg_earth_shuttle_bay_water_tile   bg_earth_shuttle_bay_water_t
     00384918  ___func_bg_hud_ui_tileset          bg_hud_ui_tileset
     00384918  _bg_hud_ui_tileset                 bg_hud_ui_tileset
     00384E2A  ___func_bg_luna_serenity_cave_up   bg_luna_serenity_cave_upper_
     00384E2A  _bg_luna_serenity_cave_upper_til   bg_luna_serenity_cave_upper_
     0038531C  ___func_bg_luna_serenity_outskir   bg_luna_serenity_outskirts_t
     0038531C  _bg_luna_serenity_outskirts_tile   bg_luna_serenity_outskirts_t
     0038582E  ___func_bg_mercury_secret_area_t   bg_mercury_secret_area_tiles
     0038582E  _bg_mercury_secret_area_tileset    bg_mercury_secret_area_tiles
     00385CC0  ___func_bg_venus_ac_ventilation_   bg_venus_ac_ventilation_tile
     00385CC0  _bg_venus_ac_ventilation_tileset   bg_venus_ac_ventilation_tile
     00386172  ___func_bg_venus_office_access_t   bg_venus_office_access_tiles
     00386172  _bg_venus_office_access_tileset    bg_venus_office_access_tiles
     00386644  ___func_bg_venus_police_departme   bg_venus_police_department__
     00386644  _bg_venus_police_department__til   bg_venus_police_department__
     00386B56  ___func_scene_16_collisions        scene_16_collisions
     00386B56  _scene_16_collisions               scene_16_collisions
     003870CE  _scene_16_init                     scene_16_init
     003870D1  GBVM$scene_16_init$autofade$2231   scene_16_init
     003870DC  GBVM$scene_16_init$626c14c7_3a51   scene_16_init
     003870EE  GBVM$scene_16_init$606f11d4_2a81   scene_16_init
     003870F9  GBVM$scene_16_init$a1d1e4d4_390e   scene_16_init
     00387104  GBVM$scene_16_init$af42f66d_f696   scene_16_init
     00387217  GBVM$scene_16_init$7d90169b_b29f   scene_16_init
     00387222  GBVM$scene_16_init$d20bcaa1_126a   scene_16_init
     0038734E  GBVM$scene_16_init$761cdebf_44d9   scene_16_init
     00387359  GBVM$scene_16_init$1aeb848b_77b1   scene_16_init
     003875AA  GBVM$scene_16_init$e9446a16_e088   scene_16_init
     003875B9  GBVM$scene_16_init$55244fe3_de16   scene_16_init
     003875B9  GBVM_END$scene_16_init$626c14c7_   scene_16_init
     003875BD  GBVM$scene_16_init$7fb8330d_222d   scene_16_init
     003875BD  GBVM$scene_16_init$c5b0d7a1_3624   scene_16_init
     003875C2  GBVM$scene_16_init$b42d4f47_da46   scene_16_init
     003875C9  GBVM$scene_16_init$3180cc8e_6d57   scene_16_init
     003875CD  GBVM$scene_16_init$a7434b09_47a4   scene_16_init
     003875E1  GBVM$scene_16_init$7e3e84e4_1631   scene_16_init
     003875E9  GBVM$scene_16_init$e1065e78_7e64   scene_16_init
     003875E9  GBVM_END$scene_16_init$7e3e84e4_   scene_16_init
     003875E9  GBVM_END$scene_16_init$c5b0d7a1_   scene_16_init
     003875EE  _scene_18_init                     scene_18_init
     003875F1  GBVM$scene_18_init$4fa26434_903f   scene_18_init
     003875F5  GBVM$scene_18_init$7b9aca6c_0550   scene_18_init
     00387605  GBVM$scene_18_init$d33c2aaf_3432   scene_18_init
     00387610  GBVM$scene_18_init$autofade$e578   scene_18_init
     0038761B  GBVM$scene_18_init$e6746d7d_1632   scene_18_init
     0038765F  GBVM$scene_18_init$db803933_9287   scene_18_init
     0038772D  GBVM$scene_18_init$bf571951_9087   scene_18_init
ASxxxx Linker V03.00/V05.40 + sdld,  page 145.
Hexadecimal  [32-Bits]

Area                                    Addr        Size        Decimal Bytes (Attributes)
--------------------------------        ----        ----        ------- ----- ------------
_CODE_56                            00384000    00004000 =       16384. bytes (REL,CON)

      Value  Global                              Global Defined In Module
      -----  --------------------------------   ------------------------
     0038773E  GBVM$scene_18_init$653bdc3a_58a5   scene_18_init
     00387761  GBVM$scene_18_init$f07dc4c0_1793   scene_18_init
     00387772  GBVM$scene_18_init$c6159f3e_76b8   scene_18_init
     0038777D  GBVM$scene_18_init$4ffa86f8_e8f2   scene_18_init
     003878FA  GBVM$scene_18_init$151cb9e8_23fe   scene_18_init
     0038790B  GBVM$scene_18_init$d9ef07f0_ae40   scene_18_init
     0038793D  GBVM$scene_18_init$2c60001b_acb5   scene_18_init
     00387948  GBVM$scene_18_init$f8d3df62_8b5e   scene_18_init
     0038796B  GBVM$scene_18_init$0c75857f_98a8   scene_18_init
     00387974  GBVM$scene_18_init$3538105e_a8b4   scene_18_init
     00387AA0  GBVM$scene_18_init$9073faa9_af8e   scene_18_init
     00387AC2  GBVM$scene_18_init$0bb945b8_ae2f   scene_18_init
     00387AC7  GBVM$scene_18_init$60145002_5e5f   scene_18_init
     00387AFA  ___func_scene_47_sprites           scene_47_sprites
     00387AFA  _scene_47_sprites                  scene_47_sprites
     00387B03  _scene_53_init                     scene_53_init
     00387B06  GBVM$scene_53_init$autofade$ad10   scene_53_init
     00387B11  GBVM$scene_53_init$e7d10682_8e20   scene_53_init
     00387BD3  GBVM$scene_53_init$27da731f_70fb   scene_53_init
     00387C6E  GBVM$scene_53_init$e9666d08_b9dd   scene_53_init
     00387DC5  GBVM$scene_53_init$b46175d7_757b   scene_53_init
     00387E61  GBVM$scene_53_init$292c98fc_3c33   scene_53_init
     00387EA5  GBVM$scene_53_init$abb1fa3c_d5cc   scene_53_init
     00387EB0  GBVM$scene_53_init$d0fb81b3_d361   scene_53_init
     00387EBC  GBVM$scene_53_init$945a5f33_4593   scene_53_init
     00387EC7  GBVM$scene_53_init$d7c3f033_edec   scene_53_init
     00387F0F  GBVM$scene_53_init$10caa2bd_c6ce   scene_53_init
     00387FB5  GBVM$scene_53_init$3662676e_d43e   scene_53_init
     00387FC1  GBVM$scene_53_init$af7e3faa_1075   scene_53_init
     00387FCD  GBVM$scene_53_init$9c662436_a8a7   scene_53_init

ASxxxx Linker V03.00/V05.40 + sdld,  page 146.
Hexadecimal  [32-Bits]

Area                                    Addr        Size        Decimal Bytes (Attributes)
--------------------------------        ----        ----        ------- ----- ------------
_CODE_34                            00224000    00003FFF =       16383. bytes (REL,CON)

      Value  Global                              Global Defined In Module
      -----  --------------------------------   ------------------------
     00224000  _scroll_init                       scroll
     0022402A  _scroll_reset                      scroll
     0022404A  _scroll_update                     scroll
     00224181  _scroll_viewport                   scroll
     0022461A  _scroll_repaint                    scroll
     0022462A  _scroll_render_rows                scroll
     002246C0  _scroll_queue_row                  scroll
     002246E2  _scroll_queue_col                  scroll
     0022472D  ___func_bg_luna_serenity_cave_up   bg_luna_serenity_cave_upper_
     0022472D  _bg_luna_serenity_cave_upper_til   bg_luna_serenity_cave_upper_
     002259ED  ___func_scene_35_collisions        scene_35_collisions
     002259ED  _scene_35_collisions               scene_35_collisions
     00227F6D  _script_input_0                    script_input_0
     00227F6F  GBVM$script_input_0$b44c6c9c_f7e   script_input_0
     00227F7A  GBVM$script_input_0$2ca5ebb9_aaa   script_input_0
     00227F8F  GBVM$script_input_0$d294b62c_55c   script_input_0
     00227F94  GBVM$script_input_0$f68e50bd_357   script_input_0
     00227F94  GBVM_END$script_input_0$2ca5ebb9   script_input_0
     00227FA5  GBVM$script_input_0$26cc6be3_b55   script_input_0
     00227FB3  GBVM$script_input_0$4759c9d9_c0f   script_input_0
     00227FBE  GBVM$script_input_0$4130e474_78e   script_input_0
     00227FCC  GBVM$script_input_0$40d7d519_6c0   script_input_0
     00227FD7  GBVM$script_input_0$b72ec239_cd8   script_input_0
     00227FE5  GBVM$script_input_0$0ba315d4_182   script_input_0
     00227FF0  GBVM$script_input_0$62a208f4_d35   script_input_0
     00227FFE  GBVM_END$script_input_0$f68e50bd   script_input_0

ASxxxx Linker V03.00/V05.40 + sdld,  page 147.
Hexadecimal  [32-Bits]

Area                                    Addr        Size        Decimal Bytes (Attributes)
--------------------------------        ----        ----        ------- ----- ------------
_CODE_1                             00014000    00004000 =       16384. bytes (REL,CON)

      Value  Global                              Global Defined In Module
      -----  --------------------------------   ------------------------
     00014000  _ui_swap_tiles                     
     0001404A  _ui_print_make_mask_lr             
     00014066  _ui_print_make_mask_rl             
     00014082  _ui_init                           ui
     00014153  _ui_load_tiles                     ui
     000141AA  _ui_draw_frame                     ui
     00014244  _ui_print_reset                    ui
     00014295  _ui_set_start_tile                 ui
     000142C1  _ui_print_render                   ui
     00014557  _ui_draw_text_buffer_char          ui
     00014A3B  _ui_run_menu                       ui
     00014C12  _ui_run_modal                      ui
     00014CCC  ___func_VM_SGB                     vm_sgb
     00014CCC  _actor_24_interact                 actor_24_interact
     00014CDF  GBVM$actor_24_interact$de5c9adb_   actor_24_interact
     00014CF6  GBVM$actor_24_interact$520e1153_   actor_24_interact
     00014D13  GBVM$actor_24_interact$d3e1a0e0_   actor_24_interact
     00014D30  GBVM$actor_24_interact$c9449c77_   actor_24_interact
     00014D3D  ___func_bg_earth_distortion_moun   bg_earth_distortion_mountai_
     00014D3D  _bg_earth_distortion_mountai_til   bg_earth_distortion_mountai_
     000175DD  ___func_bg_mercury_projectile_pl   bg_mercury_projectile_platf_
     000175DD  _bg_mercury_projectile_platf_til   bg_mercury_projectile_platf_
     00017FFF  _script_input_27                   script_input_27

ASxxxx Linker V03.00/V05.40 + sdld,  page 148.
Hexadecimal  [32-Bits]

Area                                    Addr        Size        Decimal Bytes (Attributes)
--------------------------------        ----        ----        ------- ----- ------------
_CODE_9                             00094000    00003FFF =       16383. bytes (REL,CON)

      Value  Global                              Global Defined In Module
      -----  --------------------------------   ------------------------
     00094000  _set_sgb_border                    sgb_border
     000941EA  ___func_bg_earth_shuttle_bay_upp   bg_earth_shuttle_bay_upper_t
     000941EA  _bg_earth_shuttle_bay_upper_tile   bg_earth_shuttle_bay_upper_t
     000969C2  ___func_scene_26_sprites           scene_26_sprites
     000969C2  _scene_26_sprites                  scene_26_sprites
     000969C5  _scene_40_init                     scene_40_init
     000969C8  GBVM$scene_40_init$954de526_5c5b   scene_40_init
     000969D0  GBVM$scene_40_init$854afb5b_3b67   scene_40_init
     000969D8  GBVM$scene_40_init$673e26cc_9136   scene_40_init
     000969E0  GBVM$scene_40_init$autofade$9148   scene_40_init
     000969EB  GBVM$scene_40_init$1375ecf0_5781   scene_40_init
     000969FC  GBVM$scene_40_init$eb92025a_8873   scene_40_init
     00096A07  GBVM$scene_40_init$57175f75_60ff   scene_40_init
     00096A0B  GBVM$scene_40_init$15a9206a_3284   scene_40_init
     00096C55  GBVM$scene_40_init$0ffb2bdb_7c1b   scene_40_init
     00096C60  GBVM$scene_40_init$78863150_6ce8   scene_40_init
     00096D91  GBVM$scene_40_init$d4669ed6_a320   scene_40_init
     00096D9C  GBVM$scene_40_init$b4358f61_7fd2   scene_40_init
     00096DA7  GBVM$scene_40_init$404cc38f_6892   scene_40_init
     00096ECE  GBVM$scene_40_init$5e589997_482d   scene_40_init
     00096ED9  GBVM$scene_40_init$5f43fc9d_a550   scene_40_init
     00096EE4  GBVM$scene_40_init$72cb7a6d_3ad5   scene_40_init
     0009701E  GBVM$scene_40_init$0b805314_b123   scene_40_init
     00097029  GBVM$scene_40_init$1f3b89a7_75c8   scene_40_init
     00097034  GBVM$scene_40_init$aaa2c146_19a1   scene_40_init
     00097071  GBVM$scene_40_init$6c59bb7f_6fee   scene_40_init
     0009707B  GBVM$scene_40_init$30cde568_2bab   scene_40_init
     0009708C  GBVM$scene_40_init$b47279cb_7ff1   scene_40_init
     00097098  GBVM$scene_40_init$6fd732cb_24e2   scene_40_init
     000970AE  GBVM$scene_40_init$2ff46f25_dea2   scene_40_init
     000970B9  GBVM$scene_40_init$0d5c6368_ea90   scene_40_init
     000970BD  GBVM$scene_40_init$57abc20c_bef2   scene_40_init
     000970C8  GBVM$scene_40_init$e4b54d6a_7079   scene_40_init
     000970EB  GBVM$scene_40_init$083d2f45_bdc5   scene_40_init
     000970F6  GBVM$scene_40_init$956112f1_4698   scene_40_init
     0009713D  GBVM$scene_40_init$e685b6f8_d604   scene_40_init
     000971BD  GBVM$scene_40_init$4620e522_c83f   scene_40_init
     000971C5  GBVM$scene_40_init$a2404acc_7029   scene_40_init
     000971E8  GBVM$scene_40_init$100d2ef6_70ae   scene_40_init
     000971F0  GBVM$scene_40_init$c1b3dfc2_c8f6   scene_40_init
     000971FA  GBVM$scene_40_init$9612b10b_b344   scene_40_init
     0009720B  GBVM$scene_40_init$e9f2cb0d_9f81   scene_40_init
     00097217  GBVM$scene_40_init$4b44a020_8249   scene_40_init
     0009722D  GBVM$scene_40_init$1cd343f1_752b   scene_40_init
     00097238  GBVM$scene_40_init$d6640278_c12c   scene_40_init
     00097240  GBVM$scene_40_init$6d832dec_b18d   scene_40_init
     00097244  GBVM$scene_40_init$90209b65_7395   scene_40_init
     00097260  GBVM$scene_40_init$9b187804_3471   scene_40_init
     0009726B  GBVM$scene_40_init$b31ac417_a628   scene_40_init
     00097273  GBVM$scene_40_init$32a16881_5ca4   scene_40_init
ASxxxx Linker V03.00/V05.40 + sdld,  page 149.
Hexadecimal  [32-Bits]

Area                                    Addr        Size        Decimal Bytes (Attributes)
--------------------------------        ----        ----        ------- ----- ------------
_CODE_9                             00094000    00003FFF =       16383. bytes (REL,CON)

      Value  Global                              Global Defined In Module
      -----  --------------------------------   ------------------------
     0009727E  GBVM$scene_40_init$d7da7990_f448   scene_40_init
     0009735F  GBVM$scene_40_init$970da2ee_4a21   scene_40_init
     0009736A  GBVM$scene_40_init$61364211_ef28   scene_40_init
     000973BB  GBVM$scene_40_init$d01e7164_6c84   scene_40_init
     000973C4  GBVM$scene_40_init$17666e2e_d3b7   scene_40_init
     000973E7  GBVM$scene_40_init$64b2be46_8829   scene_40_init
     000973F3  GBVM$scene_40_init$69401576_d005   scene_40_init
     0009740F  GBVM$scene_40_init$35d3d361_2f8b   scene_40_init
     0009741E  GBVM$scene_40_init$6a918804_ac88   scene_40_init
     00097429  GBVM$scene_40_init$bee11d38_bfab   scene_40_init
     00097463  GBVM$scene_40_init$b6769c71_d4f1   scene_40_init
     0009746E  GBVM$scene_40_init$5506c0a1_c181   scene_40_init
     000974FB  GBVM$scene_40_init$bc77d18a_abb2   scene_40_init
     00097503  GBVM$scene_40_init$2952dbe0_eacb   scene_40_init
     00097507  GBVM$scene_40_init$16d2a114_c6ff   scene_40_init
     00097512  GBVM$scene_40_init$215ed01b_63e0   scene_40_init
     0009756B  GBVM$scene_40_init$c3e635cb_83ca   scene_40_init
     00097576  GBVM$scene_40_init$67d28c5a_68e4   scene_40_init
     0009764B  GBVM$scene_40_init$4c5beaf3_6ce9   scene_40_init
     00097656  GBVM$scene_40_init$8ec0e410_fe1e   scene_40_init
     000976AC  GBVM$scene_40_init$e3646232_ca1f   scene_40_init
     000976B7  GBVM$scene_40_init$05694795_5807   scene_40_init
     00097714  GBVM$scene_40_init$5377da09_18de   scene_40_init
     0009771F  GBVM$scene_40_init$7c73c50c_6195   scene_40_init
     000977F9  GBVM$scene_40_init$024bd7a3_a4ca   scene_40_init
     00097804  GBVM$scene_40_init$d5314e90_14af   scene_40_init
     000978A5  GBVM$scene_40_init$61408b7b_ed78   scene_40_init
     000978B0  GBVM$scene_40_init$f8db08b0_2272   scene_40_init
     000978BB  GBVM$scene_40_init$be7b89a9_bea4   scene_40_init
     00097912  GBVM$scene_40_init$39db4799_7066   scene_40_init
     0009794A  GBVM$scene_40_init$f9f20145_642a   scene_40_init
     00097960  GBVM$scene_40_init$75807587_727d   scene_40_init
     00097976  GBVM$scene_40_init$f125f236_38db   scene_40_init
     0009798C  GBVM$scene_40_init$f10449e1_6fbf   scene_40_init
     000979AF  GBVM$scene_40_init$d998f3b1_b174   scene_40_init
     000979B8  GBVM$scene_40_init$db4cd721_266b   scene_40_init
     000979C3  GBVM$scene_40_init$881c56f6_c384   scene_40_init
     00097A48  GBVM$scene_40_init$5c31fab3_a60b   scene_40_init
     00097A53  GBVM$scene_40_init$b071575e_dc2f   scene_40_init
     00097B28  GBVM$scene_40_init$80afc98a_0b5b   scene_40_init
     00097B4B  GBVM$scene_40_init$2af0c7d6_a08a   scene_40_init
     00097B56  GBVM$scene_40_init$23cd68bd_79fe   scene_40_init
     00097BE1  GBVM$scene_40_init$d682393f_462a   scene_40_init
     00097BFD  GBVM$scene_40_init$66163a68_6c0c   scene_40_init
     00097C08  GBVM$scene_40_init$6bfe30cc_1812   scene_40_init
     00097C14  GBVM$scene_40_init$0d71f08b_2ef1   scene_40_init
     00097C1F  GBVM$scene_40_init$4052b434_29e9   scene_40_init
     00097CA3  GBVM$scene_40_init$452f966d_2c41   scene_40_init
     00097CAE  GBVM$scene_40_init$26732594_2fbb   scene_40_init
     00097FCC  GBVM$scene_40_init$79a97002_0424   scene_40_init

ASxxxx Linker V03.00/V05.40 + sdld,  page 150.
Hexadecimal  [32-Bits]

Area                                    Addr        Size        Decimal Bytes (Attributes)
--------------------------------        ----        ----        ------- ----- ------------
_CODE_31                            001F4000    00003FFF =       16383. bytes (REL,CON)

      Value  Global                              Global Defined In Module
      -----  --------------------------------   ------------------------
     001F4000  ___func_VM_ACTOR                   vm_actor
     001F4000  _vm_actor_move_to                  vm_actor
     001F499C  _vm_actor_move_cancel              vm_actor
     001F49D2  _vm_actor_activate                 vm_actor
     001F4A23  _vm_actor_deactivate               vm_actor
     001F4A74  _vm_actor_begin_update             vm_actor
     001F4AFB  _vm_actor_terminate_update         vm_actor
     001F4B42  _vm_actor_set_dir                  vm_actor
     001F4B8B  _vm_actor_set_anim                 vm_actor
     001F4C19  _vm_actor_set_pos                  vm_actor
     001F4C93  _vm_actor_get_pos                  vm_actor
     001F4D02  _vm_actor_get_dir                  vm_actor
     001F4D7C  _vm_actor_get_angle                vm_actor
     001F4DFD  _vm_actor_emote                    vm_actor
     001F4EC1  _vm_actor_set_bounds               vm_actor
     001F4F1F  _vm_actor_set_spritesheet          vm_actor
     001F4FE9  _vm_actor_replace_tile             vm_actor
     001F5054  _vm_actor_set_anim_tick            vm_actor
     001F5092  _vm_actor_set_move_speed           vm_actor
     001F50D0  _vm_actor_set_anim_frame           vm_actor
     001F5114  _vm_actor_get_anim_frame           vm_actor
     001F515E  _vm_actor_set_anim_set             vm_actor
     001F51E6  _vm_actor_set_spritesheet_by_ref   vm_actor
     001F52F3  _vm_actor_set_flags                vm_actor
     001F53A1  ___func_scene_31_collisions        scene_31_collisions
     001F53A1  _scene_31_collisions               scene_31_collisions
     001F7921  _script_timer_11                   script_timer_11
     001F7923  GBVM$script_timer_11$e0fa547c_27   script_timer_11
     001F7933  _adventure_init                    adventure
     001F7948  _adventure_update                  adventure
ASxxxx Linker V03.00/V05.40 + sdld,  page 151.
Hexadecimal  [32-Bits]

Area                                    Addr        Size        Decimal Bytes (Attributes)
--------------------------------        ----        ----        ------- ----- ------------
_CODE_30                            001E4000    00004000 =       16384. bytes (REL,CON)

      Value  Global                              Global Defined In Module
      -----  --------------------------------   ------------------------
     001E4000  ___func_VM_GAMEBOY                 vm_gameboy
     001E4000  _vm_set_sprites_visible            vm_gameboy
     001E4017  _vm_input_wait                     vm_gameboy
     001E4040  _vm_context_prepare                vm_gameboy
     001E406B  _vm_input_attach                   vm_gameboy
     001E4081  _vm_input_detach                   vm_gameboy
     001E4095  _vm_input_get                      vm_gameboy
     001E40C9  _vm_fade                           vm_gameboy
     001E40F9  _vm_timer_prepare                  vm_gameboy
     001E4124  _vm_timer_set                      vm_gameboy
     001E413F  _vm_timer_stop                     vm_gameboy
     001E4153  _vm_timer_reset                    vm_gameboy
     001E416A  _vm_get_tile_xy                    vm_gameboy
     001E4240  _vm_replace_tile                   vm_gameboy
     001E42EB  _vm_poll                           vm_gameboy
     001E43BD  _vm_set_sprite_mode                vm_gameboy
     001E43D1  _vm_replace_tile_xy                vm_gameboy
     001E45B1  _vm_rumble                         vm_gameboy
     001E45D1  _vm_load_tileset                   vm_gameboy
     001E5A59  _song_featherfire_cedric_Data      song_featherfire_cedric_Data
     001E5A6E  ___func_scene_25_collisions        scene_25_collisions
     001E5A6E  _scene_25_collisions               scene_25_collisions
     001E7FEE  _script_timer_10                   script_timer_10
     001E7FF0  GBVM$script_timer_10$9b1976b3_97   script_timer_10
ASxxxx Linker V03.00/V05.40 + sdld,  page 152.
Hexadecimal  [32-Bits]

Area                                    Addr        Size        Decimal Bytes (Attributes)
--------------------------------        ----        ----        ------- ----- ------------
_CODE_33                            00214000    00003FFF =       16383. bytes (REL,CON)

      Value  Global                              Global Defined In Module
      -----  --------------------------------   ------------------------
     00214000  ___func_VM_UI                      vm_ui
     00214000  _vm_display_text                   vm_ui
     0021406E  _vm_switch_text_layer              vm_ui
     00214088  _vm_overlay_setpos                 vm_ui
     002140A2  _vm_overlay_wait                   vm_ui
     00214132  _vm_overlay_move_to                vm_ui
     00214176  _vm_overlay_set_scroll             vm_ui
     002141AF  _vm_overlay_clear                  vm_ui
     00214281  _vm_overlay_show                   vm_ui
     002142CF  _vm_choice                         vm_ui
     002143EA  _vm_set_font                       vm_ui
     00214419  _vm_overlay_scroll                 vm_ui
     0021447A  _vm_overlay_set_submap             vm_ui
     002144E6  _vm_overlay_set_submap_ex          vm_ui
     002145E7  _vm_overlay_set_map                vm_ui
     00214746  _vm_set_text_sound                 vm_ui
     0021475F  ___func_bg_earth_burnclaw_forest   bg_earth_burnclaw_forest_ca_
     0021475F  _bg_earth_burnclaw_forest_ca_til   bg_earth_burnclaw_forest_ca_
     00215A1F  ___func_scene_34_collisions        scene_34_collisions
     00215A1F  _scene_34_collisions               scene_34_collisions
     00217F9F  ___func_scene_51_triggers          scene_51_triggers
     00217F9F  _scene_51_triggers                 scene_51_triggers

ASxxxx Linker V03.00/V05.40 + sdld,  page 153.
Hexadecimal  [32-Bits]

Area                                    Addr        Size        Decimal Bytes (Attributes)
--------------------------------        ----        ----        ------- ----- ------------
_CODE_49                            00314000    00003FFF =       16383. bytes (REL,CON)

      Value  Global                              Global Defined In Module
      -----  --------------------------------   ------------------------
     00314000  ___func_VM_MAIN                    vm
     00314000  _vm_call                           vm
     00314042  _vm_ret                            vm
     003140A2  _vm_call_far                       vm
     00314121  _vm_ret_far                        vm
     00314199  _vm_push                           vm
     003141C4  _vm_pop                            vm
     003141FF  _vm_loop                           vm
     0031428A  _vm_jump                           vm
     00314296  _wait_frames                       vm
     0031430C  _vm_invoke                         vm
     00314439  _vm_join                           vm
     0031449B  _vm_terminate                      vm
     003144C8  _vm_if                             vm
     0031460D  _vm_if_const                       vm
     00314722  _vm_push_value                     vm
     00314774  _vm_push_value_ind                 vm
     003147E9  _vm_push_reference                 vm
     00314840  _vm_reserve                        vm
     0031486E  _vm_set                            vm
     003148CF  _vm_set_const                      vm
     003148FB  _vm_get_tlocal                     vm
     00314988  _vm_test_terminate                 vm
     00314993  _vm_idle                           vm
     0031499F  _vm_init_rng                       vm
     003149CB  _vm_rand                           vm
     00314A0D  _vm_lock                           vm
     00314A1C  _vm_unlock                         vm
     00314A2F  _vm_raise                          vm
     00314A71  _vm_set_indirect                   vm
     00314AEC  _vm_get_indirect                   vm
     00314B67  _vm_poll_loaded                    vm
     00314B97  _vm_memset                         vm
     00314BD1  _vm_memcpy                         vm
     00314C4E  _script_runner_init                vm
     00314D05  _script_execute                    vm
     00314E6B  _script_terminate                  vm
     00314ED0  _script_detach_hthread             vm
     00314F0C  _actor_37_update                   actor_37_update
     00314F0E  GBVM$actor_37_update$994fdc0d_fc   actor_37_update
     00314F20  GBVM$actor_37_update$16390c64_e3   actor_37_update
     00314F2C  GBVM$actor_37_update$cab2de77_04   actor_37_update
     00314F96  GBVM$actor_37_update$9b0345f2_ce   actor_37_update
     00314FA1  GBVM$actor_37_update$f1e3f573_b4   actor_37_update
     00314FAA  GBVM$actor_37_update$5e8ea9f0_72   actor_37_update
     00314FB5  GBVM$actor_37_update$6f8ffe4a_76   actor_37_update
     00314FC0  GBVM$actor_37_update$92b43640_28   actor_37_update
     00314FCB  GBVM$actor_37_update$f3f16c34_df   actor_37_update
     00314FD3  GBVM$actor_37_update$2bd1a422_d0   actor_37_update
     00314FDE  GBVM$actor_37_update$5b4d041f_25   actor_37_update
ASxxxx Linker V03.00/V05.40 + sdld,  page 154.
Hexadecimal  [32-Bits]

Area                                    Addr        Size        Decimal Bytes (Attributes)
--------------------------------        ----        ----        ------- ----- ------------
_CODE_49                            00314000    00003FFF =       16383. bytes (REL,CON)

      Value  Global                              Global Defined In Module
      -----  --------------------------------   ------------------------
     00314FDE  GBVM_END$actor_37_update$16390c6   actor_37_update
     00314FDE  GBVM_END$actor_37_update$cab2de7   actor_37_update
     0031502C  GBVM$actor_37_update$96d9b054_21   actor_37_update
     0031502E  GBVM$actor_37_update$1b2a0eba_14   actor_37_update
     00315039  GBVM$actor_37_update$a61c501f_41   actor_37_update
     003150CE  GBVM$actor_37_update$7518f6ba_21   actor_37_update
     003150D9  GBVM$actor_37_update$d01d3e78_51   actor_37_update
     003151C0  GBVM$actor_37_update$bfbf7426_7c   actor_37_update
     003151CB  GBVM$actor_37_update$d2a53fd8_22   actor_37_update
     003153D7  GBVM$actor_37_update$cd0cef6a_9e   actor_37_update
     003153E2  GBVM$actor_37_update$c16df6ed_96   actor_37_update
     003153ED  GBVM$actor_37_update$fafa5c4d_5d   actor_37_update
     003154A8  GBVM$actor_37_update$9df97d9c_92   actor_37_update
     003154B3  GBVM$actor_37_update$e6385679_0c   actor_37_update
     0031554E  GBVM$actor_37_update$0f981a3b_b8   actor_37_update
     00315559  GBVM$actor_37_update$3c4bd678_93   actor_37_update
     00315564  GBVM$actor_37_update$cff19f3b_81   actor_37_update
     003156D0  GBVM$actor_37_update$26d48554_03   actor_37_update
     003156DB  GBVM$actor_37_update$b9aede57_91   actor_37_update
     00315762  GBVM$actor_37_update$6c4b95e0_59   actor_37_update
     0031576D  GBVM$actor_37_update$65bf8762_96   actor_37_update
     003157E7  GBVM$actor_37_update$16289d84_67   actor_37_update
     003157F2  GBVM$actor_37_update$5fb12490_34   actor_37_update
     003159B6  GBVM$actor_37_update$c7e8c1f8_86   actor_37_update
     003159C1  GBVM$actor_37_update$1b27f006_b1   actor_37_update
     00315AF3  GBVM$actor_37_update$ee586905_82   actor_37_update
     00315AFE  GBVM$actor_37_update$f844c570_25   actor_37_update
     00315B36  GBVM$actor_37_update$748d2be6_5f   actor_37_update
     00315B41  GBVM$actor_37_update$83bab854_db   actor_37_update
     00315C50  GBVM$actor_37_update$8fa05adb_dd   actor_37_update
     00315C5B  GBVM$actor_37_update$f1aa9562_21   actor_37_update
     00315C66  GBVM$actor_37_update$1b21da6b_15   actor_37_update
     00315D01  GBVM$actor_37_update$1f8e8838_36   actor_37_update
     00315D33  GBVM_END$actor_37_update$994fdc0   actor_37_update
     00315D38  ___func_bg_earth_burnclaw_forest   bg_earth_burnclaw_forest_cr_
     00315D38  _bg_earth_burnclaw_forest_cr_til   bg_earth_burnclaw_forest_cr_
     0031705F  _song_taking_flight_0_Data         song_taking_flight_0_Data
     00317F8B  _song_uncertain_wilds_copy_Data    song_uncertain_wilds_copy_Da
     00317FA0  ___func_sprite_jem_animated_0      sprite_jem_animated_0
     00317FA0  _sprite_jem_animated_0_metasprit   sprite_jem_animated_0
     00317FA4  _sprite_jem_animated_0_metasprit   sprite_jem_animated_0
     00317FBC  _sprite_jem_animated_0_metasprit   sprite_jem_animated_0
     00317FD4  _sprite_jem_animated_0_metasprit   sprite_jem_animated_0
     00317FDA  _sprite_jem_animated_0_animation   sprite_jem_animated_0
     00317FEA  _sprite_jem_animated_0_animation   sprite_jem_animated_0
     00317FEC  _sprite_jem_animated_0             sprite_jem_animated_0
ASxxxx Linker V03.00/V05.40 + sdld,  page 155.
Hexadecimal  [32-Bits]

Area                                    Addr        Size        Decimal Bytes (Attributes)
--------------------------------        ----        ----        ------- ----- ------------
_CODE_51                            00334000    00004000 =       16384. bytes (REL,CON)

      Value  Global                              Global Defined In Module
      -----  --------------------------------   ------------------------
     00334000  _actor_14_interact                 actor_14_interact
     00334001  GBVM$actor_14_interact$51620142_   actor_14_interact
     00334006  ___func_bg_earth_shuttle_bay_til   bg_earth_shuttle_bay_tileset
     00334006  _bg_earth_shuttle_bay_tileset      bg_earth_shuttle_bay_tileset
     00334C08  ___func_bg_luna_peryil_s_house_t   bg_luna_peryil_s_house_tiles
     00334C08  _bg_luna_peryil_s_house_tileset    bg_luna_peryil_s_house_tiles
     003357CA  ___func_bg_mercury_overflow_pass   bg_mercury_overflow_passage_
     003357CA  _bg_mercury_overflow_passage_til   bg_mercury_overflow_passage_
     0033638C  ___func_bg_mercury_throne_room_t   bg_mercury_throne_room_tilem
     0033638C  _bg_mercury_throne_room_tilemap    bg_mercury_throne_room_tilem
     0033700C  ___func_scene_38_collisions        scene_38_collisions
     0033700C  _scene_38_collisions               scene_38_collisions
     00337C8C  _pointnclick_init                  pointnclick
     00337CC5  _pointnclick_update                pointnclick

ASxxxx Linker V03.00/V05.40 + sdld,  page 156.
Hexadecimal  [32-Bits]

Area                                    Addr        Size        Decimal Bytes (Attributes)
--------------------------------        ----        ----        ------- ----- ------------
_CODE_29                            001D4000    00004000 =       16384. bytes (REL,CON)

      Value  Global                              Global Defined In Module
      -----  --------------------------------   ------------------------
     001D4000  _actor_44_update                   actor_44_update
     001D4002  GBVM$actor_44_update$3e9ae566_e7   actor_44_update
     001D400E  GBVM$actor_44_update$e4368cd8_93   actor_44_update
     001D402C  GBVM$actor_44_update$6d5b2798_2e   actor_44_update
     001D406B  GBVM_END$actor_44_update$3e9ae56   actor_44_update
     001D54E7  _song_featherfire_ember_Data       song_featherfire_ember_Data
     001D54FC  ___func_scene_22_collisions        scene_22_collisions
     001D54FC  _scene_22_collisions               scene_22_collisions
     001D7A7C  ___func_scene_30_sprites           scene_30_sprites
     001D7A7C  _scene_30_sprites                  scene_30_sprites
     001D7A7F  _script_7                          script_7
     001D7A81  GBVM$script_7$17af3244_31dd_4acc   script_7
     001D7A8D  GBVM$script_7$f1ae24eb_0eb5_4a14   script_7
     001D7ADA  GBVM$script_7$a78e6c25_e531_4695   script_7
     001D7B53  GBVM$script_7$7e626319_92dc_4bf9   script_7
     001D7B53  GBVM_END$script_7$17af3244_31dd_   script_7
     001D7B5F  GBVM$script_7$000a988b_437c_4380   script_7
     001D7B92  GBVM$script_7$954e17c7_ff3b_4939   script_7
     001D7B93  GBVM$script_7$517865cd_6f3c_41b9   script_7
     001D7B93  GBVM_END$script_7$7e626319_92dc_   script_7
     001D7BCB  GBVM$script_7$7d432278_890a_4ad8   script_7
     001D7C16  GBVM$script_7$e88a630e_d036_44e3   script_7
     001D7C22  GBVM$script_7$4650171e_9e92_4245   script_7
     001D7C23  GBVM$script_7$cdcac5d4_aceb_4133   script_7
     001D7C23  GBVM_END$script_7$e88a630e_d036_   script_7
     001D7C30  GBVM$script_7$ff921270_af9d_40e6   script_7
     001D7C43  GBVM$script_7$524f1c18_212e_44e4   script_7
     001D7C53  GBVM$script_7$7ed1a807_5700_4fcd   script_7
     001D7C7D  GBVM$script_7$1fa70bb4_6023_4349   script_7
     001D7C8C  GBVM_END$script_7$524f1c18_212e_   script_7
     001D7C8F  GBVM$script_7$dd111f9a_cacd_4229   script_7
     001D7CD1  GBVM$script_7$7590f397_be57_4f86   script_7
     001D7D1C  GBVM$script_7$80ab1167_5265_4b3d   script_7
     001D7D25  GBVM$script_7$11970ada_c2f0_4ecf   script_7
     001D7D29  GBVM$script_7$e389bcb2_db81_4272   script_7
     001D7D39  GBVM$script_7$5328a89c_13a6_4407   script_7
     001D7D62  GBVM$script_7$379d7a79_3685_46ce   script_7
     001D7D71  GBVM_END$script_7$80ab1167_5265_   script_7
     001D7D71  GBVM_END$script_7$e389bcb2_db81_   script_7
     001D7D71  GBVM_END$script_7$ff921270_af9d_   script_7
     001D7D74  GBVM$script_7$d0e5cea0_74c4_4239   script_7
     001D7D87  GBVM$script_7$596e4f8b_8691_4e58   script_7
     001D7D97  GBVM$script_7$9f64c343_97d2_4322   script_7
     001D7DC1  GBVM$script_7$af210996_2b1d_49b1   script_7
     001D7DD0  GBVM_END$script_7$596e4f8b_8691_   script_7
     001D7DD3  GBVM$script_7$9de73976_4290_45a8   script_7
     001D7E15  GBVM$script_7$341a2feb_9e19_47a6   script_7
     001D7E60  GBVM$script_7$9d4c9dbc_5d5b_4df3   script_7
     001D7E69  GBVM$script_7$f1d03009_e4d1_4a0d   script_7
     001D7E6D  GBVM$script_7$748491d9_6beb_47f9   script_7
ASxxxx Linker V03.00/V05.40 + sdld,  page 157.
Hexadecimal  [32-Bits]

Area                                    Addr        Size        Decimal Bytes (Attributes)
--------------------------------        ----        ----        ------- ----- ------------
_CODE_29                            001D4000    00004000 =       16384. bytes (REL,CON)

      Value  Global                              Global Defined In Module
      -----  --------------------------------   ------------------------
     001D7E7D  GBVM$script_7$0860e8cc_c606_4310   script_7
     001D7EA6  GBVM$script_7$008dc0ed_1a8c_41dd   script_7
     001D7EB5  GBVM_END$script_7$748491d9_6beb_   script_7
     001D7EB5  GBVM_END$script_7$9d4c9dbc_5d5b_   script_7
     001D7EB5  GBVM_END$script_7$d0e5cea0_74c4_   script_7
     001D7EB8  GBVM$script_7$89098bbf_efc9_4559   script_7
     001D7ECB  GBVM$script_7$228aa96b_dd43_43f0   script_7
     001D7EDB  GBVM$script_7$1058400c_e0fe_4c85   script_7
     001D7F05  GBVM$script_7$5daa79a4_b054_4329   script_7
     001D7F14  GBVM_END$script_7$228aa96b_dd43_   script_7
     001D7F17  GBVM$script_7$27876d54_2d72_4278   script_7
     001D7F59  GBVM$script_7$3a147719_873b_4f92   script_7
     001D7FA4  GBVM$script_7$32e9d04d_6b86_4d06   script_7
     001D7FAD  GBVM$script_7$f0aaf037_96a2_43ec   script_7
     001D7FB1  GBVM$script_7$77652250_443d_48f2   script_7
     001D7FC1  GBVM$script_7$661d9e6d_ed4d_4082   script_7
     001D7FEA  GBVM$script_7$146e3305_efdd_4fb7   script_7
     001D7FEE  GBVM$script_7$autofade$f3a6d99e_   script_7
     001D7FF9  GBVM_END$script_7$32e9d04d_6b86_   script_7
     001D7FF9  GBVM_END$script_7$77652250_443d_   script_7
     001D7FF9  GBVM_END$script_7$89098bbf_efc9_   script_7
     001D7FFC  GBVM_END$script_7$cdcac5d4_aceb_   script_7
ASxxxx Linker V03.00/V05.40 + sdld,  page 158.
Hexadecimal  [32-Bits]

Area                                    Addr        Size        Decimal Bytes (Attributes)
--------------------------------        ----        ----        ------- ----- ------------
_CODE_41                            00294000    00004000 =       16384. bytes (REL,CON)

      Value  Global                              Global Defined In Module
      -----  --------------------------------   ------------------------
     00294000  _actor_46_update                   actor_46_update
     00294002  GBVM$actor_46_update$653ef305_6a   actor_46_update
     00294014  GBVM$actor_46_update$2e53a236_a6   actor_46_update
     0029401F  GBVM$actor_46_update$7aa486c8_74   actor_46_update
     0029402A  GBVM$actor_46_update$170b8dcf_e0   actor_46_update
     0029413B  GBVM$actor_46_update$8b77b54b_10   actor_46_update
     00294146  GBVM$actor_46_update$36406e05_ef   actor_46_update
     002941D1  GBVM$actor_46_update$b7512e02_3c   actor_46_update
     002941DC  GBVM$actor_46_update$3db2bc47_0d   actor_46_update
     00294279  GBVM$actor_46_update$fa3c8ffa_ae   actor_46_update
     00294284  GBVM$actor_46_update$6420741e_bd   actor_46_update
     00294352  GBVM$actor_46_update$c2b7ec12_29   actor_46_update
     0029435D  GBVM$actor_46_update$97027fe1_94   actor_46_update
     00294470  GBVM$actor_46_update$b44ef76c_d0   actor_46_update
     0029447B  GBVM$actor_46_update$3c2bdebc_eb   actor_46_update
     002944C5  GBVM$actor_46_update$22a73cc1_1f   actor_46_update
     002944D0  GBVM$actor_46_update$239d2bb7_ac   actor_46_update
     00294518  GBVM$actor_46_update$24f4b783_94   actor_46_update
     0029454D  GBVM$actor_46_update$7c8f6076_d8   actor_46_update
     00294559  GBVM$actor_46_update$cc4d17bd_ad   actor_46_update
     0029455D  GBVM$actor_46_update$ec7bb5f3_98   actor_46_update
     00294571  GBVM$actor_46_update$6c88d940_c4   actor_46_update
     0029457C  GBVM$actor_46_update$8cf73e56_27   actor_46_update
     0029459A  GBVM$actor_46_update$5dd6e5dd_23   actor_46_update
     002945C8  GBVM$actor_46_update$7bfb6e99_24   actor_46_update
     002945D3  GBVM$actor_46_update$936e021d_bf   actor_46_update
     002945DB  GBVM$actor_46_update$1c489df6_fb   actor_46_update
     002945E3  GBVM$actor_46_update$a7e710ea_10   actor_46_update
     002945EF  GBVM$actor_46_update$ed5e75c9_b8   actor_46_update
     00294627  GBVM$actor_46_update$8c7bfc3e_3b   actor_46_update
     00294627  GBVM_END$actor_46_update$a7e710e   actor_46_update
     00294632  GBVM$actor_46_update$7119e32f_03   actor_46_update
     00294641  GBVM_END$actor_46_update$653ef30   actor_46_update
     00294641  GBVM_END$actor_46_update$7c8f607   actor_46_update
     00294641  GBVM_END$actor_46_update$ec7bb5f   actor_46_update
     00294646  ___func_bg_title_tilemap_attr      bg_title_tilemap_attr
     00294646  _bg_title_tilemap_attr             bg_title_tilemap_attr
     002947AE  ___func_bg_venus_ac_ventilation2   bg_venus_ac_ventilation2_til
     002947AE  _bg_venus_ac_ventilation2_tilema   bg_venus_ac_ventilation2_til
     00295A6E  ___func_bg_venus_ac_ventilation2   bg_venus_ac_ventilation2_til
     00295A6E  _bg_venus_ac_ventilation2_tilema   bg_venus_ac_ventilation2_til
     00296D2E  ___func_bg_venus_office_access_t   bg_venus_office_access_tilem
     00296D2E  _bg_venus_office_access_tilemap_   bg_venus_office_access_tilem
     00297FEE  _script_timer_12                   script_timer_12
     00297FF0  GBVM$script_timer_12$12c792a4_9a   script_timer_12
ASxxxx Linker V03.00/V05.40 + sdld,  page 159.
Hexadecimal  [32-Bits]

Area                                    Addr        Size        Decimal Bytes (Attributes)
--------------------------------        ----        ----        ------- ----- ------------
_CODE_28                            001C4000    00004000 =       16384. bytes (REL,CON)

      Value  Global                              Global Defined In Module
      -----  --------------------------------   ------------------------
     001C4000  ___func_bg_blight_s_memory_p1_ti   bg_blight_s_memory_p1_tilese
     001C4000  _bg_blight_s_memory_p1_tileset     bg_blight_s_memory_p1_tilese
     001C4522  ___func_bg_mercury_viewing_area_   bg_mercury_viewing_area_tile
     001C4522  _bg_mercury_viewing_area_tilemap   bg_mercury_viewing_area_tile
     001C7FD9  _song_featherfire_depresed0_Data   song_featherfire_depresed0_D
     001C7FEE  _script_timer_0                    script_timer_0
     001C7FF0  GBVM$script_timer_0$760e9e45_6da   script_timer_0

ASxxxx Linker V03.00/V05.40 + sdld,  page 160.
Hexadecimal  [32-Bits]

Area                                    Addr        Size        Decimal Bytes (Attributes)
--------------------------------        ----        ----        ------- ----- ------------
_CODE_11                            000B4000    00004000 =       16384. bytes (REL,CON)

      Value  Global                              Global Defined In Module
      -----  --------------------------------   ------------------------
     000B4000  ___func_bg_blight_s_memory_p1      bg_blight_s_memory_p1
     000B4000  _bg_blight_s_memory_p1             bg_blight_s_memory_p1
     000B400E  _SGB_border_chr                    border
     000B400E  ___func_SGB_border_chr             border
     000B400E  ___func_SGB_border_map             border
     000B400E  ___func_SGB_border_pal             border
     000B4DEE  _SGB_border_map                    border
     000B54EE  _SGB_border_pal                    border
     000B556E  ___func_scene_11_collisions        scene_11_collisions
     000B556E  _scene_11_collisions               scene_11_collisions
     000B7D46  _scene_17_init                     scene_17_init
     000B7D49  GBVM$scene_17_init$1bc67290_7253   scene_17_init
     000B7D4D  GBVM$scene_17_init$autofade$dcf3   scene_17_init
     000B7D58  GBVM$scene_17_init$2d840aec_ebd3   scene_17_init
     000B7DC1  GBVM$scene_17_init$f31ddf15_6280   scene_17_init
     000B7DCC  GBVM$scene_17_init$3a973687_6150   scene_17_init
     000B7FB5  GBVM$scene_17_init$fae18710_817d   scene_17_init
     000B7FC1  GBVM$scene_17_init$fd408fac_c7e8   scene_17_init
     000B7FCD  GBVM$scene_17_init$8554b11f_c049   scene_17_init

ASxxxx Linker V03.00/V05.40 + sdld,  page 161.
Hexadecimal  [32-Bits]

Area                                    Addr        Size        Decimal Bytes (Attributes)
--------------------------------        ----        ----        ------- ----- ------------
_CODE_32                            00204000    00004000 =       16384. bytes (REL,CON)

      Value  Global                              Global Defined In Module
      -----  --------------------------------   ------------------------
     00204000  ___func_bg_earth_burnclaw_forest   bg_earth_burnclaw_forest_ca_
     00204000  _bg_earth_burnclaw_forest_ca_til   bg_earth_burnclaw_forest_ca_
     002052C0  ___func_bg_earth_burnclaw_forest   bg_earth_burnclaw_forest_cr_
     002052C0  _bg_earth_burnclaw_forest_cr_til   bg_earth_burnclaw_forest_cr_
     00205A52  ___func_scene_28_projectiles       scene_28_projectiles
     00205A52  _scene_28_projectiles              scene_28_projectiles
     00205A80  ___func_scene_33_collisions        scene_33_collisions
     00205A80  _scene_33_collisions               scene_33_collisions

ASxxxx Linker V03.00/V05.40 + sdld,  page 162.
Hexadecimal  [32-Bits]

Area                                    Addr        Size        Decimal Bytes (Attributes)
--------------------------------        ----        ----        ------- ----- ------------
_CODE_55                            00374000    00004000 =       16384. bytes (REL,CON)

      Value  Global                              Global Defined In Module
      -----  --------------------------------   ------------------------
     00374000  ___func_bg_earth_burnclaw_forest   bg_earth_burnclaw_forest_cr_
     00374000  _bg_earth_burnclaw_forest_cr_til   bg_earth_burnclaw_forest_cr_
     00374578  ___func_bg_earth_burnclaw_forest   bg_earth_burnclaw_forest_til
     00374578  _bg_earth_burnclaw_forest_tilese   bg_earth_burnclaw_forest_til
     00374B7A  ___func_bg_earth_level_1_intro_t   bg_earth_level_1_intro_tiles
     00374B7A  _bg_earth_level_1_intro_tileset    bg_earth_level_1_intro_tiles
     0037543C  ___func_bg_mercury_landing_site_   bg_mercury_landing_site_tile
     0037543C  _bg_mercury_landing_site_tileset   bg_mercury_landing_site_tile
     00375C4E  ___func_bg_mercury_poison_proces   bg_mercury_poison_processin_
     00375C4E  _bg_mercury_poison_processin_til   bg_mercury_poison_processin_
     003764D0  ___func_scene_12_collisions        scene_12_collisions
     003764D0  _scene_12_collisions               scene_12_collisions
     00376B10  ___func_scene_32_collisions        scene_32_collisions
     00376B10  _scene_32_collisions               scene_32_collisions
     00377150  ___func_scene_34_triggers          scene_34_triggers
     00377150  _scene_34_triggers                 scene_34_triggers
     003771F8  ___func_scene_51_collisions        scene_51_collisions
     003771F8  _scene_51_collisions               scene_51_collisions
     00377838  _shmup_init                        shmup
     003778D5  _shmup_update                      shmup

ASxxxx Linker V03.00/V05.40 + sdld,  page 163.
Hexadecimal  [32-Bits]

Area                                    Addr        Size        Decimal Bytes (Attributes)
--------------------------------        ----        ----        ------- ----- ------------
_CODE_7                             00074000    00003FFF =       16383. bytes (REL,CON)

      Value  Global                              Global Defined In Module
      -----  --------------------------------   ------------------------
     00074000  ___func_bg_earth_burnclaw_forest   bg_earth_burnclaw_forest_til
     00074000  _bg_earth_burnclaw_forest_tilema   bg_earth_burnclaw_forest_til
     000767D8  ___func_bg_placeholder_tileset     bg_placeholder_tileset
     000767D8  _bg_placeholder_tileset            bg_placeholder_tileset
     0007697A  ___func_scene_1_sprites            scene_1_sprites
     0007697A  _scene_1_sprites                   scene_1_sprites
     0007697D  ___func_tileset_hud_ui             tileset_hud_ui
     0007697D  _tileset_hud_ui                    tileset_hud_ui

ASxxxx Linker V03.00/V05.40 + sdld,  page 164.
Hexadecimal  [32-Bits]

Area                                    Addr        Size        Decimal Bytes (Attributes)
--------------------------------        ----        ----        ------- ----- ------------
_CODE_8                             00084000    00004000 =       16384. bytes (REL,CON)

      Value  Global                              Global Defined In Module
      -----  --------------------------------   ------------------------
     00084000  ___func_bg_earth_burnclaw_forest   bg_earth_burnclaw_forest_til
     00084000  _bg_earth_burnclaw_forest_tilema   bg_earth_burnclaw_forest_til
     000867D8  ___func_scene_19_sprites           scene_19_sprites
     000867D8  _scene_19_sprites                  scene_19_sprites
     000867DB  ___func_sprite_perlite_animated    sprite_perlite_animated
     000867DB  _sprite_perlite_animated_metaspr   sprite_perlite_animated
     000867F7  _sprite_perlite_animated_metaspr   sprite_perlite_animated
     00086813  _sprite_perlite_animated_metaspr   sprite_perlite_animated
     0008682F  _sprite_perlite_animated_metaspr   sprite_perlite_animated
     0008684B  _sprite_perlite_animated_metaspr   sprite_perlite_animated
     00086867  _sprite_perlite_animated_metaspr   sprite_perlite_animated
     00086883  _sprite_perlite_animated_metaspr   sprite_perlite_animated
     0008689F  _sprite_perlite_animated_metaspr   sprite_perlite_animated
     000868BB  _sprite_perlite_animated_metaspr   sprite_perlite_animated
     000868D7  _sprite_perlite_animated_metaspr   sprite_perlite_animated
     000868F3  _sprite_perlite_animated_metaspr   sprite_perlite_animated
     0008690F  _sprite_perlite_animated_metaspr   sprite_perlite_animated
     0008692B  _sprite_perlite_animated_metaspr   sprite_perlite_animated
     00086947  _sprite_perlite_animated_metaspr   sprite_perlite_animated
     00086969  _sprite_perlite_animated_animati   sprite_perlite_animated
     00086979  _sprite_perlite_animated_animati   sprite_perlite_animated
     0008697B  _sprite_perlite_animated           sprite_perlite_animated
     0008698E  _platform_init                     platform
     00086B08  _platform_update                   platform
ASxxxx Linker V03.00/V05.40 + sdld,  page 165.
Hexadecimal  [32-Bits]

Area                                    Addr        Size        Decimal Bytes (Attributes)
--------------------------------        ----        ----        ------- ----- ------------
_CODE_5                             00054000    00003FFF =       16383. bytes (REL,CON)

      Value  Global                              Global Defined In Module
      -----  --------------------------------   ------------------------
     00054000  ___func_bg_earth_distortion_moun   bg_earth_distortion_mountai_
     00054000  _bg_earth_distortion_mountai_til   bg_earth_distortion_mountai_
     000568A0  ___func_bg_temporal_light_backgr   bg_temporal_light_backgroun_
     000568A0  _bg_temporal_light_backgroun_til   bg_temporal_light_backgroun_
     00057F22  _trigger_104_interact              trigger_104_interact
     00057F25  GBVM$trigger_104_interact$cacd60   trigger_104_interact
     00057F37  GBVM$trigger_104_interact$d5d46b   trigger_104_interact
     00057F42  GBVM$trigger_104_interact$8b27fc   trigger_104_interact
     00057FBC  GBVM$trigger_104_interact$cf5d15   trigger_104_interact
     00057FC8  GBVM$trigger_104_interact$e5ff56   trigger_104_interact
     00057FD2  GBVM$trigger_104_interact$4b7847   trigger_104_interact
     00057FD2  GBVM$trigger_104_interact$edae23   trigger_104_interact
     00057FD2  GBVM_END$trigger_104_interact$ca   trigger_104_interact
     00057FD7  GBVM$trigger_104_interact$a0272b   trigger_104_interact
     00057FDE  GBVM$trigger_104_interact$662dbe   trigger_104_interact
     00057FE2  GBVM$trigger_104_interact$e37d6e   trigger_104_interact
     00057FF6  GBVM$trigger_104_interact$1d73cd   trigger_104_interact
     00057FFE  GBVM_END$trigger_104_interact$1d   trigger_104_interact
     00057FFE  GBVM_END$trigger_104_interact$4b   trigger_104_interact

ASxxxx Linker V03.00/V05.40 + sdld,  page 166.
Hexadecimal  [32-Bits]

Area                                    Addr        Size        Decimal Bytes (Attributes)
--------------------------------        ----        ----        ------- ----- ------------
_CODE_12                            000C4000    00004000 =       16384. bytes (REL,CON)

      Value  Global                              Global Defined In Module
      -----  --------------------------------   ------------------------
     000C4000  ___func_bg_earth_level_1_intro_t   bg_earth_level_1_intro_tilem
     000C4000  _bg_earth_level_1_intro_tilemap_   bg_earth_level_1_intro_tilem
     000C5807  _song_featherfire_depresed_0_Dat   song_featherfire_depresed_0_
     000C581C  ___func_scene_14_collisions        scene_14_collisions
     000C581C  _scene_14_collisions               scene_14_collisions
     000C7FF4  ___func_scene_6_sprites            scene_6_sprites
     000C7FF4  _scene_6_sprites                   scene_6_sprites

ASxxxx Linker V03.00/V05.40 + sdld,  page 167.
Hexadecimal  [32-Bits]

Area                                    Addr        Size        Decimal Bytes (Attributes)
--------------------------------        ----        ----        ------- ----- ------------
_CODE_47                            002F4000    00004000 =       16384. bytes (REL,CON)

      Value  Global                              Global Defined In Module
      -----  --------------------------------   ------------------------
     002F4000  ___func_bg_earth_shuttle_bay_til   bg_earth_shuttle_bay_tilemap
     002F4000  _bg_earth_shuttle_bay_tilemap_at   bg_earth_shuttle_bay_tilemap
     002F5068  ___func_font_gbs_mono              font_gbs_mono
     002F5E28  _font_gbs_mono                     font_gbs_mono
     002F6EC7  _song_unknown_wilds_Data           song_unknown_wilds_Data
     002F6EDC  ___func_scene_36_sprites           scene_36_sprites
     002F6EDC  _scene_36_sprites                  scene_36_sprites
     002F6EDF  _scene_39_init                     scene_39_init
     002F6EE2  GBVM$scene_39_init$f55d2ad8_43d6   scene_39_init
     002F6EEC  GBVM$scene_39_init$11aa624f_87ff   scene_39_init
     002F6EF0  GBVM$scene_39_init$604dc43e_ce0e   scene_39_init
     002F6EFB  GBVM$scene_39_init$autofade$e02d   scene_39_init
     002F6F06  GBVM$scene_39_init$537ba374_ca46   scene_39_init
     002F7045  GBVM$scene_39_init$54c2adc8_ae56   scene_39_init
     002F7050  GBVM$scene_39_init$c423d2db_c521   scene_39_init
     002F70F1  GBVM$scene_39_init$72558018_e2ea   scene_39_init
     002F70FC  GBVM$scene_39_init$c74e95a9_5527   scene_39_init
     002F720B  GBVM$scene_39_init$46d80010_ea43   scene_39_init
     002F7216  GBVM$scene_39_init$50948e47_484f   scene_39_init
     002F72EF  GBVM$scene_39_init$cf82d49a_4bfc   scene_39_init
     002F72FA  GBVM$scene_39_init$dda73199_4e54   scene_39_init
     002F7481  GBVM$scene_39_init$321384cd_3767   scene_39_init
     002F748C  GBVM$scene_39_init$4257d46e_a637   scene_39_init
     002F74D6  GBVM$scene_39_init$e2232b34_ccaa   scene_39_init
     002F74E1  GBVM$scene_39_init$6c85301b_7a41   scene_39_init
     002F75C3  GBVM$scene_39_init$670411ed_8fd2   scene_39_init
     002F75CE  GBVM$scene_39_init$4b5cd694_549f   scene_39_init
     002F761D  GBVM$scene_39_init$9e1029dc_128b   scene_39_init
     002F76FC  GBVM$scene_39_init$f5b69d70_0c3e   scene_39_init
     002F7707  GBVM$scene_39_init$70df9c4c_5e83   scene_39_init
     002F775D  GBVM$scene_39_init$a456e663_41bd   scene_39_init
     002F7780  GBVM$scene_39_init$dc575e48_5143   scene_39_init
     002F778B  GBVM$scene_39_init$a4f9f4a7_f628   scene_39_init
     002F780E  GBVM$scene_39_init$edc57554_a006   scene_39_init
     002F7819  GBVM$scene_39_init$d6530768_fe65   scene_39_init
     002F7859  GBVM$scene_39_init$edf4428d_9630   scene_39_init
     002F788A  GBVM$scene_39_init$844e9f5c_0056   scene_39_init
     002F7895  GBVM$scene_39_init$5e429b6c_d6c6   scene_39_init
     002F7956  GBVM$scene_39_init$871450fb_f6a7   scene_39_init
     002F7961  GBVM$scene_39_init$16eac245_a9e1   scene_39_init
     002F79FC  GBVM$scene_39_init$0cfe4788_ef1b   scene_39_init
     002F7A07  GBVM$scene_39_init$d8dc5c49_3863   scene_39_init
     002F7A45  GBVM$scene_39_init$b7fd9bb3_0078   scene_39_init
     002F7A50  GBVM$scene_39_init$58fc7c56_31f9   scene_39_init
     002F7AF4  GBVM$scene_39_init$77c30f7c_ed10   scene_39_init
     002F7B22  GBVM$scene_39_init$a06f66d9_b891   scene_39_init
     002F7B2D  GBVM$scene_39_init$09c5f7fd_2185   scene_39_init
     002F7BAA  GBVM$scene_39_init$df48e500_85f4   scene_39_init
     002F7BCD  GBVM$scene_39_init$7ab6fe09_ec3e   scene_39_init
     002F7BD6  GBVM$scene_39_init$b771e65d_5a15   scene_39_init
ASxxxx Linker V03.00/V05.40 + sdld,  page 168.
Hexadecimal  [32-Bits]

Area                                    Addr        Size        Decimal Bytes (Attributes)
--------------------------------        ----        ----        ------- ----- ------------
_CODE_47                            002F4000    00004000 =       16384. bytes (REL,CON)

      Value  Global                              Global Defined In Module
      -----  --------------------------------   ------------------------
     002F7BE2  GBVM$scene_39_init$f3eb48d5_ac1f   scene_39_init
     002F7BEC  GBVM$scene_39_init$d4caebc5_acda   scene_39_init
     002F7BF7  GBVM$scene_39_init$c342786f_cb5e   scene_39_init
     002F7F51  GBVM$scene_39_init$92930c7c_c53f   scene_39_init
     002F7F5D  GBVM$scene_39_init$a46a41ba_1841   scene_39_init
     002F7F68  GBVM$scene_39_init$de0905a3_f293   scene_39_init
     002F7F73  GBVM$scene_39_init$43687d83_037d   scene_39_init
     002F7F7E  GBVM$scene_39_init$a8f18c92_2373   scene_39_init
     002F7FB5  GBVM$scene_39_init$7bc2987a_3538   scene_39_init
     002F7FC1  GBVM$scene_39_init$a557a8c1_e324   scene_39_init
     002F7FCD  GBVM$scene_39_init$92fbb05d_d0b9   scene_39_init

ASxxxx Linker V03.00/V05.40 + sdld,  page 169.
Hexadecimal  [32-Bits]

Area                                    Addr        Size        Decimal Bytes (Attributes)
--------------------------------        ----        ----        ------- ----- ------------
_CODE_42                            002A4000    00003FFF =       16383. bytes (REL,CON)

      Value  Global                              Global Defined In Module
      -----  --------------------------------   ------------------------
     002A4000  ___func_bg_earth_shuttle_bay_wat   bg_earth_shuttle_bay_water_t
     002A4000  _bg_earth_shuttle_bay_water_tile   bg_earth_shuttle_bay_water_t
     002A4640  ___func_bg_title_tilemap           bg_title_tilemap
     002A4640  _bg_title_tilemap                  bg_title_tilemap
     002A47A8  ___func_bg_venus_office_access_t   bg_venus_office_access_tilem
     002A47A8  _bg_venus_office_access_tilemap    bg_venus_office_access_tilem
     002A5A68  ___func_bg_venus_police_departme   bg_venus_police_department__
     002A5A68  _bg_venus_police_department__til   bg_venus_police_department__
     002A6D28  ___func_bg_venus_police_departme   bg_venus_police_department__
     002A6D28  _bg_venus_police_department__til   bg_venus_police_department__
     002A7FE8  ___func_scene_13_projectiles       scene_13_projectiles
     002A7FE8  _scene_13_projectiles              scene_13_projectiles
ASxxxx Linker V03.00/V05.40 + sdld,  page 170.
Hexadecimal  [32-Bits]

Area                                    Addr        Size        Decimal Bytes (Attributes)
--------------------------------        ----        ----        ------- ----- ------------
_CODE_43                            002B4000    00003FFF =       16383. bytes (REL,CON)

      Value  Global                              Global Defined In Module
      -----  --------------------------------   ------------------------
     002B4000  ___func_bg_earth_shuttle_bay_wat   bg_earth_shuttle_bay_water_t
     002B4000  _bg_earth_shuttle_bay_water_tile   bg_earth_shuttle_bay_water_t
     002B4640  ___func_bg_venus_office_tilemap_   bg_venus_office_tilemap_attr
     002B4640  _bg_venus_office_tilemap_attr      bg_venus_office_tilemap_attr
     002B47A8  ___func_scene_14_projectiles       scene_14_projectiles
     002B47A8  _scene_14_projectiles              scene_14_projectiles
     002B47BF  ___func_scene_15_collisions        scene_15_collisions
     002B47BF  _scene_15_collisions               scene_15_collisions
     002B5A7F  ___func_scene_21_collisions        scene_21_collisions
     002B5A7F  _scene_21_collisions               scene_21_collisions
     002B6D3F  ___func_scene_23_collisions        scene_23_collisions
     002B6D3F  _scene_23_collisions               scene_23_collisions
ASxxxx Linker V03.00/V05.40 + sdld,  page 171.
Hexadecimal  [32-Bits]

Area                                    Addr        Size        Decimal Bytes (Attributes)
--------------------------------        ----        ----        ------- ----- ------------
_CODE_16                            00104000    00004000 =       16384. bytes (REL,CON)

      Value  Global                              Global Defined In Module
      -----  --------------------------------   ------------------------
     00104000  ___func_bg_hud_ui_tilemap_attr     bg_hud_ui_tilemap_attr
     00104000  _bg_hud_ui_tilemap_attr            bg_hud_ui_tilemap_attr
     00104168  ___func_bg_luna_peryil_s_house_t   bg_luna_peryil_s_house_tilem
     00104168  _bg_luna_peryil_s_house_tilemap    bg_luna_peryil_s_house_tilem
     00105A68  ___func_bg_luna_water_heater_til   bg_luna_water_heater_tilemap
     00105A68  _bg_luna_water_heater_tilemap      bg_luna_water_heater_tilemap
     00107FE8  ___func_scene_14_triggers          scene_14_triggers
     00107FE8  _scene_14_triggers                 scene_14_triggers

ASxxxx Linker V03.00/V05.40 + sdld,  page 172.
Hexadecimal  [32-Bits]

Area                                    Addr        Size        Decimal Bytes (Attributes)
--------------------------------        ----        ----        ------- ----- ------------
_CODE_17                            00114000    00004000 =       16384. bytes (REL,CON)

      Value  Global                              Global Defined In Module
      -----  --------------------------------   ------------------------
     00114000  ___func_bg_hud_ui_tilemap          bg_hud_ui_tilemap
     00114000  _bg_hud_ui_tilemap                 bg_hud_ui_tilemap
     00114168  ___func_bg_mercury_landing_site_   bg_mercury_landing_site_tile
     00114168  _bg_mercury_landing_site_tilemap   bg_mercury_landing_site_tile
     001166E8  ___func_scene_15_triggers          scene_15_triggers
     001166E8  _scene_15_triggers                 scene_15_triggers
     00116700  ___func_scene_17_collisions        scene_17_collisions
     00116700  _scene_17_collisions               scene_17_collisions

ASxxxx Linker V03.00/V05.40 + sdld,  page 173.
Hexadecimal  [32-Bits]

Area                                    Addr        Size        Decimal Bytes (Attributes)
--------------------------------        ----        ----        ------- ----- ------------
_CODE_18                            00124000    00004000 =       16384. bytes (REL,CON)

      Value  Global                              Global Defined In Module
      -----  --------------------------------   ------------------------
     00124000  ___func_bg_jems_background_tilem   bg_jems_background_tilemap_a
     00124000  _bg_jems_background_tilemap_attr   bg_jems_background_tilemap_a
     00124168  ___func_bg_mercury_landing_site_   bg_mercury_landing_site_tile
     00124168  _bg_mercury_landing_site_tilemap   bg_mercury_landing_site_tile
     001266E8  ___func_scene_19_collisions        scene_19_collisions
     001266E8  _scene_19_collisions               scene_19_collisions
     00127FE8  ___func_scene_27_triggers          scene_27_triggers
     00127FE8  _scene_27_triggers                 scene_27_triggers

ASxxxx Linker V03.00/V05.40 + sdld,  page 174.
Hexadecimal  [32-Bits]

Area                                    Addr        Size        Decimal Bytes (Attributes)
--------------------------------        ----        ----        ------- ----- ------------
_CODE_19                            00134000    00004000 =       16384. bytes (REL,CON)

      Value  Global                              Global Defined In Module
      -----  --------------------------------   ------------------------
     00134000  ___func_bg_jems_background_tilem   bg_jems_background_tilemap
     00134000  _bg_jems_background_tilemap        bg_jems_background_tilemap
     00134168  ___func_bg_mercury_overflow_pass   bg_mercury_overflow_passage_
     00134168  _bg_mercury_overflow_passage_til   bg_mercury_overflow_passage_
     001366E8  ___func_scene_20_collisions        scene_20_collisions
     001366E8  _scene_20_collisions               scene_20_collisions
     00137FE8  ___func_scene_43_triggers          scene_43_triggers
     00137FE8  _scene_43_triggers                 scene_43_triggers

ASxxxx Linker V03.00/V05.40 + sdld,  page 175.
Hexadecimal  [32-Bits]

Area                                    Addr        Size        Decimal Bytes (Attributes)
--------------------------------        ----        ----        ------- ----- ------------
_CODE_36                            00244000    00003FFE =       16382. bytes (REL,CON)

      Value  Global                              Global Defined In Module
      -----  --------------------------------   ------------------------
     00244000  ___func_bg_jems_background_tiles   bg_jems_background_tileset
     00244000  _bg_jems_background_tileset        bg_jems_background_tileset
     002446A2  ___func_bg_luna_serenity_forest_   bg_luna_serenity_forest_tile
     002446A2  _bg_luna_serenity_forest_tilemap   bg_luna_serenity_forest_tile
     00245962  ___func_scene_31_sprites           scene_31_sprites
     00245962  _scene_31_sprites                  scene_31_sprites
     00245965  ___func_scene_37_collisions        scene_37_collisions
     00245965  _scene_37_collisions               scene_37_collisions
     00247EE5  _script_input_21                   script_input_21
     00247EE7  GBVM$script_input_21$3a618b36_aa   script_input_21
     00247EF2  GBVM$script_input_21$c0ed7bf8_d6   script_input_21
     00247FD1  GBVM$script_input_21$12c61075_b3   script_input_21
     00247FD1  GBVM$script_input_21$1d2a3b94_a9   script_input_21
     00247FD6  GBVM$script_input_21$5e0f06a8_fa   script_input_21
     00247FDD  GBVM$script_input_21$97125aa4_9d   script_input_21
     00247FE1  GBVM$script_input_21$e0d2de38_ea   script_input_21
     00247FF5  GBVM$script_input_21$5c469813_36   script_input_21
     00247FFD  GBVM_END$script_input_21$12c6107   script_input_21
     00247FFD  GBVM_END$script_input_21$5c46981   script_input_21

ASxxxx Linker V03.00/V05.40 + sdld,  page 176.
Hexadecimal  [32-Bits]

Area                                    Addr        Size        Decimal Bytes (Attributes)
--------------------------------        ----        ----        ------- ----- ------------
_CODE_15                            000F4000    00004000 =       16384. bytes (REL,CON)

      Value  Global                              Global Defined In Module
      -----  --------------------------------   ------------------------
     000F4000  ___func_bg_luna_peryil_s_house_t   bg_luna_peryil_s_house_tilem
     000F4000  _bg_luna_peryil_s_house_tilemap_   bg_luna_peryil_s_house_tilem
     000F5900  ___func_bg_luna_water_heater_til   bg_luna_water_heater_tilemap
     000F5900  _bg_luna_water_heater_tilemap_at   bg_luna_water_heater_tilemap
     000F7E80  ___func_scene_29_sprites           scene_29_sprites
     000F7E80  _scene_29_sprites                  scene_29_sprites
     000F7E83  ___func_sprite_jem_animated        sprite_jem_animated
     000F7E83  _sprite_jem_animated_metasprite_   sprite_jem_animated
     000F7E9B  _sprite_jem_animated_metasprite_   sprite_jem_animated
     000F7EB3  _sprite_jem_animated_metasprite_   sprite_jem_animated
     000F7ECB  _sprite_jem_animated_metasprite_   sprite_jem_animated
     000F7EE3  _sprite_jem_animated_metasprite_   sprite_jem_animated
     000F7EFB  _sprite_jem_animated_metasprite_   sprite_jem_animated
     000F7F13  _sprite_jem_animated_metasprite_   sprite_jem_animated
     000F7F17  _sprite_jem_animated_metasprite_   sprite_jem_animated
     000F7F2F  _sprite_jem_animated_metasprite_   sprite_jem_animated
     000F7F47  _sprite_jem_animated_metasprite_   sprite_jem_animated
     000F7F5B  _sprite_jem_animated_metasprite_   sprite_jem_animated
     000F7F6F  _sprite_jem_animated_metasprite_   sprite_jem_animated
     000F7F83  _sprite_jem_animated_metasprite_   sprite_jem_animated
     000F7F9B  _sprite_jem_animated_metasprite_   sprite_jem_animated
     000F7FB3  _sprite_jem_animated_metasprites   sprite_jem_animated
     000F7FDB  _sprite_jem_animated_animations    sprite_jem_animated
     000F7FEB  _sprite_jem_animated_animations_   sprite_jem_animated
     000F7FED  _sprite_jem_animated               sprite_jem_animated

ASxxxx Linker V03.00/V05.40 + sdld,  page 177.
Hexadecimal  [32-Bits]

Area                                    Addr        Size        Decimal Bytes (Attributes)
--------------------------------        ----        ----        ------- ----- ------------
_CODE_50                            00324000    00003FFE =       16382. bytes (REL,CON)

      Value  Global                              Global Defined In Module
      -----  --------------------------------   ------------------------
     00324000  ___func_bg_luna_serenity_cave_lo   bg_luna_serenity_cave_lower_
     00324000  _bg_luna_serenity_cave_lower_til   bg_luna_serenity_cave_lower_
     00324D20  ___func_bg_luna_serenity_cave_lo   bg_luna_serenity_cave_lower_
     00324D20  _bg_luna_serenity_cave_lower_til   bg_luna_serenity_cave_lower_
     00325A40  ___func_bg_mercury_throne_room_t   bg_mercury_throne_room_tilem
     00325A40  _bg_mercury_throne_room_tilemap_   bg_mercury_throne_room_tilem
     003266C0  ___func_scene_27_collisions        scene_27_collisions
     003266C0  _scene_27_collisions               scene_27_collisions
     003273E0  _script_13                         script_13
     003273E2  GBVM$script_13$b1448aec_a9f1_4fe   script_13
     003273EA  GBVM$script_13$996c9ccb_6456_41e   script_13
     003273F5  GBVM$script_13$6baaef64_8852_4e9   script_13
     00327407  GBVM$script_13$f6a75c5a_4c82_437   script_13
     00327413  GBVM$script_13$03fdbd79_6384_47c   script_13
     00327422  GBVM$script_13$e9afb8b1_b59f_447   script_13
     00327427  GBVM$script_13$c0fa6e99_f2c1_45b   script_13
     0032742C  GBVM$script_13$8e65b077_6c03_467   script_13
     0032742C  GBVM_END$script_13$6baaef64_8852   script_13
     00327455  GBVM$script_13$95167f53_eb4b_4a4   script_13
     00327479  GBVM$script_13$ddabf1e3_f7a7_420   script_13
     0032749D  GBVM$script_13$40c8bd6c_b729_431   script_13
     003274C1  GBVM$script_13$07855eaa_4e44_487   script_13
     003274E8  GBVM$script_13$6f017309_7b90_493   script_13
     003274E8  GBVM$script_13$922819be_2cdc_48f   script_13
     0032750C  GBVM$script_13$09be7320_4630_4cc   script_13
     00327530  GBVM$script_13$d6a432a5_53e1_42b   script_13
     00327554  GBVM$script_13$18eebe6c_5f00_497   script_13
     00327578  GBVM_END$script_13$6f017309_7b90   script_13
     0032757B  GBVM$script_13$67e143a1_4a1d_4b9   script_13
     0032757B  GBVM$script_13$74104e84_9208_445   script_13
     0032759F  GBVM$script_13$a3d97959_5607_479   script_13
     003275C3  GBVM$script_13$82cb3848_7f7b_40a   script_13
     003275E7  GBVM$script_13$47e1fbbd_061a_4a5   script_13
     0032760B  GBVM_END$script_13$74104e84_9208   script_13
     0032760E  GBVM$script_13$02549202_5316_412   script_13
     0032760E  GBVM$script_13$a8df42ea_2d4a_4b4   script_13
     00327632  GBVM$script_13$0052d8e7_3c4d_43c   script_13
     00327656  GBVM$script_13$f4fafa27_819b_41e   script_13
     0032767A  GBVM$script_13$7efcec04_fde5_40f   script_13
     0032769E  GBVM_END$script_13$02549202_5316   script_13
     003276A1  GBVM$script_13$b216562b_33b9_4a8   script_13
     003276A1  GBVM$script_13$e0a15fdb_21f8_41d   script_13
     003276C5  GBVM$script_13$75e8dbe2_262b_4bb   script_13
     003276E9  GBVM$script_13$6cd95fd1_ef57_496   script_13
     0032770D  GBVM$script_13$631b4661_bf7a_4c6   script_13
     00327731  GBVM_END$script_13$b216562b_33b9   script_13
     00327734  GBVM$script_13$9b397f9b_6679_424   script_13
     00327734  GBVM$script_13$d1a2bb86_6ea3_424   script_13
     00327758  GBVM$script_13$e4513698_a7d6_43c   script_13
     0032777C  GBVM$script_13$b4907334_ffdd_492   script_13
ASxxxx Linker V03.00/V05.40 + sdld,  page 178.
Hexadecimal  [32-Bits]

Area                                    Addr        Size        Decimal Bytes (Attributes)
--------------------------------        ----        ----        ------- ----- ------------
_CODE_50                            00324000    00003FFE =       16382. bytes (REL,CON)

      Value  Global                              Global Defined In Module
      -----  --------------------------------   ------------------------
     003277A0  GBVM$script_13$45fb08eb_0164_410   script_13
     003277C4  GBVM_END$script_13$9b397f9b_6679   script_13
     003277C7  GBVM$script_13$6acab41a_aa7c_4c6   script_13
     003277C7  GBVM$script_13$e3e70b54_5449_4c0   script_13
     003277EB  GBVM$script_13$3987f88c_570e_473   script_13
     0032780F  GBVM$script_13$06261c17_a6f9_4b7   script_13
     00327833  GBVM$script_13$b9fedfaa_e840_45f   script_13
     00327857  GBVM_END$script_13$6acab41a_aa7c   script_13
     0032785A  GBVM$script_13$2789f541_d520_421   script_13
     0032785A  GBVM$script_13$72b24d50_e95d_428   script_13
     0032787E  GBVM$script_13$8b1b4baf_c4ac_455   script_13
     003278A2  GBVM$script_13$ae5bfe05_b3f6_4c6   script_13
     003278C6  GBVM$script_13$b8afbda0_fb0d_487   script_13
     003278EA  GBVM_END$script_13$72b24d50_e95d   script_13
     003278ED  GBVM$script_13$6d001868_d5b6_487   script_13
     003278ED  GBVM$script_13$b6934151_97ec_484   script_13
     00327911  GBVM$script_13$3467cc50_f703_4bc   script_13
     00327935  GBVM$script_13$f481cbde_3d01_411   script_13
     00327959  GBVM$script_13$5e3603f2_d48e_482   script_13
     0032797D  GBVM_END$script_13$6d001868_d5b6   script_13
     00327980  GBVM$script_13$82f14f9f_21ee_455   script_13
     00327980  GBVM$script_13$8e755ed3_7a0e_4a2   script_13
     003279A4  GBVM$script_13$df184f2f_8dd7_41b   script_13
     003279C8  GBVM$script_13$0cac38a0_00b3_4aa   script_13
     003279EC  GBVM$script_13$32a60af6_53b4_4e0   script_13
     00327A10  GBVM_END$script_13$8e755ed3_7a0e   script_13
     00327A13  GBVM$script_13$3f245dee_45e1_4a8   script_13
     00327A13  GBVM_END$script_13$8e65b077_6c03   script_13
     00327A3C  GBVM$script_13$2836eb13_55be_448   script_13
     00327A60  GBVM$script_13$7b94d71c_fb33_407   script_13
     00327A84  GBVM$script_13$e343bea9_c599_401   script_13
     00327AA8  GBVM$script_13$fa2c199a_b352_49b   script_13
     00327ACF  GBVM$script_13$105f0bd3_ffcd_4a8   script_13
     00327ACF  GBVM$script_13$c4b02d87_f06f_4ed   script_13
     00327AF3  GBVM$script_13$848a2f1a_58c0_47f   script_13
     00327B17  GBVM$script_13$3f5415ce_e71d_43e   script_13
     00327B3B  GBVM$script_13$27562081_3a7c_433   script_13
     00327B5F  GBVM_END$script_13$105f0bd3_ffcd   script_13
     00327B62  GBVM$script_13$963d9a84_7c0e_4f0   script_13
     00327B62  GBVM$script_13$c47cd0b4_82d0_4e1   script_13
     00327B86  GBVM$script_13$db869d7c_1526_428   script_13
     00327BAA  GBVM$script_13$30674688_b5c9_4f1   script_13
     00327BCE  GBVM$script_13$55127619_3e48_4ef   script_13
     00327BF2  GBVM_END$script_13$963d9a84_7c0e   script_13
     00327BF5  GBVM$script_13$2fa3fb3e_a413_4ac   script_13
     00327BF5  GBVM$script_13$d8b96fd4_a7c5_4af   script_13
     00327C19  GBVM$script_13$508b3d41_7365_4af   script_13
     00327C3D  GBVM$script_13$bb29da9c_b671_4e1   script_13
     00327C61  GBVM$script_13$91f7ec7e_2249_4e1   script_13
     00327C85  GBVM_END$script_13$2fa3fb3e_a413   script_13
     00327C88  GBVM$script_13$f43cdcf8_b19e_4dd   script_13
ASxxxx Linker V03.00/V05.40 + sdld,  page 179.
Hexadecimal  [32-Bits]

Area                                    Addr        Size        Decimal Bytes (Attributes)
--------------------------------        ----        ----        ------- ----- ------------
_CODE_50                            00324000    00003FFE =       16382. bytes (REL,CON)

      Value  Global                              Global Defined In Module
      -----  --------------------------------   ------------------------
     00327C88  GBVM$script_13$f7ebbd38_3b62_471   script_13
     00327CAC  GBVM$script_13$f05866ff_d57e_462   script_13
     00327CD0  GBVM$script_13$92ad64d5_5e70_4da   script_13
     00327CF4  GBVM$script_13$cc2f6746_fd60_4a6   script_13
     00327D18  GBVM_END$script_13$f7ebbd38_3b62   script_13
     00327D1B  GBVM$script_13$0717aaec_d770_49e   script_13
     00327D1B  GBVM$script_13$1a490bbe_7188_4da   script_13
     00327D3F  GBVM$script_13$3bc1c401_6b21_46c   script_13
     00327D63  GBVM$script_13$aee788ee_65b5_403   script_13
     00327D87  GBVM$script_13$09a6b142_b556_414   script_13
     00327DAB  GBVM_END$script_13$1a490bbe_7188   script_13
     00327DAE  GBVM$script_13$e41a11d6_929c_401   script_13
     00327DAE  GBVM$script_13$fc274e19_d79b_4e5   script_13
     00327DD2  GBVM$script_13$b3d14345_27cd_493   script_13
     00327DF6  GBVM$script_13$ddca4350_fcf6_420   script_13
     00327E1A  GBVM$script_13$1efd1ba3_a7d4_457   script_13
     00327E3E  GBVM_END$script_13$e41a11d6_929c   script_13
     00327E41  GBVM$script_13$66345145_3d40_435   script_13
     00327E41  GBVM$script_13$8751ad90_6295_405   script_13
     00327E65  GBVM$script_13$5319baec_38fa_417   script_13
     00327E89  GBVM$script_13$d3b1b8cb_831a_466   script_13
     00327EAD  GBVM$script_13$baa6a55f_78a5_49b   script_13
     00327ED1  GBVM_END$script_13$8751ad90_6295   script_13
     00327ED4  GBVM$script_13$61850a31_6c22_435   script_13
     00327ED4  GBVM$script_13$d2d2a637_6415_498   script_13
     00327EF8  GBVM$script_13$d96c2e87_bfec_463   script_13
     00327F1C  GBVM$script_13$3ba247a2_207f_4dc   script_13
     00327F40  GBVM$script_13$c9144a2d_8933_4fd   script_13
     00327F64  GBVM_END$script_13$61850a31_6c22   script_13
     00327F67  GBVM$script_13$71a524a0_6603_4fc   script_13
     00327F67  GBVM$script_13$81fa474b_5739_487   script_13
     00327F8B  GBVM$script_13$b468f7e8_6609_435   script_13
     00327FAF  GBVM$script_13$c734f0d0_09ee_413   script_13
     00327FD3  GBVM$script_13$41452fa8_05a4_421   script_13
     00327FF7  GBVM_END$script_13$81fa474b_5739   script_13
     00327FFA  GBVM_END$script_13$3f245dee_45e1   script_13

ASxxxx Linker V03.00/V05.40 + sdld,  page 180.
Hexadecimal  [32-Bits]

Area                                    Addr        Size        Decimal Bytes (Attributes)
--------------------------------        ----        ----        ------- ----- ------------
_CODE_35                            00234000    00004000 =       16384. bytes (REL,CON)

      Value  Global                              Global Defined In Module
      -----  --------------------------------   ------------------------
     00234000  ___func_bg_luna_serenity_cave_up   bg_luna_serenity_cave_upper_
     00234000  _bg_luna_serenity_cave_upper_til   bg_luna_serenity_cave_upper_
     002352C0  ___func_scene_36_collisions        scene_36_collisions
     002352C0  _scene_36_collisions               scene_36_collisions
     00237840  GBVM$script_input_9$5faa810d_2ce   script_input_9
     00237840  _script_input_9                    script_input_9
     00237845  _trigger_190_interact              trigger_190_interact
     00237848  GBVM$trigger_190_interact$9d2741   trigger_190_interact
     00237866  GBVM$trigger_190_interact$60e17f   trigger_190_interact
     00237872  GBVM$trigger_190_interact$7ab408   trigger_190_interact
     00237884  GBVM$trigger_190_interact$a1c33b   trigger_190_interact
     002378BD  GBVM$trigger_190_interact$c512d5   trigger_190_interact
     002378CF  GBVM$trigger_190_interact$ff5144   trigger_190_interact
     00237908  GBVM$trigger_190_interact$b86170   trigger_190_interact
     0023793E  GBVM_END$trigger_190_interact$7a   trigger_190_interact
     0023793E  GBVM_END$trigger_190_interact$c5   trigger_190_interact
     0023793F  _topdown_init                      topdown
     002379D6  _topdown_update                    topdown
ASxxxx Linker V03.00/V05.40 + sdld,  page 181.
Hexadecimal  [32-Bits]

Area                                    Addr        Size        Decimal Bytes (Attributes)
--------------------------------        ----        ----        ------- ----- ------------
_CODE_38                            00264000    00004000 =       16384. bytes (REL,CON)

      Value  Global                              Global Defined In Module
      -----  --------------------------------   ------------------------
     00264000  ___func_bg_luna_serenity_forest_   bg_luna_serenity_forest_tile
     00264000  _bg_luna_serenity_forest_tilemap   bg_luna_serenity_forest_tile
     00266ED7  _song_alchemist_energy_battl_Dat   song_alchemist_energy_battl_
     00267FE3  _song_wolfsbane_castle_Data        song_wolfsbane_castle_Data
     00267FF8  ___func_scene_12_triggers          scene_12_triggers
     00267FF8  _scene_12_triggers                 scene_12_triggers
ASxxxx Linker V03.00/V05.40 + sdld,  page 182.
Hexadecimal  [32-Bits]

Area                                    Addr        Size        Decimal Bytes (Attributes)
--------------------------------        ----        ----        ------- ----- ------------
_CODE_39                            00274000    00003FFF =       16383. bytes (REL,CON)

      Value  Global                              Global Defined In Module
      -----  --------------------------------   ------------------------
     00274000  ___func_bg_luna_serenity_outskir   bg_luna_serenity_outskirts_t
     00274000  _bg_luna_serenity_outskirts_tile   bg_luna_serenity_outskirts_t
     002752C0  ___func_bg_luna_serenity_outskir   bg_luna_serenity_outskirts_t
     002752C0  _bg_luna_serenity_outskirts_tile   bg_luna_serenity_outskirts_t
     00276580  ___func_bg_luna_sewer_system_til   bg_luna_sewer_system_tilemap
     00276580  _bg_luna_sewer_system_tilemap_at   bg_luna_sewer_system_tilemap
     00277840  ___func_scene_34_sprites           scene_34_sprites
     00277840  _scene_34_sprites                  scene_34_sprites
     00277843  _scene_55_init                     scene_55_init
     00277846  GBVM$scene_55_init$1f8458ea_ce86   scene_55_init
     0027785B  GBVM$scene_55_init$a3aa987c_25e0   scene_55_init
     00277863  GBVM$scene_55_init$autofade$91ff   scene_55_init
     00277863  GBVM_END$scene_55_init$1f8458ea_   scene_55_init
     0027786E  GBVM$scene_55_init$57a939e6_0d80   scene_55_init
     00277880  GBVM$scene_55_init$48b7a33a_1e5e   scene_55_init
     0027795F  GBVM$scene_55_init$c1e72aba_9163   scene_55_init
     0027796A  GBVM$scene_55_init$3cd5b2af_379d   scene_55_init
     00277979  GBVM$scene_55_init$8534b117_8fbd   scene_55_init
     00277979  GBVM$scene_55_init$b08d6793_cc9e   scene_55_init
     00277979  GBVM_END$scene_55_init$57a939e6_   scene_55_init
     0027797E  GBVM$scene_55_init$00ba0f95_8e15   scene_55_init
     00277985  GBVM$scene_55_init$d212601e_9936   scene_55_init
     00277989  GBVM$scene_55_init$7dee1fe1_f24e   scene_55_init
     0027799D  GBVM$scene_55_init$dc565472_f2f9   scene_55_init
     002779A5  GBVM_END$scene_55_init$8534b117_   scene_55_init
     002779A5  GBVM_END$scene_55_init$dc565472_   scene_55_init
     002779A6  _trigger_120_interact              trigger_120_interact
     002779A9  GBVM$trigger_120_interact$0a9538   trigger_120_interact
     002779B1  GBVM$trigger_120_interact$09eea7   trigger_120_interact
     002779B1  GBVM_END$trigger_120_interact$0a   trigger_120_interact
     002779B5  GBVM$trigger_120_interact$1d54b9   trigger_120_interact
     002779D7  GBVM$trigger_120_interact$7902b3   trigger_120_interact
     002779FD  GBVM$trigger_120_interact$735443   trigger_120_interact
     002779FD  GBVM_END$trigger_120_interact$1d   trigger_120_interact
     00277A09  GBVM$trigger_120_interact$61180b   trigger_120_interact
     00277A1C  GBVM$trigger_120_interact$a918a8   trigger_120_interact
     00277A27  GBVM$trigger_120_interact$aa5c8c   trigger_120_interact
     00277B0D  GBVM$trigger_120_interact$8fa644   trigger_120_interact
     00277B18  GBVM$trigger_120_interact$4a7dd7   trigger_120_interact
     00277BF1  GBVM$trigger_120_interact$fe4ac0   trigger_120_interact
     00277BFC  GBVM$trigger_120_interact$22e6c0   trigger_120_interact
     00277D6C  GBVM$trigger_120_interact$9574ab   trigger_120_interact
     00277D77  GBVM$trigger_120_interact$49b73a   trigger_120_interact
     00277E4D  GBVM$trigger_120_interact$c6a677   trigger_120_interact
     00277E58  GBVM$trigger_120_interact$a8f833   trigger_120_interact
     00277F83  GBVM$trigger_120_interact$1bdb11   trigger_120_interact
     00277FA1  GBVM$trigger_120_interact$11714f   trigger_120_interact
     00277FCC  GBVM$trigger_120_interact$86e299   trigger_120_interact
ASxxxx Linker V03.00/V05.40 + sdld,  page 183.
Hexadecimal  [32-Bits]

Area                                    Addr        Size        Decimal Bytes (Attributes)
--------------------------------        ----        ----        ------- ----- ------------
_CODE_13                            000D4000    00004000 =       16384. bytes (REL,CON)

      Value  Global                              Global Defined In Module
      -----  --------------------------------   ------------------------
     000D4000  ___func_bg_luna_serenity_waterfr   bg_luna_serenity_waterfront_
     000D4000  _bg_luna_serenity_waterfront_til   bg_luna_serenity_waterfront_
     000D7E77  _song_blight_of_light_0_Data       song_blight_of_light_0_Data
     000D7E8C  ___func_scene_10_triggers          scene_10_triggers
     000D7E8C  _scene_10_triggers                 scene_10_triggers
     000D7E94  ___func_scene_43_actors            scene_43_actors
     000D7E94  _scene_43_actors                   scene_43_actors

ASxxxx Linker V03.00/V05.40 + sdld,  page 184.
Hexadecimal  [32-Bits]

Area                                    Addr        Size        Decimal Bytes (Attributes)
--------------------------------        ----        ----        ------- ----- ------------
_CODE_14                            000E4000    00004000 =       16384. bytes (REL,CON)

      Value  Global                              Global Defined In Module
      -----  --------------------------------   ------------------------
     000E4000  ___func_bg_luna_serenity_waterfr   bg_luna_serenity_waterfront_
     000E4000  _bg_luna_serenity_waterfront_til   bg_luna_serenity_waterfront_
     000E7E77  _song_featherfire_depresed_Data    song_featherfire_depresed_Da
     000E7E8C  ___func_scene_11_triggers          scene_11_triggers
     000E7E8C  _scene_11_triggers                 scene_11_triggers
     000E7E94  ___func_scene_6_actors             scene_6_actors
     000E7E94  _scene_6_actors                    scene_6_actors

ASxxxx Linker V03.00/V05.40 + sdld,  page 185.
Hexadecimal  [32-Bits]

Area                                    Addr        Size        Decimal Bytes (Attributes)
--------------------------------        ----        ----        ------- ----- ------------
_CODE_2                             00024000    00003FFF =       16383. bytes (REL,CON)

      Value  Global                              Global Defined In Module
      -----  --------------------------------   ------------------------
     00024000  ___func_bg_luna_serenity_waterfr   bg_luna_serenity_waterfront_
     00024000  _bg_luna_serenity_waterfront_til   bg_luna_serenity_waterfront_
     000247A2  ___func_bg_venus_landing_site_ti   bg_venus_landing_site_tilema
     000247A2  _bg_venus_landing_site_tilemap_a   bg_venus_landing_site_tilema
     00027FE2  _scene_5_init                      scene_5_init
     00027FE5  GBVM$scene_5_init$514e2b52_1015_   scene_5_init
     00027FEF  GBVM$scene_5_init$autofade$69062   scene_5_init
     00027FFA  GBVM$scene_5_init$38b7646d_932e_   scene_5_init

ASxxxx Linker V03.00/V05.40 + sdld,  page 186.
Hexadecimal  [32-Bits]

Area                                    Addr        Size        Decimal Bytes (Attributes)
--------------------------------        ----        ----        ------- ----- ------------
_CODE_40                            00284000    00004000 =       16384. bytes (REL,CON)

      Value  Global                              Global Defined In Module
      -----  --------------------------------   ------------------------
     00284000  ___func_bg_luna_sewer_system_til   bg_luna_sewer_system_tilemap
     00284000  _bg_luna_sewer_system_tilemap      bg_luna_sewer_system_tilemap
     002852C0  ___func_bg_temporal_light_backgr   bg_temporal_light_backgroun_
     002852C0  _bg_temporal_light_backgroun_til   bg_temporal_light_backgroun_
     00285428  ___func_bg_venus_ac_ventilation_   bg_venus_ac_ventilation_tile
     00285428  _bg_venus_ac_ventilation_tilemap   bg_venus_ac_ventilation_tile
     002866E8  ___func_bg_venus_ac_ventilation_   bg_venus_ac_ventilation_tile
     002866E8  _bg_venus_ac_ventilation_tilemap   bg_venus_ac_ventilation_tile
     002879A8  _scene_30_init                     scene_30_init
     002879AB  GBVM$scene_30_init$ec550552_abf1   scene_30_init
     002879B0  GBVM$scene_30_init$46ec82a8_7716   scene_30_init
     002879BB  GBVM$scene_30_init$autofade$958e   scene_30_init
     002879C6  GBVM$scene_30_init$4c180bb8_4eea   scene_30_init
     00287A92  GBVM$scene_30_init$a978e49c_17fe   scene_30_init
     00287A9D  GBVM$scene_30_init$d86cc406_7a66   scene_30_init
     00287B6A  GBVM$scene_30_init$fcc3c86a_90cf   scene_30_init
     00287B75  GBVM$scene_30_init$4fec9bcf_30c2   scene_30_init
     00287BCB  GBVM$scene_30_init$88e932f7_6009   scene_30_init
     00287BD6  GBVM$scene_30_init$cf6c002e_5723   scene_30_init
     00287C26  GBVM$scene_30_init$5fc6e75b_93ee   scene_30_init
     00287C31  GBVM$scene_30_init$0841ec4a_8da5   scene_30_init
     00287D03  GBVM$scene_30_init$c3693bed_1586   scene_30_init
     00287D0E  GBVM$scene_30_init$a6906b57_780f   scene_30_init
     00287E3A  GBVM$scene_30_init$e937416a_eee3   scene_30_init
     00287E45  GBVM$scene_30_init$fb0e286d_7466   scene_30_init
     00287EE9  GBVM$scene_30_init$882e09c0_fc7f   scene_30_init
     00287EF4  GBVM$scene_30_init$8a28ceb3_e10a   scene_30_init
     00287FB4  GBVM$scene_30_init$1661115d_eece   scene_30_init
     00287FC4  GBVM$scene_30_init$3248bcbd_65eb   scene_30_init
     00287FF7  ___func_scene_43_sprites           scene_43_sprites
     00287FF7  _scene_43_sprites                  scene_43_sprites

ASxxxx Linker V03.00/V05.40 + sdld,  page 187.
Hexadecimal  [32-Bits]

Area                                    Addr        Size        Decimal Bytes (Attributes)
--------------------------------        ----        ----        ------- ----- ------------
_CODE_26                            001A4000    00004000 =       16384. bytes (REL,CON)

      Value  Global                              Global Defined In Module
      -----  --------------------------------   ------------------------
     001A4000  ___func_bg_luna_sewer_system_til   bg_luna_sewer_system_tileset
     001A4000  _bg_luna_sewer_system_tileset      bg_luna_sewer_system_tileset
     001A4232  ___func_bg_mercury_projectile_pl   bg_mercury_projectile_platf_
     001A4232  _bg_mercury_projectile_platf_til   bg_mercury_projectile_platf_
     001A67B2  ___func_bg_platformer_test01_til   bg_platformer_test01_tilemap
     001A67B2  _bg_platformer_test01_tilemap      bg_platformer_test01_tilemap
     001A7FEA  _scene_19_init                     scene_19_init
     001A7FEB  GBVM$scene_19_init$b36cbf35_51ce   scene_19_init
     001A7FF0  GBVM$scene_19_init$autofade$83da   scene_19_init
     001A7FFB  GBVM$scene_19_init$246fafdc_2e8d   scene_19_init

ASxxxx Linker V03.00/V05.40 + sdld,  page 188.
Hexadecimal  [32-Bits]

Area                                    Addr        Size        Decimal Bytes (Attributes)
--------------------------------        ----        ----        ------- ----- ------------
_CODE_20                            00144000    00004000 =       16384. bytes (REL,CON)

      Value  Global                              Global Defined In Module
      -----  --------------------------------   ------------------------
     00144000  ___func_bg_menu_load_background_   bg_menu_load_background_tile
     00144000  _bg_menu_load_background_tilemap   bg_menu_load_background_tile
     00144168  ___func_bg_mercury_overflow_pass   bg_mercury_overflow_passage_
     00144168  _bg_mercury_overflow_passage_til   bg_mercury_overflow_passage_
     001466E8  ___func_scene_29_collisions        scene_29_collisions
     001466E8  _scene_29_collisions               scene_29_collisions
     00147FE8  GBVM$script_timer_89$2b6f7f6c_cf   script_timer_89
     00147FE8  _script_timer_89                   script_timer_89
     00147FF3  GBVM$script_timer_89$fc6128d1_35   script_timer_89
ASxxxx Linker V03.00/V05.40 + sdld,  page 189.
Hexadecimal  [32-Bits]

Area                                    Addr        Size        Decimal Bytes (Attributes)
--------------------------------        ----        ----        ------- ----- ------------
_CODE_21                            00154000    00003FFF =       16383. bytes (REL,CON)

      Value  Global                              Global Defined In Module
      -----  --------------------------------   ------------------------
     00154000  ___func_bg_menu_load_background_   bg_menu_load_background_tile
     00154000  _bg_menu_load_background_tilemap   bg_menu_load_background_tile
     00154168  ___func_bg_mercury_poison_proces   bg_mercury_poison_processin_
     00154168  _bg_mercury_poison_processin_til   bg_mercury_poison_processin_
     001566E8  ___func_scene_1_projectiles        scene_1_projectiles
     001566E8  _scene_1_projectiles               scene_1_projectiles
     001566FF  ___func_scene_30_collisions        scene_30_collisions
     001566FF  _scene_30_collisions               scene_30_collisions

ASxxxx Linker V03.00/V05.40 + sdld,  page 190.
Hexadecimal  [32-Bits]

Area                                    Addr        Size        Decimal Bytes (Attributes)
--------------------------------        ----        ----        ------- ----- ------------
_CODE_53                            00354000    00004000 =       16384. bytes (REL,CON)

      Value  Global                              Global Defined In Module
      -----  --------------------------------   ------------------------
     00354000  ___func_bg_menu_load_background_   bg_menu_load_background_tile
     00354000  _bg_menu_load_background_tileset   bg_menu_load_background_tile
     003549B2  ___func_bg_mercury_poison_storag   bg_mercury_poison_storage_ti
     003549B2  _bg_mercury_poison_storage_tiles   bg_mercury_poison_storage_ti
     00355364  ___func_bg_venus_defence_tunnel_   bg_venus_defence_tunnel_tile
     00355364  _bg_venus_defence_tunnel_tilemap   bg_venus_defence_tunnel_tile
     00355CC4  ___func_bg_venus_defence_tunnel_   bg_venus_defence_tunnel_tile
     00355CC4  _bg_venus_defence_tunnel_tilemap   bg_venus_defence_tunnel_tile
     00356624  ___func_bg_venus_dropshaft_0_til   bg_venus_dropshaft_0_tilemap
     00356624  _bg_venus_dropshaft_0_tilemap_at   bg_venus_dropshaft_0_tilemap
     00356F84  ___func_bg_venus_evidence_room_t   bg_venus_evidence_room_tilem
     00356F84  _bg_venus_evidence_room_tilemap_   bg_venus_evidence_room_tilem
     003575C4  _scene_29_init                     scene_29_init
     003575C7  GBVM$scene_29_init$cc413b0e_a935   scene_29_init
     003575CF  GBVM$scene_29_init$560b620d_2903   scene_29_init
     003575DB  GBVM$scene_29_init$6e8eb3a4_2c4a   scene_29_init
     003575E7  GBVM$scene_29_init$84343d9c_0a71   scene_29_init
     003575EB  GBVM$scene_29_init$3247f8bd_9cae   scene_29_init
     003575F6  GBVM$scene_29_init$autofade$1836   scene_29_init
     00357601  GBVM$scene_29_init$035c02c8_49da   scene_29_init
     00357652  GBVM$scene_29_init$3b51d333_8699   scene_29_init
     0035765D  GBVM$scene_29_init$0517cc04_ff66   scene_29_init
     003576B6  GBVM$scene_29_init$8bb20c57_ccfb   scene_29_init
     003576C1  GBVM$scene_29_init$a33f5e56_2209   scene_29_init
     0035771E  GBVM$scene_29_init$a2c42901_cfae   scene_29_init
     00357726  GBVM$scene_29_init$5a16efd6_f5f0   scene_29_init
     00357774  GBVM$scene_29_init$b74318cb_3068   scene_29_init
     0035777F  GBVM$scene_29_init$24cb2332_91d9   scene_29_init
     00357AD6  GBVM$scene_29_init$6a1b8f7d_c44d   scene_29_init
     00357AE1  GBVM$scene_29_init$6d3dae27_4d76   scene_29_init
     00357B26  GBVM$scene_29_init$31967b4f_adc8   scene_29_init
     00357B31  GBVM$scene_29_init$409b21b9_d030   scene_29_init
     00357C58  GBVM$scene_29_init$69f088db_0416   scene_29_init
     00357C64  GBVM$scene_29_init$8441c3de_d344   scene_29_init
     00357C69  GBVM$scene_29_init$040e7e83_37b4   scene_29_init
     00357C74  GBVM$scene_29_init$7f0e92cd_6010   scene_29_init
     00357C7F  GBVM$scene_29_init$35880674_3695   scene_29_init
     00357C92  GBVM$scene_29_init$012074aa_215d   scene_29_init
     00357D10  GBVM$scene_29_init$010b5245_22e9   scene_29_init
     00357D1B  GBVM$scene_29_init$9866410e_fe16   scene_29_init
     00357D26  GBVM$scene_29_init$8e711493_19dd   scene_29_init
     00357DA2  GBVM$scene_29_init$0aaabec2_87c2   scene_29_init
     00357DAD  GBVM$scene_29_init$4668efdf_3e56   scene_29_init
     00357DB8  GBVM$scene_29_init$1cf33526_8c88   scene_29_init
     00357EF9  GBVM$scene_29_init$5daa86f5_a286   scene_29_init
     00357F01  GBVM$scene_29_init$fd495c1b_dc3b   scene_29_init
     00357F0A  GBVM$scene_29_init$3ef2b939_f749   scene_29_init
     00357F13  GBVM$scene_29_init$c4e4f024_6545   scene_29_init
     00357F46  GBVM$script_input_30$d36d33f4_34   script_input_30
     00357F46  _script_input_30                   script_input_30
ASxxxx Linker V03.00/V05.40 + sdld,  page 191.
Hexadecimal  [32-Bits]

Area                                    Addr        Size        Decimal Bytes (Attributes)
--------------------------------        ----        ----        ------- ----- ------------
_CODE_53                            00354000    00004000 =       16384. bytes (REL,CON)

      Value  Global                              Global Defined In Module
      -----  --------------------------------   ------------------------
     00357F52  GBVM$script_input_30$d2ecda81_dd   script_input_30
     00357F5D  GBVM$script_input_30$9a2a9c27_25   script_input_30

ASxxxx Linker V03.00/V05.40 + sdld,  page 192.
Hexadecimal  [32-Bits]

Area                                    Addr        Size        Decimal Bytes (Attributes)
--------------------------------        ----        ----        ------- ----- ------------
_CODE_22                            00164000    00003FFF =       16383. bytes (REL,CON)

      Value  Global                              Global Defined In Module
      -----  --------------------------------   ------------------------
     00164000  ___func_bg_mercury_poison_proces   bg_mercury_poison_processin_
     00164000  _bg_mercury_poison_processin_til   bg_mercury_poison_processin_
     00166580  ___func_bg_placeholder_tilemap_a   bg_placeholder_tilemap_attr
     00166580  _bg_placeholder_tilemap_attr       bg_placeholder_tilemap_attr
     001666E8  ___func_scene_10_projectiles       scene_10_projectiles
     001666E8  _scene_10_projectiles              scene_10_projectiles
     001666FF  ___func_scene_39_collisions        scene_39_collisions
     001666FF  _scene_39_collisions               scene_39_collisions

ASxxxx Linker V03.00/V05.40 + sdld,  page 193.
Hexadecimal  [32-Bits]

Area                                    Addr        Size        Decimal Bytes (Attributes)
--------------------------------        ----        ----        ------- ----- ------------
_CODE_23                            00174000    00003FFF =       16383. bytes (REL,CON)

      Value  Global                              Global Defined In Module
      -----  --------------------------------   ------------------------
     00174000  ___func_bg_mercury_poison_storag   bg_mercury_poison_storage_ti
     00174000  _bg_mercury_poison_storage_tilem   bg_mercury_poison_storage_ti
     00176580  ___func_bg_placeholder_tilemap     bg_placeholder_tilemap
     00176580  _bg_placeholder_tilemap            bg_placeholder_tilemap
     001766E8  ___func_scene_11_projectiles       scene_11_projectiles
     001766E8  _scene_11_projectiles              scene_11_projectiles
     001766FF  ___func_scene_52_collisions        scene_52_collisions
     001766FF  _scene_52_collisions               scene_52_collisions

ASxxxx Linker V03.00/V05.40 + sdld,  page 194.
Hexadecimal  [32-Bits]

Area                                    Addr        Size        Decimal Bytes (Attributes)
--------------------------------        ----        ----        ------- ----- ------------
_CODE_24                            00184000    00003FFF =       16383. bytes (REL,CON)

      Value  Global                              Global Defined In Module
      -----  --------------------------------   ------------------------
     00184000  ___func_bg_mercury_poison_storag   bg_mercury_poison_storage_ti
     00184000  _bg_mercury_poison_storage_tilem   bg_mercury_poison_storage_ti
     00186580  ___func_bg_temporal_light_backgr   bg_temporal_light_backgroun_
     00186580  _bg_temporal_light_backgroun_til   bg_temporal_light_backgroun_
     001866E8  ___func_scene_12_projectiles       scene_12_projectiles
     001866E8  _scene_12_projectiles              scene_12_projectiles
     001866FF  ___func_scene_53_collisions        scene_53_collisions
     001866FF  _scene_53_collisions               scene_53_collisions

ASxxxx Linker V03.00/V05.40 + sdld,  page 195.
Hexadecimal  [32-Bits]

Area                                    Addr        Size        Decimal Bytes (Attributes)
--------------------------------        ----        ----        ------- ----- ------------
_CODE_25                            00194000    00004000 =       16384. bytes (REL,CON)

      Value  Global                              Global Defined In Module
      -----  --------------------------------   ------------------------
     00194000  ___func_bg_mercury_projectile_pl   bg_mercury_projectile_platf_
     00194000  _bg_mercury_projectile_platf_til   bg_mercury_projectile_platf_
     00196580  ___func_bg_platformer_test01_til   bg_platformer_test01_tilemap
     00196580  _bg_platformer_test01_tilemap_at   bg_platformer_test01_tilemap
     00197DB8  _scene_52_init                     scene_52_init
     00197DBB  GBVM$scene_52_init$4b7a5a74_2189   scene_52_init
     00197DC6  GBVM$scene_52_init$autofade$3156   scene_52_init
     00197DD1  GBVM$scene_52_init$03aba021_5333   scene_52_init
     00197E22  GBVM$scene_52_init$2b52f125_d51f   scene_52_init
     00197E2D  GBVM$scene_52_init$0a15947d_520c   scene_52_init
     00197EAE  GBVM$scene_52_init$68f41cef_23f2   scene_52_init
     00197EB9  GBVM$scene_52_init$074a5e6a_f360   scene_52_init
     00197F53  GBVM$scene_52_init$0ea12c12_f0c0   scene_52_init
     00197F5E  GBVM$scene_52_init$2ec08031_3b44   scene_52_init
     00197FB4  GBVM$scene_52_init$ddf14b89_a694   scene_52_init
     00197FBD  GBVM$scene_52_init$6d3c3e33_c9e4   scene_52_init
     00197FC6  GBVM$scene_52_init$0716756b_cd12   scene_52_init
     00197FF9  _trigger_180_interact              trigger_180_interact
     00197FFA  GBVM$trigger_180_interact$5f6850   trigger_180_interact

ASxxxx Linker V03.00/V05.40 + sdld,  page 196.
Hexadecimal  [32-Bits]

Area                                    Addr        Size        Decimal Bytes (Attributes)
--------------------------------        ----        ----        ------- ----- ------------
_CODE_44                            002C4000    00003FFF =       16383. bytes (REL,CON)

      Value  Global                              Global Defined In Module
      -----  --------------------------------   ------------------------
     002C4000  ___func_bg_mercury_secret_area_t   bg_mercury_secret_area_tilem
     002C4000  _bg_mercury_secret_area_tilemap_   bg_mercury_secret_area_tilem
     002C4640  ___func_bg_venus_office_tilemap    bg_venus_office_tilemap
     002C4640  _bg_venus_office_tilemap           bg_venus_office_tilemap
     002C47A8  ___func_scene_15_projectiles       scene_15_projectiles
     002C47A8  _scene_15_projectiles              scene_15_projectiles
     002C47BF  ___func_scene_24_collisions        scene_24_collisions
     002C47BF  _scene_24_collisions               scene_24_collisions
     002C5A7F  ___func_scene_26_collisions        scene_26_collisions
     002C5A7F  _scene_26_collisions               scene_26_collisions
     002C6D3F  ___func_scene_43_collisions        scene_43_collisions
     002C6D3F  _scene_43_collisions               scene_43_collisions
ASxxxx Linker V03.00/V05.40 + sdld,  page 197.
Hexadecimal  [32-Bits]

Area                                    Addr        Size        Decimal Bytes (Attributes)
--------------------------------        ----        ----        ------- ----- ------------
_CODE_45                            002D4000    00003FFF =       16383. bytes (REL,CON)

      Value  Global                              Global Defined In Module
      -----  --------------------------------   ------------------------
     002D4000  ___func_bg_mercury_secret_area_t   bg_mercury_secret_area_tilem
     002D4000  _bg_mercury_secret_area_tilemap    bg_mercury_secret_area_tilem
     002D4640  ___func_bg_warning_tilemap_attr    bg_warning_tilemap_attr
     002D4640  _bg_warning_tilemap_attr           bg_warning_tilemap_attr
     002D47A8  ___func_scene_16_projectiles       scene_16_projectiles
     002D47A8  _scene_16_projectiles              scene_16_projectiles
     002D47BF  ___func_scene_44_collisions        scene_44_collisions
     002D47BF  _scene_44_collisions               scene_44_collisions
     002D5A7F  ___func_scene_45_collisions        scene_45_collisions
     002D5A7F  _scene_45_collisions               scene_45_collisions
     002D6D3F  ___func_scene_46_collisions        scene_46_collisions
     002D6D3F  _scene_46_collisions               scene_46_collisions
ASxxxx Linker V03.00/V05.40 + sdld,  page 198.
Hexadecimal  [32-Bits]

Area                                    Addr        Size        Decimal Bytes (Attributes)
--------------------------------        ----        ----        ------- ----- ------------
_CODE_27                            001B4000    00004000 =       16384. bytes (REL,CON)

      Value  Global                              Global Defined In Module
      -----  --------------------------------   ------------------------
     001B4000  ___func_bg_mercury_viewing_area_   bg_mercury_viewing_area_tile
     001B4000  _bg_mercury_viewing_area_tilemap   bg_mercury_viewing_area_tile
     001B6580  ___func_bg_venus_dropshaft_0_til   bg_venus_dropshaft_0_tileset
     001B6580  _bg_venus_dropshaft_0_tileset      bg_venus_dropshaft_0_tileset
     001B67B2  ___func_scene_8_collisions         scene_8_collisions
     001B67B2  _scene_8_collisions                scene_8_collisions
     001B7FEA  _trigger_184_interact              trigger_184_interact
     001B7FEB  GBVM$trigger_184_interact$346310   trigger_184_interact
     001B7FF6  GBVM$trigger_184_interact$bffc5a   trigger_184_interact
ASxxxx Linker V03.00/V05.40 + sdld,  page 199.
Hexadecimal  [32-Bits]

Area                                    Addr        Size        Decimal Bytes (Attributes)
--------------------------------        ----        ----        ------- ----- ------------
_CODE_3                             00034000    00003FFF =       16383. bytes (REL,CON)

      Value  Global                              Global Defined In Module
      -----  --------------------------------   ------------------------
     00034000  ___func_bg_title_tileset           bg_title_tileset
     00034000  _bg_title_tileset                  bg_title_tileset
     000347A2  ___func_bg_venus_landing_site_ti   bg_venus_landing_site_tilema
     000347A2  _bg_venus_landing_site_tilemap     bg_venus_landing_site_tilema
     00037FE2  GBVM$script_10$ad38196f_e449_49a   script_10
     00037FE2  _script_10                         script_10
     00037FEB  GBVM$script_10$f519f445_ddad_430   script_10
     00037FF3  GBVM$script_10$bad5d9ba_9f9c_4cd   script_10
     00037FF8  GBVM$script_10$fe5a5f91_3661_4fe   script_10
     00037FFD  GBVM_END$script_10$ad38196f_e449   script_10

ASxxxx Linker V03.00/V05.40 + sdld,  page 200.
Hexadecimal  [32-Bits]

Area                                    Addr        Size        Decimal Bytes (Attributes)
--------------------------------        ----        ----        ------- ----- ------------
_CODE_54                            00364000    00003FFF =       16383. bytes (REL,CON)

      Value  Global                              Global Defined In Module
      -----  --------------------------------   ------------------------
     00364000  ___func_bg_venus_dropshaft_0_til   bg_venus_dropshaft_0_tilemap
     00364000  _bg_venus_dropshaft_0_tilemap      bg_venus_dropshaft_0_tilemap
     00364960  ___func_bg_venus_dropshaft_1_til   bg_venus_dropshaft_1_tilemap
     00364960  _bg_venus_dropshaft_1_tilemap_at   bg_venus_dropshaft_1_tilemap
     003652C0  ___func_bg_venus_dropshaft_1_til   bg_venus_dropshaft_1_tilemap
     003652C0  _bg_venus_dropshaft_1_tilemap      bg_venus_dropshaft_1_tilemap
     00365C20  ___func_bg_venus_evidence_room_t   bg_venus_evidence_room_tilem
     00365C20  _bg_venus_evidence_room_tilemap    bg_venus_evidence_room_tilem
     00366260  ___func_bg_warning_tilemap         bg_warning_tilemap
     00366260  _bg_warning_tilemap                bg_warning_tilemap
     003663C8  ___func_scene_21_projectiles       scene_21_projectiles
     003663C8  _scene_21_projectiles              scene_21_projectiles
     003663DF  ___func_scene_47_collisions        scene_47_collisions
     003663DF  _scene_47_collisions               scene_47_collisions
     00366D3F  ___func_scene_49_collisions        scene_49_collisions
     00366D3F  _scene_49_collisions               scene_49_collisions
     0036769F  ___func_scene_50_collisions        scene_50_collisions
     0036769F  _scene_50_collisions               scene_50_collisions
ASxxxx Linker V03.00/V05.40 + sdld,  page 201.
Hexadecimal  [32-Bits]

Area                                    Addr        Size        Decimal Bytes (Attributes)
--------------------------------        ----        ----        ------- ----- ------------
_CODE_4                             00044000    00003FFF =       16383. bytes (REL,CON)

      Value  Global                              Global Defined In Module
      -----  --------------------------------   ------------------------
     00044000  ___func_bg_venus_landing_site_ti   bg_venus_landing_site_tilese
     00044000  _bg_venus_landing_site_tileset     bg_venus_landing_site_tilese
     000447A2  ___func_scene_42_collisions        scene_42_collisions
     000447A2  _scene_42_collisions               scene_42_collisions
     00047FE2  GBVM$script_12$35c7ec41_9a1e_43e   script_12
     00047FE2  _script_12                         script_12
     00047FEB  GBVM$script_12$34789f26_b175_427   script_12
     00047FF3  GBVM$script_12$9ab20e50_8b12_421   script_12
     00047FF8  GBVM$script_12$cc62690a_2039_481   script_12
     00047FFD  GBVM_END$script_12$35c7ec41_9a1e   script_12

ASxxxx Linker V03.00/V05.40 + sdld,  page 202.
Hexadecimal  [32-Bits]

Area                                    Addr        Size        Decimal Bytes (Attributes)
--------------------------------        ----        ----        ------- ----- ------------
_CODE_6                             00064000    00003FFE =       16382. bytes (REL,CON)

      Value  Global                              Global Defined In Module
      -----  --------------------------------   ------------------------
     00064000  ___func_bg_warning_tileset         bg_warning_tileset
     00064000  _bg_warning_tileset                bg_warning_tileset
     00065682  ___func_scene_13_collisions        scene_13_collisions
     00065682  _scene_13_collisions               scene_13_collisions
     00067F22  _scene_4_init                      scene_4_init
     00067F25  GBVM$scene_4_init$52d3cfbd_1d17_   scene_4_init
     00067F2F  GBVM$scene_4_init$autofade$d7542   scene_4_init
     00067F3A  GBVM$scene_4_init$2661178c_adc3_   scene_4_init
     00067F81  GBVM$scene_4_init$75da3a40_676e_   scene_4_init
     00067F8A  GBVM$scene_4_init$7ad2815d_187e_   scene_4_init
     00067F8E  GBVM$scene_4_init$44aa04e1_ac37_   scene_4_init
     00067FC3  GBVM$scene_4_init$209db4f5_5417_   scene_4_init
     00067FC7  GBVM$scene_4_init$5994feac_f808_   scene_4_init
     00067FCB  GBVM$scene_4_init$ce9ddc6b_8ae4_   scene_4_init
     00067FFD  GBVM_END$scene_4_init$75da3a40_6   scene_4_init
ASxxxx Linker V03.00/V05.40 + sdld,  page 203.
Hexadecimal  [32-Bits]

Area                                    Addr        Size        Decimal Bytes (Attributes)
--------------------------------        ----        ----        ------- ----- ------------
_CODE_37                            00254000    00003FFE =       16382. bytes (REL,CON)

      Value  Global                              Global Defined In Module
      -----  --------------------------------   ------------------------
     00255C17  _song_alchemist_energy_0_Data      song_alchemist_energy_0_Data
     0025791B  _song_lunabound_Data               song_lunabound_Data
     00257930  _scene_45_init                     scene_45_init
     00257933  GBVM$scene_45_init$92a62740_f97f   scene_45_init
     0025793B  GBVM$scene_45_init$7113ea87_012e   scene_45_init
     0025793B  GBVM_END$scene_45_init$92a62740_   scene_45_init
     00257943  GBVM$scene_45_init$autofade$efc2   scene_45_init
     00257943  GBVM_END$scene_45_init$7113ea87_   scene_45_init
     0025794E  GBVM$scene_45_init$81a5ae19_30e6   scene_45_init
     0025794E  GBVM$scene_45_init$bd57f8f6_37f1   scene_45_init
     00257953  GBVM$scene_45_init$884587cd_38be   scene_45_init
     0025795A  GBVM$scene_45_init$1be2f68a_d212   scene_45_init
     0025795E  GBVM$scene_45_init$66c72628_20e7   scene_45_init
     00257972  GBVM$scene_45_init$6b464ca7_cc0d   scene_45_init
     0025797A  GBVM_END$scene_45_init$6b464ca7_   scene_45_init
     0025797A  GBVM_END$scene_45_init$bd57f8f6_   scene_45_init
     0025797B  GBVM$script_3$e432847a_2979_48de   script_3
     0025797B  _script_3                          script_3
     002579C3  GBVM$script_3$8d9f49d6_28f3_4915   script_3
     002579FC  GBVM$script_3$a316f9f2_5a8b_435f   script_3
     00257A0E  GBVM$script_3$15f72bc4_cccd_4f97   script_3
     00257A1A  GBVM$script_3$73e5c50a_6faf_419b   script_3
     00257A28  GBVM$script_3$96dbef84_dbb3_4e06   script_3
     00257A59  GBVM_END$script_3$a316f9f2_5a8b_   script_3
     00257A5C  GBVM$script_3$a9283ca4_88ef_4c41   script_3
     00257A6E  GBVM$script_3$337fe998_1a31_4f4b   script_3
     00257A7A  GBVM$script_3$5110e8eb_66b9_4cec   script_3
     00257A88  GBVM$script_3$dea69a00_1faa_49f1   script_3
     00257AB9  GBVM_END$script_3$a9283ca4_88ef_   script_3
     00257ABC  GBVM$script_3$6b7887de_1da4_4c93   script_3
     00257ACE  GBVM$script_3$09bada5d_fc1d_4a49   script_3
     00257ADA  GBVM$script_3$a09cb5f3_2933_49f6   script_3
     00257AE8  GBVM$script_3$872ff167_7d91_4ecb   script_3
     00257B19  GBVM_END$script_3$6b7887de_1da4_   script_3
     00257B1C  GBVM$script_3$2c95c715_b066_40e0   script_3
     00257B2E  GBVM$script_3$2685fd11_953b_4f69   script_3
     00257B3A  GBVM$script_3$40803c77_2f84_44dd   script_3
     00257B48  GBVM$script_3$9bbfcdff_a491_4285   script_3
     00257B79  GBVM_END$script_3$2c95c715_b066_   script_3
     00257B7C  GBVM$script_3$dbfa907a_ce29_46e0   script_3
     00257B8E  GBVM$script_3$234f38be_5406_415a   script_3
     00257B9A  GBVM$script_3$e156bb21_98c6_49ef   script_3
     00257BA8  GBVM$script_3$3e5dc818_1e13_4c65   script_3
     00257BD9  GBVM_END$script_3$dbfa907a_ce29_   script_3
     00257BDC  GBVM$script_3$98202729_0b24_4a63   script_3
     00257BEE  GBVM$script_3$be061df6_bc9b_4a19   script_3
     00257BFA  GBVM$script_3$2ca6d389_888c_436c   script_3
     00257C08  GBVM$script_3$e87aa45e_2553_4b8c   script_3
     00257C39  GBVM_END$script_3$98202729_0b24_   script_3
     00257C3C  GBVM$script_3$e481a987_ef75_4a32   script_3
ASxxxx Linker V03.00/V05.40 + sdld,  page 204.
Hexadecimal  [32-Bits]

Area                                    Addr        Size        Decimal Bytes (Attributes)
--------------------------------        ----        ----        ------- ----- ------------
_CODE_37                            00254000    00003FFE =       16382. bytes (REL,CON)

      Value  Global                              Global Defined In Module
      -----  --------------------------------   ------------------------
     00257C4E  GBVM$script_3$d7771ca3_5be0_41e5   script_3
     00257C5A  GBVM$script_3$4a9dd325_79ec_4314   script_3
     00257C68  GBVM$script_3$02a98ebe_f19c_4245   script_3
     00257C99  GBVM_END$script_3$e481a987_ef75_   script_3
     00257C9C  GBVM$script_3$0f5d02d9_1175_4843   script_3
     00257CAE  GBVM$script_3$08516917_164f_4113   script_3
     00257CBA  GBVM$script_3$e2bbdc57_0d1e_4658   script_3
     00257CC8  GBVM$script_3$bd4ba952_f8e8_4c21   script_3
     00257CF9  GBVM_END$script_3$0f5d02d9_1175_   script_3
     00257CFC  GBVM$script_3$fd05ed0d_f162_4169   script_3
     00257D0E  GBVM$script_3$e2e88dc7_b350_4cc2   script_3
     00257D1A  GBVM$script_3$5619e118_e462_4b8b   script_3
     00257D28  GBVM$script_3$2aeefd49_d953_4c17   script_3
     00257D59  GBVM_END$script_3$fd05ed0d_f162_   script_3
     00257D5C  GBVM$script_3$3a7a7bbd_2112_4a84   script_3
     00257D6E  GBVM$script_3$49b5896d_b866_47d0   script_3
     00257D7A  GBVM$script_3$de9db726_7d73_435a   script_3
     00257D88  GBVM$script_3$6c73c1ab_8ad7_47bd   script_3
     00257DB9  GBVM_END$script_3$3a7a7bbd_2112_   script_3
     00257DBC  GBVM$script_3$5bc1d743_c043_4920   script_3
     00257DCE  GBVM$script_3$ba1ad159_006d_487c   script_3
     00257DDA  GBVM$script_3$06de2907_0845_4e1c   script_3
     00257DE8  GBVM$script_3$e5bcf381_81c3_407c   script_3
     00257E19  GBVM_END$script_3$5bc1d743_c043_   script_3
     00257E1C  GBVM$script_3$8a95aafb_9eca_48a0   script_3
     00257E2E  GBVM$script_3$473d4507_09a2_416e   script_3
     00257E3A  GBVM$script_3$907cea48_c294_43f0   script_3
     00257E48  GBVM$script_3$16ba4815_a977_4360   script_3
     00257E79  GBVM_END$script_3$8a95aafb_9eca_   script_3
     00257E7C  GBVM$script_3$8820936a_4964_4f54   script_3
     00257E8E  GBVM$script_3$da38170c_7850_4b36   script_3
     00257E9A  GBVM$script_3$b2756e2d_2d33_43bc   script_3
     00257EA8  GBVM$script_3$d719b87c_276c_4279   script_3
     00257ED9  GBVM_END$script_3$8820936a_4964_   script_3
     00257EDC  GBVM$script_3$0cc59e30_d309_4aed   script_3
     00257EEE  GBVM$script_3$a127edb5_7222_466a   script_3
     00257EFA  GBVM$script_3$c4fe302a_8444_470f   script_3
     00257F08  GBVM$script_3$a1a2f9b6_b8d3_449f   script_3
     00257F39  GBVM_END$script_3$0cc59e30_d309_   script_3
     00257F3C  GBVM$script_3$2acf81d8_9072_453c   script_3
     00257F4E  GBVM$script_3$7f3e8296_8693_44a5   script_3
     00257F5A  GBVM$script_3$3fd1d571_b461_42f0   script_3
     00257F68  GBVM$script_3$84c4b924_5488_4ed5   script_3
     00257F99  GBVM_END$script_3$2acf81d8_9072_   script_3
     00257F9C  GBVM$script_3$89273c25_5f2e_4a04   script_3
     00257FAE  GBVM$script_3$8ae0657c_3bb8_45ed   script_3
     00257FBA  GBVM$script_3$37ac53f0_727f_4266   script_3
     00257FC8  GBVM$script_3$1b81a4f5_b535_406f   script_3
     00257FF9  GBVM_END$script_3$89273c25_5f2e_   script_3
     00257FFC  GBVM_END$script_3$e432847a_2979_   script_3

ASxxxx Linker V03.00/V05.40 + sdld,  page 205.
Hexadecimal  [32-Bits]

Area                                    Addr        Size        Decimal Bytes (Attributes)
--------------------------------        ----        ----        ------- ----- ------------
_CODE_46                            002E4000    00004000 =       16384. bytes (REL,CON)

      Value  Global                              Global Defined In Module
      -----  --------------------------------   ------------------------
     002E4000  ___func_scene_54_collisions        scene_54_collisions
     002E4000  _scene_54_collisions               scene_54_collisions
     002E52C0  ___func_scene_55_collisions        scene_55_collisions
     002E52C0  _scene_55_collisions               scene_55_collisions
     002E6580  _script_11                         script_11
     002E6582  GBVM$script_11$ec26213a_33ce_43c   script_11
     002E6585  GBVM$script_11$d0e6f4d4_4a32_495   script_11
     002E6589  GBVM$script_11$f718c3a9_2a7e_459   script_11
     002E65F7  GBVM$script_11$20ac33ff_d7fe_462   script_11
     002E660F  GBVM$script_11$a7cac1bd_cff4_4b8   script_11
     002E6621  GBVM$script_11$0728c166_94d6_4c7   script_11
     002E6633  GBVM$script_11$c8074562_9c61_48c   script_11
     002E6645  GBVM$script_11$cf11ae46_5282_4bb   script_11
     002E6657  GBVM$script_11$e848bdea_d828_4e6   script_11
     002E666C  GBVM$script_11$46befe59_963d_40f   script_11
     002E66F0  GBVM$script_11$db43fd8f_232d_426   script_11
     002E6710  GBVM$script_11$2922179f_8243_4c3   script_11
     002E6745  GBVM$script_11$d9d5ec36_9f82_48b   script_11
     002E677A  GBVM$script_11$35902759_fd4b_4bf   script_11
     002E67AF  GBVM$script_11$ba489704_fde5_49c   script_11
     002E67E4  GBVM$script_11$d4b0e6f4_5731_4ec   script_11
     002E6819  GBVM$script_11$776c9eac_718b_46d   script_11
     002E6861  GBVM$script_11$79be28d1_d0fe_457   script_11
     002E6896  GBVM_END$script_11$db43fd8f_232d   script_11
     002E6896  GBVM_END$script_11$e848bdea_d828   script_11
     002E6899  GBVM$script_11$b843a8e3_de11_40e   script_11
     002E690D  GBVM$script_11$f1143c0c_4f50_4d5   script_11
     002E6929  GBVM$script_11$b3074941_7794_440   script_11
     002E695E  GBVM$script_11$6575aa79_03f2_42b   script_11
     002E6993  GBVM$script_11$c8edd12c_b5e3_435   script_11
     002E69C8  GBVM$script_11$2012a567_c818_4d8   script_11
     002E69FD  GBVM$script_11$4dd1f847_3e96_4e5   script_11
     002E6A32  GBVM_END$script_11$cf11ae46_5282   script_11
     002E6A32  GBVM_END$script_11$f1143c0c_4f50   script_11
     002E6A35  GBVM$script_11$9d7ef191_270a_436   script_11
     002E6A96  GBVM$script_11$3917bd3a_407c_452   script_11
     002E6AAE  GBVM$script_11$12e46a58_62fd_405   script_11
     002E6AE3  GBVM$script_11$abfd0060_e76e_4eb   script_11
     002E6B18  GBVM$script_11$1a48ae5f_d50b_465   script_11
     002E6B4D  GBVM$script_11$8eaa7b06_7535_405   script_11
     002E6B82  GBVM_END$script_11$3917bd3a_407c   script_11
     002E6B82  GBVM_END$script_11$c8074562_9c61   script_11
     002E6B85  GBVM$script_11$3d47fdcf_7c83_4aa   script_11
     002E6BD6  GBVM$script_11$52958085_bbdd_46d   script_11
     002E6BEA  GBVM$script_11$8825724d_db06_44d   script_11
     002E6C1F  GBVM$script_11$9a7d6f32_f977_45f   script_11
     002E6C54  GBVM$script_11$beb3be87_f23a_462   script_11
     002E6C89  GBVM_END$script_11$0728c166_94d6   script_11
     002E6C89  GBVM_END$script_11$52958085_bbdd   script_11
     002E6C8C  GBVM$script_11$87cd8387_af10_434   script_11
ASxxxx Linker V03.00/V05.40 + sdld,  page 206.
Hexadecimal  [32-Bits]

Area                                    Addr        Size        Decimal Bytes (Attributes)
--------------------------------        ----        ----        ------- ----- ------------
_CODE_46                            002E4000    00004000 =       16384. bytes (REL,CON)

      Value  Global                              Global Defined In Module
      -----  --------------------------------   ------------------------
     002E6CBE  GBVM_END$script_11$a7cac1bd_cff4   script_11
     002E6CC1  GBVM$script_11$b683d859_6491_418   script_11
     002E6CC5  GBVM$script_11$4247664a_a288_466   script_11
     002E6CFA  GBVM$script_11$0b6f0b73_280d_44b   script_11
     002E6CFE  GBVM$script_11$a9960f99_6214_450   script_11
     002E6D33  GBVM$script_11$91dd3aff_4b7c_481   script_11
     002E6D34  GBVM$script_11$72233b14_b15c_474   script_11
     002E6D66  GBVM$script_11$84c9578a_403b_479   script_11
     002E6D98  GBVM$script_11$0bd72537_ef24_403   script_11
     002E6D9C  GBVM_END$script_11$20ac33ff_d7fe   script_11
     002E6DA0  _script_4                          script_4
     002E6DA2  GBVM$script_4$d52fc7b0_e708_4cd0   script_4
     002E6DAA  GBVM$script_4$0b7ab9c0_81dc_4216   script_4
     002E6DB5  GBVM$script_4$5b0c1d39_4913_483d   script_4
     002E6DBE  GBVM$script_4$642ba3de_32eb_4d24   script_4
     002E6DC7  GBVM$script_4$44b8c0ed_889d_440c   script_4
     002E6DD3  GBVM$script_4$8d65dabe_acfd_4639   script_4
     002E6DDE  GBVM$script_4$47737594_6f08_4306   script_4
     002E6DE7  GBVM$script_4$b5d89750_1d34_42a0   script_4
     002E6DF0  GBVM$script_4$d2832696_219f_489e   script_4
     002E6DFC  GBVM$script_4$7df2146d_4715_4f89   script_4
     002E6E08  GBVM$script_4$523b0dd1_e0e4_4c50   script_4
     002E6E13  GBVM$script_4$a8724ba4_35e0_4448   script_4
     002E6E13  GBVM_END$script_4$5b0c1d39_4913_   script_4
     002E6E13  GBVM_END$script_4$7df2146d_4715_   script_4
     002E6E1C  GBVM$script_4$3992f813_34c6_4f88   script_4
     002E6E25  GBVM$script_4$fae90f34_5115_4a14   script_4
     002E6E31  GBVM$script_4$1716b419_ee59_4219   script_4
     002E6E3C  GBVM$script_4$eee5cf70_52c3_4397   script_4
     002E6E50  GBVM$script_4$792032b3_391d_4b9b   script_4
     002E6E59  GBVM$script_4$c7b0215f_0bab_492e   script_4
     002E6E62  GBVM$script_4$39cf87f7_7ff7_453d   script_4
     002E6E77  GBVM$script_4$042de0b8_87c8_4dda   script_4
     002E6E82  GBVM$script_4$85e18ccd_db1f_443f   script_4
     002E6E82  GBVM_END$script_4$39cf87f7_7ff7_   script_4
     002E6E91  GBVM$script_4$5fb731df_a590_47ec   script_4
     002E6E9A  GBVM$script_4$5f7d230d_a691_41e6   script_4
     002E6EA3  GBVM$script_4$e3f02028_71e6_4971   script_4
     002E6EB8  GBVM$script_4$61f392b9_bd57_4765   script_4
     002E6EC3  GBVM$script_4$5b0fb4c4_1eec_4a10   script_4
     002E6EC3  GBVM_END$script_4$e3f02028_71e6_   script_4
     002E6ED2  GBVM$script_4$41859f36_5adf_4980   script_4
     002E6EDB  GBVM$script_4$68da1301_8de9_4813   script_4
     002E6EE4  GBVM$script_4$1fdcb5f2_ab32_4ef1   script_4
     002E6EF3  GBVM$script_4$3ccfda2a_c5a5_44c8   script_4
     002E6EF3  GBVM_END$script_4$eee5cf70_52c3_   script_4
     002E6EFF  GBVM$script_4$ba513672_8e1e_4a47   script_4
     002E6F0A  GBVM$script_4$9fcd0eb4_729a_4ec2   script_4
     002E6F0A  GBVM_END$script_4$3ccfda2a_c5a5_   script_4
     002E6F0A  GBVM_END$script_4$a8724ba4_35e0_   script_4
     002E6F13  GBVM$script_4$f7466622_ee11_430f   script_4
ASxxxx Linker V03.00/V05.40 + sdld,  page 207.
Hexadecimal  [32-Bits]

Area                                    Addr        Size        Decimal Bytes (Attributes)
--------------------------------        ----        ----        ------- ----- ------------
_CODE_46                            002E4000    00004000 =       16384. bytes (REL,CON)

      Value  Global                              Global Defined In Module
      -----  --------------------------------   ------------------------
     002E6F1C  GBVM$script_4$b1bdc298_9a4f_4049   script_4
     002E6F28  GBVM$script_4$5d19d8e8_708e_4862   script_4
     002E6F33  GBVM$script_4$66df7572_9063_4fe1   script_4
     002E6F47  GBVM$script_4$21c2546f_352f_497e   script_4
     002E6F50  GBVM$script_4$29f75467_7630_4eaf   script_4
     002E6F59  GBVM$script_4$eedf3b9c_0ba6_4676   script_4
     002E6F6E  GBVM$script_4$46f28b9b_7dbd_426a   script_4
     002E6F79  GBVM$script_4$0f892524_0b9a_4551   script_4
     002E6F79  GBVM_END$script_4$eedf3b9c_0ba6_   script_4
     002E6F88  GBVM$script_4$1c8fafbb_7bab_4df5   script_4
     002E6F91  GBVM$script_4$4b7f6cb2_fe87_45fa   script_4
     002E6F9A  GBVM$script_4$038ffbcc_fe74_4933   script_4
     002E6FA9  GBVM$script_4$7ca388a7_f7ab_4d0e   script_4
     002E6FB2  GBVM$script_4$72f1a86f_5e09_4c3c   script_4
     002E6FBB  GBVM$script_4$4b1d3a94_ff57_433a   script_4
     002E6FD0  GBVM$script_4$5d0c4d2e_ea3d_4b6a   script_4
     002E6FDB  GBVM$script_4$4984b25e_bad5_4ae3   script_4
     002E6FDB  GBVM_END$script_4$4b1d3a94_ff57_   script_4
     002E6FEA  GBVM$script_4$06992baf_d552_4582   script_4
     002E6FEA  GBVM_END$script_4$66df7572_9063_   script_4
     002E6FF6  GBVM$script_4$d8c540ff_f9bb_47b4   script_4
     002E7001  GBVM$script_4$1ac621a8_2f90_478c   script_4
     002E7001  GBVM_END$script_4$06992baf_d552_   script_4
     002E7001  GBVM_END$script_4$9fcd0eb4_729a_   script_4
     002E700A  GBVM$script_4$abce7acb_1554_4045   script_4
     002E7013  GBVM$script_4$0ea5bfdb_427f_4680   script_4
     002E701F  GBVM$script_4$7c5ca30c_f754_4d98   script_4
     002E702A  GBVM$script_4$46897bfd_b21b_4f70   script_4
     002E703E  GBVM$script_4$9e91672c_5f35_43ea   script_4
     002E7047  GBVM$script_4$9ceb0cb2_953c_4689   script_4
     002E7050  GBVM$script_4$af2a4a9d_6418_401a   script_4
     002E705F  GBVM$script_4$a9e0155d_a65c_4725   script_4
     002E7068  GBVM$script_4$a67edea4_665e_4440   script_4
     002E7071  GBVM$script_4$a8d689e8_ca47_4979   script_4
     002E7086  GBVM$script_4$505c5e86_cae3_44e3   script_4
     002E7091  GBVM$script_4$acfa848d_b354_4580   script_4
     002E7091  GBVM_END$script_4$a8d689e8_ca47_   script_4
     002E70A0  GBVM$script_4$ecbed649_2f92_4ca7   script_4
     002E70A9  GBVM$script_4$fab6d03a_f8f8_46a3   script_4
     002E70B2  GBVM$script_4$5397c1b3_8c71_4eb2   script_4
     002E70C7  GBVM$script_4$a80deedc_0b23_4a73   script_4
     002E70D2  GBVM$script_4$30839377_6ce7_4f2f   script_4
     002E70D2  GBVM_END$script_4$5397c1b3_8c71_   script_4
     002E70E1  GBVM$script_4$e11bc4fa_fdbd_4c98   script_4
     002E70E1  GBVM_END$script_4$46897bfd_b21b_   script_4
     002E70ED  GBVM$script_4$cdbd2743_898d_4519   script_4
     002E70F8  GBVM$script_4$38cfa40d_aeb5_4b39   script_4
     002E70F8  GBVM$script_4$d3b1213a_50da_48fd   script_4
     002E70F8  GBVM_END$script_4$1ac621a8_2f90_   script_4
     002E70F8  GBVM_END$script_4$e11bc4fa_fdbd_   script_4
     002E711C  GBVM$script_4$7859ef74_f8b8_4b71   script_4
ASxxxx Linker V03.00/V05.40 + sdld,  page 208.
Hexadecimal  [32-Bits]

Area                                    Addr        Size        Decimal Bytes (Attributes)
--------------------------------        ----        ----        ------- ----- ------------
_CODE_46                            002E4000    00004000 =       16384. bytes (REL,CON)

      Value  Global                              Global Defined In Module
      -----  --------------------------------   ------------------------
     002E7140  GBVM$script_4$8ff74924_f676_4588   script_4
     002E7164  GBVM$script_4$7dec4251_b367_4ebe   script_4
     002E7188  GBVM$script_4$6922054f_bca2_4160   script_4
     002E7188  GBVM_END$script_4$d3b1213a_50da_   script_4
     002E719A  GBVM$script_4$9de9777c_1f5c_4e10   script_4
     002E71A6  GBVM$script_4$8f97711c_e758_4816   script_4
     002E71B5  GBVM$script_4$75008d85_2e63_4867   script_4
     002E71BA  GBVM$script_4$6e0a4dbc_5efe_4000   script_4
     002E71BF  GBVM$script_4$b85f6b30_3d67_4d44   script_4
     002E71BF  GBVM_END$script_4$6922054f_bca2_   script_4
     002E71E8  GBVM$script_4$46ff4f2f_09b9_49c0   script_4
     002E720C  GBVM$script_4$4fb45874_ff63_4ede   script_4
     002E7230  GBVM$script_4$0b179d0e_1e9e_4e13   script_4
     002E7254  GBVM$script_4$9434b28f_8141_4f0b   script_4
     002E727B  GBVM$script_4$0657e47e_2f82_43c8   script_4
     002E727B  GBVM$script_4$6cfd0970_2ace_4540   script_4
     002E729F  GBVM$script_4$3c5a0d96_0549_4942   script_4
     002E72C3  GBVM$script_4$6b42652f_4749_4227   script_4
     002E72E7  GBVM$script_4$f845f8c3_d186_4d79   script_4
     002E730B  GBVM_END$script_4$0657e47e_2f82_   script_4
     002E730E  GBVM$script_4$600f606b_5a26_4155   script_4
     002E730E  GBVM$script_4$a248461f_3af3_4ef4   script_4
     002E7332  GBVM$script_4$fea26c17_9d4c_4ae5   script_4
     002E7356  GBVM$script_4$8a4fb296_e561_406a   script_4
     002E737A  GBVM$script_4$f78da972_afea_4427   script_4
     002E739E  GBVM_END$script_4$a248461f_3af3_   script_4
     002E73A1  GBVM$script_4$61f8775a_8f85_4633   script_4
     002E73A1  GBVM$script_4$7938a8fa_0259_469f   script_4
     002E73C5  GBVM$script_4$92674351_ec71_4883   script_4
     002E73E9  GBVM$script_4$c7768943_8ccf_46b0   script_4
     002E740D  GBVM$script_4$c7c976bf_a8d8_4e1d   script_4
     002E7431  GBVM_END$script_4$7938a8fa_0259_   script_4
     002E7434  GBVM$script_4$9c27970f_3d29_42d8   script_4
     002E7434  GBVM$script_4$a8800ef2_dac9_4332   script_4
     002E7458  GBVM$script_4$8ed94012_b422_4438   script_4
     002E747C  GBVM$script_4$03cbfa77_2ff1_43ab   script_4
     002E74A0  GBVM$script_4$757f3fe1_ecb5_4ced   script_4
     002E74C4  GBVM_END$script_4$a8800ef2_dac9_   script_4
     002E74C7  GBVM$script_4$276d41f1_a9ed_4dbc   script_4
     002E74C7  GBVM$script_4$7941f002_d00f_4dc6   script_4
     002E74EB  GBVM$script_4$4db7a94a_612d_4817   script_4
     002E750F  GBVM$script_4$045ef79c_a7ff_4f70   script_4
     002E7533  GBVM$script_4$a29b2b2b_8d10_4e02   script_4
     002E7557  GBVM_END$script_4$276d41f1_a9ed_   script_4
     002E755A  GBVM$script_4$0d09fb9e_2476_4083   script_4
     002E755A  GBVM$script_4$32e122fc_cd2e_4719   script_4
     002E757E  GBVM$script_4$f2da8cfe_c7e8_4302   script_4
     002E75A2  GBVM$script_4$06ee4c79_737a_4997   script_4
     002E75C6  GBVM$script_4$b623edfb_6eb5_4b24   script_4
     002E75EA  GBVM_END$script_4$0d09fb9e_2476_   script_4
     002E75ED  GBVM$script_4$8b86f584_c7b3_4bed   script_4
ASxxxx Linker V03.00/V05.40 + sdld,  page 209.
Hexadecimal  [32-Bits]

Area                                    Addr        Size        Decimal Bytes (Attributes)
--------------------------------        ----        ----        ------- ----- ------------
_CODE_46                            002E4000    00004000 =       16384. bytes (REL,CON)

      Value  Global                              Global Defined In Module
      -----  --------------------------------   ------------------------
     002E75ED  GBVM$script_4$f19e227a_52e5_4342   script_4
     002E7611  GBVM$script_4$2a61d7e3_abd2_4766   script_4
     002E7635  GBVM$script_4$e972f1e8_850c_407e   script_4
     002E7659  GBVM$script_4$5efbbac4_f69f_493f   script_4
     002E767D  GBVM_END$script_4$f19e227a_52e5_   script_4
     002E7680  GBVM$script_4$69a37201_caeb_47ea   script_4
     002E7680  GBVM$script_4$da3e0f8c_e01c_4770   script_4
     002E76A4  GBVM$script_4$3f703bb5_4e8b_42ce   script_4
     002E76C8  GBVM$script_4$8d4c2921_a83d_4787   script_4
     002E76EC  GBVM$script_4$041cdd18_fed9_4983   script_4
     002E7710  GBVM_END$script_4$da3e0f8c_e01c_   script_4
     002E7713  GBVM$script_4$df405958_94af_467b   script_4
     002E7713  GBVM$script_4$f915e432_88e1_46d6   script_4
     002E7737  GBVM$script_4$9b17bc36_0fdb_451a   script_4
     002E775B  GBVM$script_4$11e1bb9f_ec8f_4d18   script_4
     002E777F  GBVM$script_4$d42ab61d_c447_4a27   script_4
     002E77A3  GBVM_END$script_4$f915e432_88e1_   script_4
     002E77A6  GBVM$script_4$5ff7042f_02c7_412e   script_4
     002E77A6  GBVM_END$script_4$b85f6b30_3d67_   script_4
     002E77CF  GBVM$script_4$1337ac19_2e4d_4e1c   script_4
     002E77F3  GBVM$script_4$bc7fb181_a24b_4207   script_4
     002E7817  GBVM$script_4$45ac226d_bcb0_4dd7   script_4
     002E783B  GBVM$script_4$5f3ad2d9_c6f1_42ef   script_4
     002E7862  GBVM$script_4$5d60f05e_d5e5_4d3c   script_4
     002E7862  GBVM$script_4$c36018a1_2ee2_4da1   script_4
     002E7886  GBVM$script_4$94fdf5a0_22bf_4555   script_4
     002E78AA  GBVM$script_4$702b83e4_a6b6_4abb   script_4
     002E78CE  GBVM$script_4$3eabd73b_4f4a_4888   script_4
     002E78F2  GBVM_END$script_4$c36018a1_2ee2_   script_4
     002E78F5  GBVM$script_4$f0697436_f669_46ee   script_4
     002E78F5  GBVM$script_4$f515db0b_65be_4b62   script_4
     002E7919  GBVM$script_4$e9a308f7_6bd5_4b3c   script_4
     002E793D  GBVM$script_4$4289d09a_1d1a_4b52   script_4
     002E7961  GBVM$script_4$4133ae37_81e0_4200   script_4
     002E7985  GBVM_END$script_4$f0697436_f669_   script_4
     002E7988  GBVM$script_4$16caee91_9264_4b92   script_4
     002E7988  GBVM$script_4$2ba045b9_13b0_4b3e   script_4
     002E79AC  GBVM$script_4$e9150c3f_01ae_4084   script_4
     002E79D0  GBVM$script_4$3d0482c3_8099_4170   script_4
     002E79F4  GBVM$script_4$3a513d90_a731_4c58   script_4
     002E7A18  GBVM_END$script_4$2ba045b9_13b0_   script_4
     002E7A1B  GBVM$script_4$6dab0f67_fbca_45db   script_4
     002E7A1B  GBVM$script_4$ab4b3343_d45f_4f46   script_4
     002E7A3F  GBVM$script_4$d2829a33_20eb_4921   script_4
     002E7A63  GBVM$script_4$8bff37ae_5d19_46c4   script_4
     002E7A87  GBVM$script_4$ba14df90_6127_4df3   script_4
     002E7AAB  GBVM_END$script_4$ab4b3343_d45f_   script_4
     002E7AAE  GBVM$script_4$9b897059_9560_4847   script_4
     002E7AAE  GBVM$script_4$f160c941_178e_4a9e   script_4
     002E7AD2  GBVM$script_4$4a3ea85b_ff19_4835   script_4
     002E7AF6  GBVM$script_4$29494597_4453_4c26   script_4
ASxxxx Linker V03.00/V05.40 + sdld,  page 210.
Hexadecimal  [32-Bits]

Area                                    Addr        Size        Decimal Bytes (Attributes)
--------------------------------        ----        ----        ------- ----- ------------
_CODE_46                            002E4000    00004000 =       16384. bytes (REL,CON)

      Value  Global                              Global Defined In Module
      -----  --------------------------------   ------------------------
     002E7B1A  GBVM$script_4$3c02fea8_0c81_431f   script_4
     002E7B3E  GBVM_END$script_4$f160c941_178e_   script_4
     002E7B41  GBVM$script_4$babbc17d_b821_45ca   script_4
     002E7B41  GBVM$script_4$fc23c175_072f_4e4b   script_4
     002E7B65  GBVM$script_4$fd028ab2_d313_420f   script_4
     002E7B89  GBVM$script_4$282cc7a3_effe_4873   script_4
     002E7BAD  GBVM$script_4$64e05816_1276_4030   script_4
     002E7BD1  GBVM_END$script_4$babbc17d_b821_   script_4
     002E7BD4  GBVM$script_4$ceeb9e72_dc86_4eb2   script_4
     002E7BD4  GBVM$script_4$e48eaf3a_25cc_42e2   script_4
     002E7BF8  GBVM$script_4$bfd23d26_99db_47a2   script_4
     002E7C1C  GBVM$script_4$3decd457_ac16_47ea   script_4
     002E7C40  GBVM$script_4$1454f25d_64cc_4d36   script_4
     002E7C64  GBVM_END$script_4$ceeb9e72_dc86_   script_4
     002E7C67  GBVM$script_4$6379f4b7_55f8_4167   script_4
     002E7C67  GBVM$script_4$8c8d9f3b_38f8_4e0a   script_4
     002E7C8B  GBVM$script_4$aafe68f1_c212_48e7   script_4
     002E7CAF  GBVM$script_4$8d37a588_f499_4b27   script_4
     002E7CD3  GBVM$script_4$79184150_ba89_42d0   script_4
     002E7CF7  GBVM_END$script_4$6379f4b7_55f8_   script_4
     002E7CFA  GBVM$script_4$24d20b79_f056_413b   script_4
     002E7CFA  GBVM$script_4$df8e671e_7dce_4979   script_4
     002E7D1E  GBVM$script_4$a14b07f9_2aa6_41cb   script_4
     002E7D42  GBVM$script_4$42ca799a_7078_42ee   script_4
     002E7D66  GBVM$script_4$9514d0e2_5336_4094   script_4
     002E7D8A  GBVM_END$script_4$df8e671e_7dce_   script_4
     002E7D8D  GBVM$script_4$734633e2_f02f_4354   script_4
     002E7D8D  GBVM_END$script_4$5ff7042f_02c7_   script_4
     002E7DA1  GBVM$script_4$838cd7a0_0b40_49d0   script_4
     002E7DA1  GBVM$script_4$f6f426c3_d9f3_4d7a   script_4
     002E7DC5  GBVM$script_4$8da44086_1c3d_4633   script_4
     002E7DE9  GBVM$script_4$ff4a622c_7dcf_4e40   script_4
     002E7E0D  GBVM$script_4$91d320ad_3de5_4899   script_4
     002E7E31  GBVM_END$script_4$f6f426c3_d9f3_   script_4
     002E7E34  GBVM$script_4$7614db9e_b825_41de   script_4
     002E7E34  GBVM$script_4$7eaefbfa_5e38_4b93   script_4
     002E7E58  GBVM$script_4$cc99479c_ce9d_4f05   script_4
     002E7E7C  GBVM$script_4$d8237fbd_af53_46d9   script_4
     002E7EA0  GBVM$script_4$0eea0637_8620_4960   script_4
     002E7EC4  GBVM_END$script_4$7eaefbfa_5e38_   script_4
     002E7EC7  GBVM$script_4$adf226ea_ead7_45fd   script_4
     002E7EC7  GBVM$script_4$e3b11a99_14de_4bc3   script_4
     002E7EEB  GBVM$script_4$efcd75ae_8f22_4d9e   script_4
     002E7F0F  GBVM$script_4$0b5a2c62_6cf8_45db   script_4
     002E7F33  GBVM$script_4$846844c6_d45e_4558   script_4
     002E7F57  GBVM_END$script_4$e3b11a99_14de_   script_4
     002E7F5A  GBVM$script_4$3c82d008_5937_4f29   script_4
     002E7F5A  GBVM_END$script_4$734633e2_f02f_   script_4
     002E7F6F  GBVM$script_4$096b015e_c034_4da9   script_4
     002E7FA8  GBVM$script_4$9517bf0e_8b95_4e02   script_4
     002E7FDA  GBVM_END$script_4$3c82d008_5937_   script_4
ASxxxx Linker V03.00/V05.40 + sdld,  page 211.
Hexadecimal  [32-Bits]

Area                                    Addr        Size        Decimal Bytes (Attributes)
--------------------------------        ----        ----        ------- ----- ------------
_CODE_46                            002E4000    00004000 =       16384. bytes (REL,CON)

      Value  Global                              Global Defined In Module
      -----  --------------------------------   ------------------------
     002E7FDE  ___func_sprite_lava_tileset        sprite_lava_tileset
     002E7FDE  _sprite_lava_tileset               sprite_lava_tileset

ASxxxx Linker V03.00/V05.40 + sdld,  page 212.
Hexadecimal  [32-Bits]

Area                                    Addr        Size        Decimal Bytes (Attributes)
--------------------------------        ----        ----        ------- ----- ------------
_HEADER_LCD0                        00000000    00000003 =           3. bytes (ABS,CON)

      Value  Global                              Global Defined In Module
      -----  --------------------------------   ------------------------
ASxxxx Linker V03.00/V05.40 + sdld,  page 213.

Files Linked                              [ module(s) ]

C:\Users\steve\AppData\Local\Temp/_gbstools/gbdk/lib/gb/crt0.o
                                          [ Runtime ]
C:/Users/steve/AppData/Local/Temp/_gbsbuild/obj/absolute.rel
                                          [ absolute ]
C:/Users/steve/AppData/Local/Temp/_gbsbuild/obj/actor.rel
                                          [ actor ]
C:/Users/steve/AppData/Local/Temp/_gbsbuild/obj/bankdata.rel
                                          [ bankdata ]
C:/Users/steve/AppData/Local/Temp/_gbsbuild/obj/bootstrap.rel
                                          [  ]
C:/Users/steve/AppData/Local/Temp/_gbsbuild/obj/camera.rel
                                          [ camera ]
C:/Users/steve/AppData/Local/Temp/_gbsbuild/obj/core.rel
                                          [ core ]
C:/Users/steve/AppData/Local/Temp/_gbsbuild/obj/crash_handler.rel
                                          [  ]
C:/Users/steve/AppData/Local/Temp/_gbsbuild/obj/data_manager.rel
                                          [ data_manager ]
C:/Users/steve/AppData/Local/Temp/_gbsbuild/obj/events.rel
                                          [ events ]
C:/Users/steve/AppData/Local/Temp/_gbsbuild/obj/fade_manager.rel
                                          [ fade_manager ]
C:/Users/steve/AppData/Local/Temp/_gbsbuild/obj/flasher_s.rel
                                          [  ]
C:/Users/steve/AppData/Local/Temp/_gbsbuild/obj/flasher.rel
                                          [ flasher ]
C:/Users/steve/AppData/Local/Temp/_gbsbuild/obj/game_time.rel
                                          [ game_time ]
C:/Users/steve/AppData/Local/Temp/_gbsbuild/obj/gbprinter.rel
                                          [ gbprinter ]
C:/Users/steve/AppData/Local/Temp/_gbsbuild/obj/input.rel
                                          [ input ]
C:/Users/steve/AppData/Local/Temp/_gbsbuild/obj/interrupt_sio.rel
                                          [  ]
C:/Users/steve/AppData/Local/Temp/_gbsbuild/obj/interrupt_timer.rel
                                          [  ]
C:/Users/steve/AppData/Local/Temp/_gbsbuild/obj/interrupts.rel
                                          [ interrupts ]
C:/Users/steve/AppData/Local/Temp/_gbsbuild/obj/load_save.rel
                                          [ load_save ]
C:/Users/steve/AppData/Local/Temp/_gbsbuild/obj/math_atan2.rel
                                          [ math_atan2 ]
C:/Users/steve/AppData/Local/Temp/_gbsbuild/obj/math.rel
                                          [ math ]
C:/Users/steve/AppData/Local/Temp/_gbsbuild/obj/music_manager.rel
                                          [ music_manager ]
C:/Users/steve/AppData/Local/Temp/_gbsbuild/obj/palette.rel
                                          [ palette ]
C:/Users/steve/AppData/Local/Temp/_gbsbuild/obj/parallax.rel
                                          [ parallax ]
C:/Users/steve/AppData/Local/Temp/_gbsbuild/obj/projectiles.rel
                                          [ projectiles ]
C:/Users/steve/AppData/Local/Temp/_gbsbuild/obj/scroll_a.rel
                                          [  ]
C:/Users/steve/AppData/Local/Temp/_gbsbuild/obj/scroll.rel
                                          [ scroll ]
C:/Users/steve/AppData/Local/Temp/_gbsbuild/obj/set_tile_submap.rel
                                          [  ]
C:/Users/steve/AppData/Local/Temp/_gbsbuild/obj/sfx_player.rel
                                          [ sfx_player ]
C:/Users/steve/AppData/Local/Temp/_gbsbuild/obj/sgb_border.rel
                                          [ sgb_border ]
C:/Users/steve/AppData/Local/Temp/_gbsbuild/obj/sio.rel
                                          [ sio ]
C:/Users/steve/AppData/Local/Temp/_gbsbuild/obj/states_caller.rel
                                          [  ]
C:/Users/steve/AppData/Local/Temp/_gbsbuild/obj/system.rel
                                          [ system ]
C:/Users/steve/AppData/Local/Temp/_gbsbuild/obj/trigger.rel
                                          [ trigger ]
C:/Users/steve/AppData/Local/Temp/_gbsbuild/obj/ui_a.rel
                                          [  ]
C:/Users/steve/AppData/Local/Temp/_gbsbuild/obj/ui.rel
                                          [ ui ]
C:/Users/steve/AppData/Local/Temp/_gbsbuild/obj/vm_actor.rel
                                          [ vm_actor ]
C:/Users/steve/AppData/Local/Temp/_gbsbuild/obj/vm_camera.rel
                                          [ vm_camera ]
C:/Users/steve/AppData/Local/Temp/_gbsbuild/obj/vm_gameboy.rel
                                          [ vm_gameboy ]
C:/Users/steve/AppData/Local/Temp/_gbsbuild/obj/vm_gbprinter.rel
                                          [ vm_gbprinter ]
C:/Users/steve/AppData/Local/Temp/_gbsbuild/obj/vm_instructions.rel
                                          [ vm_instructions ]
C:/Users/steve/AppData/Local/Temp/_gbsbuild/obj/vm_load_save.rel
                                          [ vm_load_save ]
C:/Users/steve/AppData/Local/Temp/_gbsbuild/obj/vm_math.rel
                                          [ vm_math ]
C:/Users/steve/AppData/Local/Temp/_gbsbuild/obj/vm_music.rel
                                          [ vm_music ]
C:/Users/steve/AppData/Local/Temp/_gbsbuild/obj/vm_palette.rel
                                          [ vm_palette ]
C:/Users/steve/AppData/Local/Temp/_gbsbuild/obj/vm_projectiles.rel
                                          [ vm_projectiles ]
C:/Users/steve/AppData/Local/Temp/_gbsbuild/obj/vm_rtc.rel
                                          [ vm_rtc ]
C:/Users/steve/AppData/Local/Temp/_gbsbuild/obj/vm_scene.rel
                                          [ vm_scene ]
C:/Users/steve/AppData/Local/Temp/_gbsbuild/obj/vm_sgb.rel
                                          [ vm_sgb ]
C:/Users/steve/AppData/Local/Temp/_gbsbuild/obj/vm_sio.rel
                                          [ vm_sio ]
C:/Users/steve/AppData/Local/Temp/_gbsbuild/obj/vm_ui_a.rel
                                          [ vm_ui_a ]
C:/Users/steve/AppData/Local/Temp/_gbsbuild/obj/vm_ui.rel
                                          [ vm_ui ]
C:/Users/steve/AppData/Local/Temp/_gbsbuild/obj/vm.rel
                                          [ vm ]
C:/Users/steve/AppData/Local/Temp/_gbsbuild/obj/actor_0_update.rel
                                          [ actor_0_update ]
C:/Users/steve/AppData/Local/Temp/_gbsbuild/obj/actor_1_update.rel
                                          [ actor_1_update ]
C:/Users/steve/AppData/Local/Temp/_gbsbuild/obj/actor_10_update.rel
                                          [ actor_10_update ]
C:/Users/steve/AppData/Local/Temp/_gbsbuild/obj/actor_14_interact.rel
                                          [ actor_14_interact ]
C:/Users/steve/AppData/Local/Temp/_gbsbuild/obj/actor_15_interact.rel
                                          [ actor_15_interact ]
C:/Users/steve/AppData/Local/Temp/_gbsbuild/obj/actor_16_interact.rel
                                          [ actor_16_interact ]
C:/Users/steve/AppData/Local/Temp/_gbsbuild/obj/actor_17_interact.rel
                                          [ actor_17_interact ]
C:/Users/steve/AppData/Local/Temp/_gbsbuild/obj/actor_18_interact.rel
                                          [ actor_18_interact ]
C:/Users/steve/AppData/Local/Temp/_gbsbuild/obj/actor_19_interact.rel
                                          [ actor_19_interact ]
C:/Users/steve/AppData/Local/Temp/_gbsbuild/obj/actor_2_interact.rel
                                          [ actor_2_interact ]
C:/Users/steve/AppData/Local/Temp/_gbsbuild/obj/actor_20_interact.rel
                                          [ actor_20_interact ]
C:/Users/steve/AppData/Local/Temp/_gbsbuild/obj/actor_21_interact.rel
                                          [ actor_21_interact ]
C:/Users/steve/AppData/Local/Temp/_gbsbuild/obj/actor_22_interact.rel
                                          [ actor_22_interact ]
C:/Users/steve/AppData/Local/Temp/_gbsbuild/obj/actor_23_interact.rel
                                          [ actor_23_interact ]
C:/Users/steve/AppData/Local/Temp/_gbsbuild/obj/actor_24_interact.rel
                                          [ actor_24_interact ]
C:/Users/steve/AppData/Local/Temp/_gbsbuild/obj/actor_24_update.rel
                                          [ actor_24_update ]
C:/Users/steve/AppData/Local/Temp/_gbsbuild/obj/actor_3_interact.rel
                                          [ actor_3_interact ]
C:/Users/steve/AppData/Local/Temp/_gbsbuild/obj/actor_37_update.rel
                                          [ actor_37_update ]
C:/Users/steve/AppData/Local/Temp/_gbsbuild/obj/actor_39_interact.rel
                                          [ actor_39_interact ]
C:/Users/steve/AppData/Local/Temp/_gbsbuild/obj/actor_4_interact.rel
                                          [ actor_4_interact ]
C:/Users/steve/AppData/Local/Temp/_gbsbuild/obj/actor_40_interact.rel
                                          [ actor_40_interact ]
C:/Users/steve/AppData/Local/Temp/_gbsbuild/obj/actor_41_interact.rel
                                          [ actor_41_interact ]
C:/Users/steve/AppData/Local/Temp/_gbsbuild/obj/actor_44_update.rel
                                          [ actor_44_update ]
C:/Users/steve/AppData/Local/Temp/_gbsbuild/obj/actor_45_update.rel
                                          [ actor_45_update ]
C:/Users/steve/AppData/Local/Temp/_gbsbuild/obj/actor_46_interact.rel
                                          [ actor_46_interact ]
C:/Users/steve/AppData/Local/Temp/_gbsbuild/obj/actor_46_update.rel
                                          [ actor_46_update ]
C:/Users/steve/AppData/Local/Temp/_gbsbuild/obj/actor_5_interact.rel
                                          [ actor_5_interact ]
C:/Users/steve/AppData/Local/Temp/_gbsbuild/obj/actor_55_interact.rel
                                          [ actor_55_interact ]
C:/Users/steve/AppData/Local/Temp/_gbsbuild/obj/actor_57_interact.rel
                                          [ actor_57_interact ]
C:/Users/steve/AppData/Local/Temp/_gbsbuild/obj/actor_59_interact.rel
                                          [ actor_59_interact ]
C:/Users/steve/AppData/Local/Temp/_gbsbuild/obj/actor_6_interact.rel
                                          [ actor_6_interact ]
C:/Users/steve/AppData/Local/Temp/_gbsbuild/obj/actor_60_interact.rel
                                          [ actor_60_interact ]
C:/Users/steve/AppData/Local/Temp/_gbsbuild/obj/actor_61_interact.rel
                                          [ actor_61_interact ]
C:/Users/steve/AppData/Local/Temp/_gbsbuild/obj/actor_7_interact.rel
                                          [ actor_7_interact ]
C:/Users/steve/AppData/Local/Temp/_gbsbuild/obj/actor_8_interact.rel
                                          [ actor_8_interact ]
C:/Users/steve/AppData/Local/Temp/_gbsbuild/obj/actor_9_update.rel
                                          [ actor_9_update ]
C:/Users/steve/AppData/Local/Temp/_gbsbuild/obj/avatar_font_0.rel
                                          [ avatar_font_0 ]
C:/Users/steve/AppData/Local/Temp/_gbsbuild/obj/bg_blight_s_memory_p1_tilemap_attr.rel
                                          [ bg_blight_s_memory_p1_tilemap_at ]
C:/Users/steve/AppData/Local/Temp/_gbsbuild/obj/bg_blight_s_memory_p1_tilemap.rel
                                          [ bg_blight_s_memory_p1_tilemap ]
C:/Users/steve/AppData/Local/Temp/_gbsbuild/obj/bg_blight_s_memory_p1_tileset.rel
                                          [ bg_blight_s_memory_p1_tileset ]
C:/Users/steve/AppData/Local/Temp/_gbsbuild/obj/bg_blight_s_memory_p1.rel
                                          [ bg_blight_s_memory_p1 ]
C:/Users/steve/AppData/Local/Temp/_gbsbuild/obj/bg_earth_burnclaw_forest_ca_tilemap_attr.rel
                                          [ bg_earth_burnclaw_forest_ca_tile ]
C:/Users/steve/AppData/Local/Temp/_gbsbuild/obj/bg_earth_burnclaw_forest_ca_tilemap.rel
                                          [ bg_earth_burnclaw_forest_ca_tile ]
C:/Users/steve/AppData/Local/Temp/_gbsbuild/obj/bg_earth_burnclaw_forest_ca_tileset.rel
                                          [ bg_earth_burnclaw_forest_ca_tile ]
C:/Users/steve/AppData/Local/Temp/_gbsbuild/obj/bg_earth_burnclaw_forest_ca.rel
                                          [ bg_earth_burnclaw_forest_ca ]
C:/Users/steve/AppData/Local/Temp/_gbsbuild/obj/bg_earth_burnclaw_forest_cr_tilemap_attr.rel
                                          [ bg_earth_burnclaw_forest_cr_tile ]
C:/Users/steve/AppData/Local/Temp/_gbsbuild/obj/bg_earth_burnclaw_forest_cr_tilemap.rel
                                          [ bg_earth_burnclaw_forest_cr_tile ]
C:/Users/steve/AppData/Local/Temp/_gbsbuild/obj/bg_earth_burnclaw_forest_cr_tileset.rel
                                          [ bg_earth_burnclaw_forest_cr_tile ]
C:/Users/steve/AppData/Local/Temp/_gbsbuild/obj/bg_earth_burnclaw_forest_cr.rel
                                          [ bg_earth_burnclaw_forest_cr ]
C:/Users/steve/AppData/Local/Temp/_gbsbuild/obj/bg_earth_burnclaw_forest_tilemap_attr.rel
                                          [ bg_earth_burnclaw_forest_tilemap ]
C:/Users/steve/AppData/Local/Temp/_gbsbuild/obj/bg_earth_burnclaw_forest_tilemap.rel
                                          [ bg_earth_burnclaw_forest_tilemap ]
C:/Users/steve/AppData/Local/Temp/_gbsbuild/obj/bg_earth_burnclaw_forest_tileset.rel
                                          [ bg_earth_burnclaw_forest_tileset ]
C:/Users/steve/AppData/Local/Temp/_gbsbuild/obj/bg_earth_burnclaw_forest.rel
                                          [ bg_earth_burnclaw_forest ]
C:/Users/steve/AppData/Local/Temp/_gbsbuild/obj/bg_earth_distortion_mountai_tilemap_attr.rel
                                          [ bg_earth_distortion_mountai_tile ]
C:/Users/steve/AppData/Local/Temp/_gbsbuild/obj/bg_earth_distortion_mountai_tilemap.rel
                                          [ bg_earth_distortion_mountai_tile ]
C:/Users/steve/AppData/Local/Temp/_gbsbuild/obj/bg_earth_distortion_mountai_tileset.rel
                                          [ bg_earth_distortion_mountai_tile ]
C:/Users/steve/AppData/Local/Temp/_gbsbuild/obj/bg_earth_distortion_mountai.rel
                                          [ bg_earth_distortion_mountai ]
C:/Users/steve/AppData/Local/Temp/_gbsbuild/obj/bg_earth_level_1_intro_tilemap_attr.rel
                                          [ bg_earth_level_1_intro_tilemap_a ]
C:/Users/steve/AppData/Local/Temp/_gbsbuild/obj/bg_earth_level_1_intro_tilemap.rel
                                          [ bg_earth_level_1_intro_tilemap ]
C:/Users/steve/AppData/Local/Temp/_gbsbuild/obj/bg_earth_level_1_intro_tileset.rel
                                          [ bg_earth_level_1_intro_tileset ]
C:/Users/steve/AppData/Local/Temp/_gbsbuild/obj/bg_earth_level_1_intro.rel
                                          [ bg_earth_level_1_intro ]
C:/Users/steve/AppData/Local/Temp/_gbsbuild/obj/bg_earth_shuttle_bay_secret_tilemap_attr.rel
                                          [ bg_earth_shuttle_bay_secret_tile ]
C:/Users/steve/AppData/Local/Temp/_gbsbuild/obj/bg_earth_shuttle_bay_secret_tilemap.rel
                                          [ bg_earth_shuttle_bay_secret_tile ]
C:/Users/steve/AppData/Local/Temp/_gbsbuild/obj/bg_earth_shuttle_bay_secret_tileset.rel
                                          [ bg_earth_shuttle_bay_secret_tile ]
C:/Users/steve/AppData/Local/Temp/_gbsbuild/obj/bg_earth_shuttle_bay_secret.rel
                                          [ bg_earth_shuttle_bay_secret ]
C:/Users/steve/AppData/Local/Temp/_gbsbuild/obj/bg_earth_shuttle_bay_tilemap_attr.rel
                                          [ bg_earth_shuttle_bay_tilemap_att ]
C:/Users/steve/AppData/Local/Temp/_gbsbuild/obj/bg_earth_shuttle_bay_tilemap.rel
                                          [ bg_earth_shuttle_bay_tilemap ]
C:/Users/steve/AppData/Local/Temp/_gbsbuild/obj/bg_earth_shuttle_bay_tileset.rel
                                          [ bg_earth_shuttle_bay_tileset ]
C:/Users/steve/AppData/Local/Temp/_gbsbuild/obj/bg_earth_shuttle_bay_upper_tilemap_attr.rel
                                          [ bg_earth_shuttle_bay_upper_tilem ]
C:/Users/steve/AppData/Local/Temp/_gbsbuild/obj/bg_earth_shuttle_bay_upper_tilemap.rel
                                          [ bg_earth_shuttle_bay_upper_tilem ]
C:/Users/steve/AppData/Local/Temp/_gbsbuild/obj/bg_earth_shuttle_bay_upper_tileset.rel
                                          [ bg_earth_shuttle_bay_upper_tiles ]
C:/Users/steve/AppData/Local/Temp/_gbsbuild/obj/bg_earth_shuttle_bay_upper.rel
                                          [ bg_earth_shuttle_bay_upper ]
C:/Users/steve/AppData/Local/Temp/_gbsbuild/obj/bg_earth_shuttle_bay_water_tilemap_attr.rel
                                          [ bg_earth_shuttle_bay_water_tilem ]
C:/Users/steve/AppData/Local/Temp/_gbsbuild/obj/bg_earth_shuttle_bay_water_tilemap.rel
                                          [ bg_earth_shuttle_bay_water_tilem ]
C:/Users/steve/AppData/Local/Temp/_gbsbuild/obj/bg_earth_shuttle_bay_water_tileset.rel
                                          [ bg_earth_shuttle_bay_water_tiles ]
C:/Users/steve/AppData/Local/Temp/_gbsbuild/obj/bg_earth_shuttle_bay_water.rel
                                          [ bg_earth_shuttle_bay_water ]
C:/Users/steve/AppData/Local/Temp/_gbsbuild/obj/bg_earth_shuttle_bay.rel
                                          [ bg_earth_shuttle_bay ]
C:/Users/steve/AppData/Local/Temp/_gbsbuild/obj/bg_hud_ui_tilemap_attr.rel
                                          [ bg_hud_ui_tilemap_attr ]
C:/Users/steve/AppData/Local/Temp/_gbsbuild/obj/bg_hud_ui_tilemap.rel
                                          [ bg_hud_ui_tilemap ]
C:/Users/steve/AppData/Local/Temp/_gbsbuild/obj/bg_hud_ui_tileset.rel
                                          [ bg_hud_ui_tileset ]
C:/Users/steve/AppData/Local/Temp/_gbsbuild/obj/bg_hud_ui.rel
                                          [ bg_hud_ui ]
C:/Users/steve/AppData/Local/Temp/_gbsbuild/obj/bg_jems_background_tilemap_attr.rel
                                          [ bg_jems_background_tilemap_attr ]
C:/Users/steve/AppData/Local/Temp/_gbsbuild/obj/bg_jems_background_tilemap.rel
                                          [ bg_jems_background_tilemap ]
C:/Users/steve/AppData/Local/Temp/_gbsbuild/obj/bg_jems_background_tileset.rel
                                          [ bg_jems_background_tileset ]
C:/Users/steve/AppData/Local/Temp/_gbsbuild/obj/bg_jems_background.rel
                                          [ bg_jems_background ]
C:/Users/steve/AppData/Local/Temp/_gbsbuild/obj/bg_luna_boss_room_tilemap_attr.rel
                                          [ bg_luna_boss_room_tilemap_attr ]
C:/Users/steve/AppData/Local/Temp/_gbsbuild/obj/bg_luna_boss_room_tilemap.rel
                                          [ bg_luna_boss_room_tilemap ]
C:/Users/steve/AppData/Local/Temp/_gbsbuild/obj/bg_luna_boss_room_tileset.rel
                                          [ bg_luna_boss_room_tileset ]
C:/Users/steve/AppData/Local/Temp/_gbsbuild/obj/bg_luna_boss_room.rel
                                          [ bg_luna_boss_room ]
C:/Users/steve/AppData/Local/Temp/_gbsbuild/obj/bg_luna_peryil_s_house_tilemap_attr.rel
                                          [ bg_luna_peryil_s_house_tilemap_a ]
C:/Users/steve/AppData/Local/Temp/_gbsbuild/obj/bg_luna_peryil_s_house_tilemap.rel
                                          [ bg_luna_peryil_s_house_tilemap ]
C:/Users/steve/AppData/Local/Temp/_gbsbuild/obj/bg_luna_peryil_s_house_tileset.rel
                                          [ bg_luna_peryil_s_house_tileset ]
C:/Users/steve/AppData/Local/Temp/_gbsbuild/obj/bg_luna_peryil_s_house.rel
                                          [ bg_luna_peryil_s_house ]
C:/Users/steve/AppData/Local/Temp/_gbsbuild/obj/bg_luna_serenity_cave_lower_tilemap_attr.rel
                                          [ bg_luna_serenity_cave_lower_tile ]
C:/Users/steve/AppData/Local/Temp/_gbsbuild/obj/bg_luna_serenity_cave_lower_tilemap.rel
                                          [ bg_luna_serenity_cave_lower_tile ]
C:/Users/steve/AppData/Local/Temp/_gbsbuild/obj/bg_luna_serenity_cave_lower_tileset.rel
                                          [ bg_luna_serenity_cave_lower_tile ]
C:/Users/steve/AppData/Local/Temp/_gbsbuild/obj/bg_luna_serenity_cave_lower.rel
                                          [ bg_luna_serenity_cave_lower ]
C:/Users/steve/AppData/Local/Temp/_gbsbuild/obj/bg_luna_serenity_cave_upper_tilemap_attr.rel
                                          [ bg_luna_serenity_cave_upper_tile ]
C:/Users/steve/AppData/Local/Temp/_gbsbuild/obj/bg_luna_serenity_cave_upper_tilemap.rel
                                          [ bg_luna_serenity_cave_upper_tile ]
C:/Users/steve/AppData/Local/Temp/_gbsbuild/obj/bg_luna_serenity_cave_upper_tileset.rel
                                          [ bg_luna_serenity_cave_upper_tile ]
C:/Users/steve/AppData/Local/Temp/_gbsbuild/obj/bg_luna_serenity_cave_upper.rel
                                          [ bg_luna_serenity_cave_upper ]
C:/Users/steve/AppData/Local/Temp/_gbsbuild/obj/bg_luna_serenity_forest_tilemap_attr.rel
                                          [ bg_luna_serenity_forest_tilemap_ ]
C:/Users/steve/AppData/Local/Temp/_gbsbuild/obj/bg_luna_serenity_forest_tilemap.rel
                                          [ bg_luna_serenity_forest_tilemap ]
C:/Users/steve/AppData/Local/Temp/_gbsbuild/obj/bg_luna_serenity_forest_tileset.rel
                                          [ bg_luna_serenity_forest_tileset ]
C:/Users/steve/AppData/Local/Temp/_gbsbuild/obj/bg_luna_serenity_forest.rel
                                          [ bg_luna_serenity_forest ]
C:/Users/steve/AppData/Local/Temp/_gbsbuild/obj/bg_luna_serenity_outskirts_tilemap_attr.rel
                                          [ bg_luna_serenity_outskirts_tilem ]
C:/Users/steve/AppData/Local/Temp/_gbsbuild/obj/bg_luna_serenity_outskirts_tilemap.rel
                                          [ bg_luna_serenity_outskirts_tilem ]
C:/Users/steve/AppData/Local/Temp/_gbsbuild/obj/bg_luna_serenity_outskirts_tileset.rel
                                          [ bg_luna_serenity_outskirts_tiles ]
C:/Users/steve/AppData/Local/Temp/_gbsbuild/obj/bg_luna_serenity_outskirts.rel
                                          [ bg_luna_serenity_outskirts ]
C:/Users/steve/AppData/Local/Temp/_gbsbuild/obj/bg_luna_serenity_waterfront_tilemap_attr.rel
                                          [ bg_luna_serenity_waterfront_tile ]
C:/Users/steve/AppData/Local/Temp/_gbsbuild/obj/bg_luna_serenity_waterfront_tilemap.rel
                                          [ bg_luna_serenity_waterfront_tile ]
C:/Users/steve/AppData/Local/Temp/_gbsbuild/obj/bg_luna_serenity_waterfront_tileset.rel
                                          [ bg_luna_serenity_waterfront_tile ]
C:/Users/steve/AppData/Local/Temp/_gbsbuild/obj/bg_luna_serenity_waterfront.rel
                                          [ bg_luna_serenity_waterfront ]
C:/Users/steve/AppData/Local/Temp/_gbsbuild/obj/bg_luna_sewer_system_tilemap_attr.rel
                                          [ bg_luna_sewer_system_tilemap_att ]
C:/Users/steve/AppData/Local/Temp/_gbsbuild/obj/bg_luna_sewer_system_tilemap.rel
                                          [ bg_luna_sewer_system_tilemap ]
C:/Users/steve/AppData/Local/Temp/_gbsbuild/obj/bg_luna_sewer_system_tileset.rel
                                          [ bg_luna_sewer_system_tileset ]
C:/Users/steve/AppData/Local/Temp/_gbsbuild/obj/bg_luna_sewer_system.rel
                                          [ bg_luna_sewer_system ]
C:/Users/steve/AppData/Local/Temp/_gbsbuild/obj/bg_luna_water_heater_tilemap_attr.rel
                                          [ bg_luna_water_heater_tilemap_att ]
C:/Users/steve/AppData/Local/Temp/_gbsbuild/obj/bg_luna_water_heater_tilemap.rel
                                          [ bg_luna_water_heater_tilemap ]
C:/Users/steve/AppData/Local/Temp/_gbsbuild/obj/bg_luna_water_heater_tileset.rel
                                          [ bg_luna_water_heater_tileset ]
C:/Users/steve/AppData/Local/Temp/_gbsbuild/obj/bg_luna_water_heater.rel
                                          [ bg_luna_water_heater ]
C:/Users/steve/AppData/Local/Temp/_gbsbuild/obj/bg_menu_load_background_tilemap_attr.rel
                                          [ bg_menu_load_background_tilemap_ ]
C:/Users/steve/AppData/Local/Temp/_gbsbuild/obj/bg_menu_load_background_tilemap.rel
                                          [ bg_menu_load_background_tilemap ]
C:/Users/steve/AppData/Local/Temp/_gbsbuild/obj/bg_menu_load_background_tileset.rel
                                          [ bg_menu_load_background_tileset ]
C:/Users/steve/AppData/Local/Temp/_gbsbuild/obj/bg_menu_load_background.rel
                                          [ bg_menu_load_background ]
C:/Users/steve/AppData/Local/Temp/_gbsbuild/obj/bg_mercury_landing_site_tilemap_attr.rel
                                          [ bg_mercury_landing_site_tilemap_ ]
C:/Users/steve/AppData/Local/Temp/_gbsbuild/obj/bg_mercury_landing_site_tilemap.rel
                                          [ bg_mercury_landing_site_tilemap ]
C:/Users/steve/AppData/Local/Temp/_gbsbuild/obj/bg_mercury_landing_site_tileset.rel
                                          [ bg_mercury_landing_site_tileset ]
C:/Users/steve/AppData/Local/Temp/_gbsbuild/obj/bg_mercury_landing_site.rel
                                          [ bg_mercury_landing_site ]
C:/Users/steve/AppData/Local/Temp/_gbsbuild/obj/bg_mercury_overflow_passage_tilemap_attr.rel
                                          [ bg_mercury_overflow_passage_tile ]
C:/Users/steve/AppData/Local/Temp/_gbsbuild/obj/bg_mercury_overflow_passage_tilemap.rel
                                          [ bg_mercury_overflow_passage_tile ]
C:/Users/steve/AppData/Local/Temp/_gbsbuild/obj/bg_mercury_overflow_passage_tileset.rel
                                          [ bg_mercury_overflow_passage_tile ]
C:/Users/steve/AppData/Local/Temp/_gbsbuild/obj/bg_mercury_overflow_passage.rel
                                          [ bg_mercury_overflow_passage ]
C:/Users/steve/AppData/Local/Temp/_gbsbuild/obj/bg_mercury_poison_processin_tilemap_attr.rel
                                          [ bg_mercury_poison_processin_tile ]
C:/Users/steve/AppData/Local/Temp/_gbsbuild/obj/bg_mercury_poison_processin_tilemap.rel
                                          [ bg_mercury_poison_processin_tile ]
C:/Users/steve/AppData/Local/Temp/_gbsbuild/obj/bg_mercury_poison_processin_tileset.rel
                                          [ bg_mercury_poison_processin_tile ]
C:/Users/steve/AppData/Local/Temp/_gbsbuild/obj/bg_mercury_poison_processin.rel
                                          [ bg_mercury_poison_processin ]
C:/Users/steve/AppData/Local/Temp/_gbsbuild/obj/bg_mercury_poison_storage_tilemap_attr.rel
                                          [ bg_mercury_poison_storage_tilema ]
C:/Users/steve/AppData/Local/Temp/_gbsbuild/obj/bg_mercury_poison_storage_tilemap.rel
                                          [ bg_mercury_poison_storage_tilema ]
C:/Users/steve/AppData/Local/Temp/_gbsbuild/obj/bg_mercury_poison_storage_tileset.rel
                                          [ bg_mercury_poison_storage_tilese ]
C:/Users/steve/AppData/Local/Temp/_gbsbuild/obj/bg_mercury_poison_storage.rel
                                          [ bg_mercury_poison_storage ]
C:/Users/steve/AppData/Local/Temp/_gbsbuild/obj/bg_mercury_projectile_platf_tilemap_attr.rel
                                          [ bg_mercury_projectile_platf_tile ]
C:/Users/steve/AppData/Local/Temp/_gbsbuild/obj/bg_mercury_projectile_platf_tilemap.rel
                                          [ bg_mercury_projectile_platf_tile ]
C:/Users/steve/AppData/Local/Temp/_gbsbuild/obj/bg_mercury_projectile_platf_tileset.rel
                                          [ bg_mercury_projectile_platf_tile ]
C:/Users/steve/AppData/Local/Temp/_gbsbuild/obj/bg_mercury_projectile_platf.rel
                                          [ bg_mercury_projectile_platf ]
C:/Users/steve/AppData/Local/Temp/_gbsbuild/obj/bg_mercury_secret_area_tilemap_attr.rel
                                          [ bg_mercury_secret_area_tilemap_a ]
C:/Users/steve/AppData/Local/Temp/_gbsbuild/obj/bg_mercury_secret_area_tilemap.rel
                                          [ bg_mercury_secret_area_tilemap ]
C:/Users/steve/AppData/Local/Temp/_gbsbuild/obj/bg_mercury_secret_area_tileset.rel
                                          [ bg_mercury_secret_area_tileset ]
C:/Users/steve/AppData/Local/Temp/_gbsbuild/obj/bg_mercury_secret_area.rel
                                          [ bg_mercury_secret_area ]
C:/Users/steve/AppData/Local/Temp/_gbsbuild/obj/bg_mercury_throne_room_tilemap_attr.rel
                                          [ bg_mercury_throne_room_tilemap_a ]
C:/Users/steve/AppData/Local/Temp/_gbsbuild/obj/bg_mercury_throne_room_tilemap.rel
                                          [ bg_mercury_throne_room_tilemap ]
C:/Users/steve/AppData/Local/Temp/_gbsbuild/obj/bg_mercury_throne_room_tileset.rel
                                          [ bg_mercury_throne_room_tileset ]
C:/Users/steve/AppData/Local/Temp/_gbsbuild/obj/bg_mercury_throne_room.rel
                                          [ bg_mercury_throne_room ]
C:/Users/steve/AppData/Local/Temp/_gbsbuild/obj/bg_mercury_viewing_area_tilemap_attr.rel
                                          [ bg_mercury_viewing_area_tilemap_ ]
C:/Users/steve/AppData/Local/Temp/_gbsbuild/obj/bg_mercury_viewing_area_tilemap.rel
                                          [ bg_mercury_viewing_area_tilemap ]
C:/Users/steve/AppData/Local/Temp/_gbsbuild/obj/bg_mercury_viewing_area_tileset.rel
                                          [ bg_mercury_viewing_area_tileset ]
C:/Users/steve/AppData/Local/Temp/_gbsbuild/obj/bg_mercury_viewing_area.rel
                                          [ bg_mercury_viewing_area ]
C:/Users/steve/AppData/Local/Temp/_gbsbuild/obj/bg_placeholder_tilemap_attr.rel
                                          [ bg_placeholder_tilemap_attr ]
C:/Users/steve/AppData/Local/Temp/_gbsbuild/obj/bg_placeholder_tilemap.rel
                                          [ bg_placeholder_tilemap ]
C:/Users/steve/AppData/Local/Temp/_gbsbuild/obj/bg_placeholder_tileset.rel
                                          [ bg_placeholder_tileset ]
C:/Users/steve/AppData/Local/Temp/_gbsbuild/obj/bg_placeholder.rel
                                          [ bg_placeholder ]
C:/Users/steve/AppData/Local/Temp/_gbsbuild/obj/bg_platformer_test01_tilemap_attr.rel
                                          [ bg_platformer_test01_tilemap_att ]
C:/Users/steve/AppData/Local/Temp/_gbsbuild/obj/bg_platformer_test01_tilemap.rel
                                          [ bg_platformer_test01_tilemap ]
C:/Users/steve/AppData/Local/Temp/_gbsbuild/obj/bg_platformer_test01_tileset.rel
                                          [ bg_platformer_test01_tileset ]
C:/Users/steve/AppData/Local/Temp/_gbsbuild/obj/bg_platformer_test01.rel
                                          [ bg_platformer_test01 ]
C:/Users/steve/AppData/Local/Temp/_gbsbuild/obj/bg_temporal_light_backgroun_tilemap_attr.rel
                                          [ bg_temporal_light_backgroun_tile ]
C:/Users/steve/AppData/Local/Temp/_gbsbuild/obj/bg_temporal_light_backgroun_tilemap.rel
                                          [ bg_temporal_light_backgroun_tile ]
C:/Users/steve/AppData/Local/Temp/_gbsbuild/obj/bg_temporal_light_backgroun_tileset.rel
                                          [ bg_temporal_light_backgroun_tile ]
C:/Users/steve/AppData/Local/Temp/_gbsbuild/obj/bg_temporal_light_backgroun.rel
                                          [ bg_temporal_light_backgroun ]
C:/Users/steve/AppData/Local/Temp/_gbsbuild/obj/bg_title_tilemap_attr.rel
                                          [ bg_title_tilemap_attr ]
C:/Users/steve/AppData/Local/Temp/_gbsbuild/obj/bg_title_tilemap.rel
                                          [ bg_title_tilemap ]
C:/Users/steve/AppData/Local/Temp/_gbsbuild/obj/bg_title_tileset.rel
                                          [ bg_title_tileset ]
C:/Users/steve/AppData/Local/Temp/_gbsbuild/obj/bg_title.rel
                                          [ bg_title ]
C:/Users/steve/AppData/Local/Temp/_gbsbuild/obj/bg_venus_ac_ventilation_tilemap_attr.rel
                                          [ bg_venus_ac_ventilation_tilemap_ ]
C:/Users/steve/AppData/Local/Temp/_gbsbuild/obj/bg_venus_ac_ventilation_tilemap.rel
                                          [ bg_venus_ac_ventilation_tilemap ]
C:/Users/steve/AppData/Local/Temp/_gbsbuild/obj/bg_venus_ac_ventilation_tileset.rel
                                          [ bg_venus_ac_ventilation_tileset ]
C:/Users/steve/AppData/Local/Temp/_gbsbuild/obj/bg_venus_ac_ventilation.rel
                                          [ bg_venus_ac_ventilation ]
C:/Users/steve/AppData/Local/Temp/_gbsbuild/obj/bg_venus_ac_ventilation2_tilemap_attr.rel
                                          [ bg_venus_ac_ventilation2_tilemap ]
C:/Users/steve/AppData/Local/Temp/_gbsbuild/obj/bg_venus_ac_ventilation2_tilemap.rel
                                          [ bg_venus_ac_ventilation2_tilemap ]
C:/Users/steve/AppData/Local/Temp/_gbsbuild/obj/bg_venus_ac_ventilation2_tileset.rel
                                          [ bg_venus_ac_ventilation2_tileset ]
C:/Users/steve/AppData/Local/Temp/_gbsbuild/obj/bg_venus_ac_ventilation2.rel
                                          [ bg_venus_ac_ventilation2 ]
C:/Users/steve/AppData/Local/Temp/_gbsbuild/obj/bg_venus_defence_tunnel_tilemap_attr.rel
                                          [ bg_venus_defence_tunnel_tilemap_ ]
C:/Users/steve/AppData/Local/Temp/_gbsbuild/obj/bg_venus_defence_tunnel_tilemap.rel
                                          [ bg_venus_defence_tunnel_tilemap ]
C:/Users/steve/AppData/Local/Temp/_gbsbuild/obj/bg_venus_defence_tunnel_tileset.rel
                                          [ bg_venus_defence_tunnel_tileset ]
C:/Users/steve/AppData/Local/Temp/_gbsbuild/obj/bg_venus_defence_tunnel.rel
                                          [ bg_venus_defence_tunnel ]
C:/Users/steve/AppData/Local/Temp/_gbsbuild/obj/bg_venus_dropshaft_0_tilemap_attr.rel
                                          [ bg_venus_dropshaft_0_tilemap_att ]
C:/Users/steve/AppData/Local/Temp/_gbsbuild/obj/bg_venus_dropshaft_0_tilemap.rel
                                          [ bg_venus_dropshaft_0_tilemap ]
C:/Users/steve/AppData/Local/Temp/_gbsbuild/obj/bg_venus_dropshaft_0_tileset.rel
                                          [ bg_venus_dropshaft_0_tileset ]
C:/Users/steve/AppData/Local/Temp/_gbsbuild/obj/bg_venus_dropshaft_0.rel
                                          [ bg_venus_dropshaft_0 ]
C:/Users/steve/AppData/Local/Temp/_gbsbuild/obj/bg_venus_dropshaft_1_tilemap_attr.rel
                                          [ bg_venus_dropshaft_1_tilemap_att ]
C:/Users/steve/AppData/Local/Temp/_gbsbuild/obj/bg_venus_dropshaft_1_tilemap.rel
                                          [ bg_venus_dropshaft_1_tilemap ]
C:/Users/steve/AppData/Local/Temp/_gbsbuild/obj/bg_venus_dropshaft_1_tileset.rel
                                          [ bg_venus_dropshaft_1_tileset ]
C:/Users/steve/AppData/Local/Temp/_gbsbuild/obj/bg_venus_dropshaft_1.rel
                                          [ bg_venus_dropshaft_1 ]
C:/Users/steve/AppData/Local/Temp/_gbsbuild/obj/bg_venus_evidence_room_tilemap_attr.rel
                                          [ bg_venus_evidence_room_tilemap_a ]
C:/Users/steve/AppData/Local/Temp/_gbsbuild/obj/bg_venus_evidence_room_tilemap.rel
                                          [ bg_venus_evidence_room_tilemap ]
C:/Users/steve/AppData/Local/Temp/_gbsbuild/obj/bg_venus_evidence_room_tileset.rel
                                          [ bg_venus_evidence_room_tileset ]
C:/Users/steve/AppData/Local/Temp/_gbsbuild/obj/bg_venus_evidence_room.rel
                                          [ bg_venus_evidence_room ]
C:/Users/steve/AppData/Local/Temp/_gbsbuild/obj/bg_venus_landing_site_tilemap_attr.rel
                                          [ bg_venus_landing_site_tilemap_at ]
C:/Users/steve/AppData/Local/Temp/_gbsbuild/obj/bg_venus_landing_site_tilemap.rel
                                          [ bg_venus_landing_site_tilemap ]
C:/Users/steve/AppData/Local/Temp/_gbsbuild/obj/bg_venus_landing_site_tileset.rel
                                          [ bg_venus_landing_site_tileset ]
C:/Users/steve/AppData/Local/Temp/_gbsbuild/obj/bg_venus_landing_site.rel
                                          [ bg_venus_landing_site ]
C:/Users/steve/AppData/Local/Temp/_gbsbuild/obj/bg_venus_office_access_tilemap_attr.rel
                                          [ bg_venus_office_access_tilemap_a ]
C:/Users/steve/AppData/Local/Temp/_gbsbuild/obj/bg_venus_office_access_tilemap.rel
                                          [ bg_venus_office_access_tilemap ]
C:/Users/steve/AppData/Local/Temp/_gbsbuild/obj/bg_venus_office_access_tileset.rel
                                          [ bg_venus_office_access_tileset ]
C:/Users/steve/AppData/Local/Temp/_gbsbuild/obj/bg_venus_office_access.rel
                                          [ bg_venus_office_access ]
C:/Users/steve/AppData/Local/Temp/_gbsbuild/obj/bg_venus_office_tilemap_attr.rel
                                          [ bg_venus_office_tilemap_attr ]
C:/Users/steve/AppData/Local/Temp/_gbsbuild/obj/bg_venus_office_tilemap.rel
                                          [ bg_venus_office_tilemap ]
C:/Users/steve/AppData/Local/Temp/_gbsbuild/obj/bg_venus_office_tileset.rel
                                          [ bg_venus_office_tileset ]
C:/Users/steve/AppData/Local/Temp/_gbsbuild/obj/bg_venus_office.rel
                                          [ bg_venus_office ]
C:/Users/steve/AppData/Local/Temp/_gbsbuild/obj/bg_venus_police_department__tilemap_attr.rel
                                          [ bg_venus_police_department__tile ]
C:/Users/steve/AppData/Local/Temp/_gbsbuild/obj/bg_venus_police_department__tilemap.rel
                                          [ bg_venus_police_department__tile ]
C:/Users/steve/AppData/Local/Temp/_gbsbuild/obj/bg_venus_police_department__tileset.rel
                                          [ bg_venus_police_department__tile ]
C:/Users/steve/AppData/Local/Temp/_gbsbuild/obj/bg_venus_police_department_.rel
                                          [ bg_venus_police_department_ ]
C:/Users/steve/AppData/Local/Temp/_gbsbuild/obj/bg_warning_tilemap_attr.rel
                                          [ bg_warning_tilemap_attr ]
C:/Users/steve/AppData/Local/Temp/_gbsbuild/obj/bg_warning_tilemap.rel
                                          [ bg_warning_tilemap ]
C:/Users/steve/AppData/Local/Temp/_gbsbuild/obj/bg_warning_tileset.rel
                                          [ bg_warning_tileset ]
C:/Users/steve/AppData/Local/Temp/_gbsbuild/obj/bg_warning.rel
                                          [ bg_warning ]
C:/Users/steve/AppData/Local/Temp/_gbsbuild/obj/border.rel
                                          [ border ]
C:/Users/steve/AppData/Local/Temp/_gbsbuild/obj/cursor_image.rel
                                          [ cursor_image ]
C:/Users/steve/AppData/Local/Temp/_gbsbuild/obj/emote_anger.rel
                                          [ emote_anger ]
C:/Users/steve/AppData/Local/Temp/_gbsbuild/obj/emote_love.rel
                                          [ emote_love ]
C:/Users/steve/AppData/Local/Temp/_gbsbuild/obj/emote_pause.rel
                                          [ emote_pause ]
C:/Users/steve/AppData/Local/Temp/_gbsbuild/obj/emote_question.rel
                                          [ emote_question ]
C:/Users/steve/AppData/Local/Temp/_gbsbuild/obj/emote_shock.rel
                                          [ emote_shock ]
C:/Users/steve/AppData/Local/Temp/_gbsbuild/obj/emote_sweat.rel
                                          [ emote_sweat ]
C:/Users/steve/AppData/Local/Temp/_gbsbuild/obj/font_gbs_mono.rel
                                          [ font_gbs_mono ]
C:/Users/steve/AppData/Local/Temp/_gbsbuild/obj/frame_image.rel
                                          [ frame_image ]
C:/Users/steve/AppData/Local/Temp/_gbsbuild/obj/game_signature.rel
                                          [ game_signature ]
C:/Users/steve/AppData/Local/Temp/_gbsbuild/obj/song_alchemist_energy_0_Data.rel
                                          [ song_alchemist_energy_0_Data ]
C:/Users/steve/AppData/Local/Temp/_gbsbuild/obj/song_alchemist_energy_battl_Data.rel
                                          [ song_alchemist_energy_battl_Data ]
C:/Users/steve/AppData/Local/Temp/_gbsbuild/obj/song_blight_of_light_0_Data.rel
                                          [ song_blight_of_light_0_Data ]
C:/Users/steve/AppData/Local/Temp/_gbsbuild/obj/song_featherfire_cedric_Data.rel
                                          [ song_featherfire_cedric_Data ]
C:/Users/steve/AppData/Local/Temp/_gbsbuild/obj/song_featherfire_depresed_0_Data.rel
                                          [ song_featherfire_depresed_0_Data ]
C:/Users/steve/AppData/Local/Temp/_gbsbuild/obj/song_featherfire_depresed_Data.rel
                                          [ song_featherfire_depresed_Data ]
C:/Users/steve/AppData/Local/Temp/_gbsbuild/obj/song_featherfire_depresed0_Data.rel
                                          [ song_featherfire_depresed0_Data ]
C:/Users/steve/AppData/Local/Temp/_gbsbuild/obj/song_featherfire_ember_Data.rel
                                          [ song_featherfire_ember_Data ]
C:/Users/steve/AppData/Local/Temp/_gbsbuild/obj/song_lunabound_Data.rel
                                          [ song_lunabound_Data ]
C:/Users/steve/AppData/Local/Temp/_gbsbuild/obj/song_taking_flight_0_Data.rel
                                          [ song_taking_flight_0_Data ]
C:/Users/steve/AppData/Local/Temp/_gbsbuild/obj/song_uncertain_wilds_0_Data.rel
                                          [ song_uncertain_wilds_0_Data ]
C:/Users/steve/AppData/Local/Temp/_gbsbuild/obj/song_uncertain_wilds_copy_Data.rel
                                          [ song_uncertain_wilds_copy_Data ]
C:/Users/steve/AppData/Local/Temp/_gbsbuild/obj/song_unknown_wilds_Data.rel
                                          [ song_unknown_wilds_Data ]
C:/Users/steve/AppData/Local/Temp/_gbsbuild/obj/song_wolf_city_distiortion__Data.rel
                                          [ song_wolf_city_distiortion__Data ]
C:/Users/steve/AppData/Local/Temp/_gbsbuild/obj/song_wolfsbane_castle_Data.rel
                                          [ song_wolfsbane_castle_Data ]
C:/Users/steve/AppData/Local/Temp/_gbsbuild/obj/palette_0.rel
                                          [ palette_0 ]
C:/Users/steve/AppData/Local/Temp/_gbsbuild/obj/palette_1.rel
                                          [ palette_1 ]
C:/Users/steve/AppData/Local/Temp/_gbsbuild/obj/palette_10.rel
                                          [ palette_10 ]
C:/Users/steve/AppData/Local/Temp/_gbsbuild/obj/palette_11.rel
                                          [ palette_11 ]
C:/Users/steve/AppData/Local/Temp/_gbsbuild/obj/palette_12.rel
                                          [ palette_12 ]
C:/Users/steve/AppData/Local/Temp/_gbsbuild/obj/palette_2.rel
                                          [ palette_2 ]
C:/Users/steve/AppData/Local/Temp/_gbsbuild/obj/palette_3.rel
                                          [ palette_3 ]
C:/Users/steve/AppData/Local/Temp/_gbsbuild/obj/palette_4.rel
                                          [ palette_4 ]
C:/Users/steve/AppData/Local/Temp/_gbsbuild/obj/palette_5.rel
                                          [ palette_5 ]
C:/Users/steve/AppData/Local/Temp/_gbsbuild/obj/palette_6.rel
                                          [ palette_6 ]
C:/Users/steve/AppData/Local/Temp/_gbsbuild/obj/palette_7.rel
                                          [ palette_7 ]
C:/Users/steve/AppData/Local/Temp/_gbsbuild/obj/palette_8.rel
                                          [ palette_8 ]
C:/Users/steve/AppData/Local/Temp/_gbsbuild/obj/palette_9.rel
                                          [ palette_9 ]
C:/Users/steve/AppData/Local/Temp/_gbsbuild/obj/scene_1_collisions.rel
                                          [ scene_1_collisions ]
C:/Users/steve/AppData/Local/Temp/_gbsbuild/obj/scene_1_init.rel
                                          [ scene_1_init ]
C:/Users/steve/AppData/Local/Temp/_gbsbuild/obj/scene_1_projectiles.rel
                                          [ scene_1_projectiles ]
C:/Users/steve/AppData/Local/Temp/_gbsbuild/obj/scene_1_sprites.rel
                                          [ scene_1_sprites ]
C:/Users/steve/AppData/Local/Temp/_gbsbuild/obj/scene_1_triggers.rel
                                          [ scene_1_triggers ]
C:/Users/steve/AppData/Local/Temp/_gbsbuild/obj/scene_1.rel
                                          [ scene_1 ]
C:/Users/steve/AppData/Local/Temp/_gbsbuild/obj/scene_10_actors.rel
                                          [ scene_10_actors ]
C:/Users/steve/AppData/Local/Temp/_gbsbuild/obj/scene_10_collisions.rel
                                          [ scene_10_collisions ]
C:/Users/steve/AppData/Local/Temp/_gbsbuild/obj/scene_10_init.rel
                                          [ scene_10_init ]
C:/Users/steve/AppData/Local/Temp/_gbsbuild/obj/scene_10_projectiles.rel
                                          [ scene_10_projectiles ]
C:/Users/steve/AppData/Local/Temp/_gbsbuild/obj/scene_10_sprites.rel
                                          [ scene_10_sprites ]
C:/Users/steve/AppData/Local/Temp/_gbsbuild/obj/scene_10_triggers.rel
                                          [ scene_10_triggers ]
C:/Users/steve/AppData/Local/Temp/_gbsbuild/obj/scene_10.rel
                                          [ scene_10 ]
C:/Users/steve/AppData/Local/Temp/_gbsbuild/obj/scene_11_actors.rel
                                          [ scene_11_actors ]
C:/Users/steve/AppData/Local/Temp/_gbsbuild/obj/scene_11_collisions.rel
                                          [ scene_11_collisions ]
C:/Users/steve/AppData/Local/Temp/_gbsbuild/obj/scene_11_init.rel
                                          [ scene_11_init ]
C:/Users/steve/AppData/Local/Temp/_gbsbuild/obj/scene_11_projectiles.rel
                                          [ scene_11_projectiles ]
C:/Users/steve/AppData/Local/Temp/_gbsbuild/obj/scene_11_sprites.rel
                                          [ scene_11_sprites ]
C:/Users/steve/AppData/Local/Temp/_gbsbuild/obj/scene_11_triggers.rel
                                          [ scene_11_triggers ]
C:/Users/steve/AppData/Local/Temp/_gbsbuild/obj/scene_11.rel
                                          [ scene_11 ]
C:/Users/steve/AppData/Local/Temp/_gbsbuild/obj/scene_12_actors.rel
                                          [ scene_12_actors ]
C:/Users/steve/AppData/Local/Temp/_gbsbuild/obj/scene_12_collisions.rel
                                          [ scene_12_collisions ]
C:/Users/steve/AppData/Local/Temp/_gbsbuild/obj/scene_12_init.rel
                                          [ scene_12_init ]
C:/Users/steve/AppData/Local/Temp/_gbsbuild/obj/scene_12_projectiles.rel
                                          [ scene_12_projectiles ]
C:/Users/steve/AppData/Local/Temp/_gbsbuild/obj/scene_12_sprites.rel
                                          [ scene_12_sprites ]
C:/Users/steve/AppData/Local/Temp/_gbsbuild/obj/scene_12_triggers.rel
                                          [ scene_12_triggers ]
C:/Users/steve/AppData/Local/Temp/_gbsbuild/obj/scene_12.rel
                                          [ scene_12 ]
C:/Users/steve/AppData/Local/Temp/_gbsbuild/obj/scene_13_actors.rel
                                          [ scene_13_actors ]
C:/Users/steve/AppData/Local/Temp/_gbsbuild/obj/scene_13_collisions.rel
                                          [ scene_13_collisions ]
C:/Users/steve/AppData/Local/Temp/_gbsbuild/obj/scene_13_init.rel
                                          [ scene_13_init ]
C:/Users/steve/AppData/Local/Temp/_gbsbuild/obj/scene_13_projectiles.rel
                                          [ scene_13_projectiles ]
C:/Users/steve/AppData/Local/Temp/_gbsbuild/obj/scene_13_sprites.rel
                                          [ scene_13_sprites ]
C:/Users/steve/AppData/Local/Temp/_gbsbuild/obj/scene_13_triggers.rel
                                          [ scene_13_triggers ]
C:/Users/steve/AppData/Local/Temp/_gbsbuild/obj/scene_13.rel
                                          [ scene_13 ]
C:/Users/steve/AppData/Local/Temp/_gbsbuild/obj/scene_14_actors.rel
                                          [ scene_14_actors ]
C:/Users/steve/AppData/Local/Temp/_gbsbuild/obj/scene_14_collisions.rel
                                          [ scene_14_collisions ]
C:/Users/steve/AppData/Local/Temp/_gbsbuild/obj/scene_14_init.rel
                                          [ scene_14_init ]
C:/Users/steve/AppData/Local/Temp/_gbsbuild/obj/scene_14_projectiles.rel
                                          [ scene_14_projectiles ]
C:/Users/steve/AppData/Local/Temp/_gbsbuild/obj/scene_14_sprites.rel
                                          [ scene_14_sprites ]
C:/Users/steve/AppData/Local/Temp/_gbsbuild/obj/scene_14_triggers.rel
                                          [ scene_14_triggers ]
C:/Users/steve/AppData/Local/Temp/_gbsbuild/obj/scene_14.rel
                                          [ scene_14 ]
C:/Users/steve/AppData/Local/Temp/_gbsbuild/obj/scene_15_actors.rel
                                          [ scene_15_actors ]
C:/Users/steve/AppData/Local/Temp/_gbsbuild/obj/scene_15_collisions.rel
                                          [ scene_15_collisions ]
C:/Users/steve/AppData/Local/Temp/_gbsbuild/obj/scene_15_init.rel
                                          [ scene_15_init ]
C:/Users/steve/AppData/Local/Temp/_gbsbuild/obj/scene_15_projectiles.rel
                                          [ scene_15_projectiles ]
C:/Users/steve/AppData/Local/Temp/_gbsbuild/obj/scene_15_sprites.rel
                                          [ scene_15_sprites ]
C:/Users/steve/AppData/Local/Temp/_gbsbuild/obj/scene_15_triggers.rel
                                          [ scene_15_triggers ]
C:/Users/steve/AppData/Local/Temp/_gbsbuild/obj/scene_15.rel
                                          [ scene_15 ]
C:/Users/steve/AppData/Local/Temp/_gbsbuild/obj/scene_16_actors.rel
                                          [ scene_16_actors ]
C:/Users/steve/AppData/Local/Temp/_gbsbuild/obj/scene_16_collisions.rel
                                          [ scene_16_collisions ]
C:/Users/steve/AppData/Local/Temp/_gbsbuild/obj/scene_16_init.rel
                                          [ scene_16_init ]
C:/Users/steve/AppData/Local/Temp/_gbsbuild/obj/scene_16_projectiles.rel
                                          [ scene_16_projectiles ]
C:/Users/steve/AppData/Local/Temp/_gbsbuild/obj/scene_16_sprites.rel
                                          [ scene_16_sprites ]
C:/Users/steve/AppData/Local/Temp/_gbsbuild/obj/scene_16_triggers.rel
                                          [ scene_16_triggers ]
C:/Users/steve/AppData/Local/Temp/_gbsbuild/obj/scene_16.rel
                                          [ scene_16 ]
C:/Users/steve/AppData/Local/Temp/_gbsbuild/obj/scene_17_collisions.rel
                                          [ scene_17_collisions ]
C:/Users/steve/AppData/Local/Temp/_gbsbuild/obj/scene_17_init.rel
                                          [ scene_17_init ]
C:/Users/steve/AppData/Local/Temp/_gbsbuild/obj/scene_17.rel
                                          [ scene_17 ]
C:/Users/steve/AppData/Local/Temp/_gbsbuild/obj/scene_18_collisions.rel
                                          [ scene_18_collisions ]
C:/Users/steve/AppData/Local/Temp/_gbsbuild/obj/scene_18_init.rel
                                          [ scene_18_init ]
C:/Users/steve/AppData/Local/Temp/_gbsbuild/obj/scene_18.rel
                                          [ scene_18 ]
C:/Users/steve/AppData/Local/Temp/_gbsbuild/obj/scene_19_actors.rel
                                          [ scene_19_actors ]
C:/Users/steve/AppData/Local/Temp/_gbsbuild/obj/scene_19_collisions.rel
                                          [ scene_19_collisions ]
C:/Users/steve/AppData/Local/Temp/_gbsbuild/obj/scene_19_init.rel
                                          [ scene_19_init ]
C:/Users/steve/AppData/Local/Temp/_gbsbuild/obj/scene_19_sprites.rel
                                          [ scene_19_sprites ]
C:/Users/steve/AppData/Local/Temp/_gbsbuild/obj/scene_19_triggers.rel
                                          [ scene_19_triggers ]
C:/Users/steve/AppData/Local/Temp/_gbsbuild/obj/scene_19.rel
                                          [ scene_19 ]
C:/Users/steve/AppData/Local/Temp/_gbsbuild/obj/scene_2_collisions.rel
                                          [ scene_2_collisions ]
C:/Users/steve/AppData/Local/Temp/_gbsbuild/obj/scene_2_init.rel
                                          [ scene_2_init ]
C:/Users/steve/AppData/Local/Temp/_gbsbuild/obj/scene_2.rel
                                          [ scene_2 ]
C:/Users/steve/AppData/Local/Temp/_gbsbuild/obj/scene_20_collisions.rel
                                          [ scene_20_collisions ]
C:/Users/steve/AppData/Local/Temp/_gbsbuild/obj/scene_20_init.rel
                                          [ scene_20_init ]
C:/Users/steve/AppData/Local/Temp/_gbsbuild/obj/scene_20_triggers.rel
                                          [ scene_20_triggers ]
C:/Users/steve/AppData/Local/Temp/_gbsbuild/obj/scene_20.rel
                                          [ scene_20 ]
C:/Users/steve/AppData/Local/Temp/_gbsbuild/obj/scene_21_actors.rel
                                          [ scene_21_actors ]
C:/Users/steve/AppData/Local/Temp/_gbsbuild/obj/scene_21_collisions.rel
                                          [ scene_21_collisions ]
C:/Users/steve/AppData/Local/Temp/_gbsbuild/obj/scene_21_init.rel
                                          [ scene_21_init ]
C:/Users/steve/AppData/Local/Temp/_gbsbuild/obj/scene_21_projectiles.rel
                                          [ scene_21_projectiles ]
C:/Users/steve/AppData/Local/Temp/_gbsbuild/obj/scene_21_sprites.rel
                                          [ scene_21_sprites ]
C:/Users/steve/AppData/Local/Temp/_gbsbuild/obj/scene_21_triggers.rel
                                          [ scene_21_triggers ]
C:/Users/steve/AppData/Local/Temp/_gbsbuild/obj/scene_21.rel
                                          [ scene_21 ]
C:/Users/steve/AppData/Local/Temp/_gbsbuild/obj/scene_22_actors.rel
                                          [ scene_22_actors ]
C:/Users/steve/AppData/Local/Temp/_gbsbuild/obj/scene_22_collisions.rel
                                          [ scene_22_collisions ]
C:/Users/steve/AppData/Local/Temp/_gbsbuild/obj/scene_22_init.rel
                                          [ scene_22_init ]
C:/Users/steve/AppData/Local/Temp/_gbsbuild/obj/scene_22_projectiles.rel
                                          [ scene_22_projectiles ]
C:/Users/steve/AppData/Local/Temp/_gbsbuild/obj/scene_22_sprites.rel
                                          [ scene_22_sprites ]
C:/Users/steve/AppData/Local/Temp/_gbsbuild/obj/scene_22_triggers.rel
                                          [ scene_22_triggers ]
C:/Users/steve/AppData/Local/Temp/_gbsbuild/obj/scene_22.rel
                                          [ scene_22 ]
C:/Users/steve/AppData/Local/Temp/_gbsbuild/obj/scene_23_actors.rel
                                          [ scene_23_actors ]
C:/Users/steve/AppData/Local/Temp/_gbsbuild/obj/scene_23_collisions.rel
                                          [ scene_23_collisions ]
C:/Users/steve/AppData/Local/Temp/_gbsbuild/obj/scene_23_init.rel
                                          [ scene_23_init ]
C:/Users/steve/AppData/Local/Temp/_gbsbuild/obj/scene_23_projectiles.rel
                                          [ scene_23_projectiles ]
C:/Users/steve/AppData/Local/Temp/_gbsbuild/obj/scene_23_sprites.rel
                                          [ scene_23_sprites ]
C:/Users/steve/AppData/Local/Temp/_gbsbuild/obj/scene_23_triggers.rel
                                          [ scene_23_triggers ]
C:/Users/steve/AppData/Local/Temp/_gbsbuild/obj/scene_23.rel
                                          [ scene_23 ]
C:/Users/steve/AppData/Local/Temp/_gbsbuild/obj/scene_24_actors.rel
                                          [ scene_24_actors ]
C:/Users/steve/AppData/Local/Temp/_gbsbuild/obj/scene_24_collisions.rel
                                          [ scene_24_collisions ]
C:/Users/steve/AppData/Local/Temp/_gbsbuild/obj/scene_24_init.rel
                                          [ scene_24_init ]
C:/Users/steve/AppData/Local/Temp/_gbsbuild/obj/scene_24_projectiles.rel
                                          [ scene_24_projectiles ]
C:/Users/steve/AppData/Local/Temp/_gbsbuild/obj/scene_24_sprites.rel
                                          [ scene_24_sprites ]
C:/Users/steve/AppData/Local/Temp/_gbsbuild/obj/scene_24_triggers.rel
                                          [ scene_24_triggers ]
C:/Users/steve/AppData/Local/Temp/_gbsbuild/obj/scene_24.rel
                                          [ scene_24 ]
C:/Users/steve/AppData/Local/Temp/_gbsbuild/obj/scene_25_actors.rel
                                          [ scene_25_actors ]
C:/Users/steve/AppData/Local/Temp/_gbsbuild/obj/scene_25_collisions.rel
                                          [ scene_25_collisions ]
C:/Users/steve/AppData/Local/Temp/_gbsbuild/obj/scene_25_init.rel
                                          [ scene_25_init ]
C:/Users/steve/AppData/Local/Temp/_gbsbuild/obj/scene_25_projectiles.rel
                                          [ scene_25_projectiles ]
C:/Users/steve/AppData/Local/Temp/_gbsbuild/obj/scene_25_sprites.rel
                                          [ scene_25_sprites ]
C:/Users/steve/AppData/Local/Temp/_gbsbuild/obj/scene_25_triggers.rel
                                          [ scene_25_triggers ]
C:/Users/steve/AppData/Local/Temp/_gbsbuild/obj/scene_25.rel
                                          [ scene_25 ]
C:/Users/steve/AppData/Local/Temp/_gbsbuild/obj/scene_26_collisions.rel
                                          [ scene_26_collisions ]
C:/Users/steve/AppData/Local/Temp/_gbsbuild/obj/scene_26_init.rel
                                          [ scene_26_init ]
C:/Users/steve/AppData/Local/Temp/_gbsbuild/obj/scene_26_projectiles.rel
                                          [ scene_26_projectiles ]
C:/Users/steve/AppData/Local/Temp/_gbsbuild/obj/scene_26_sprites.rel
                                          [ scene_26_sprites ]
C:/Users/steve/AppData/Local/Temp/_gbsbuild/obj/scene_26_triggers.rel
                                          [ scene_26_triggers ]
C:/Users/steve/AppData/Local/Temp/_gbsbuild/obj/scene_26.rel
                                          [ scene_26 ]
C:/Users/steve/AppData/Local/Temp/_gbsbuild/obj/scene_27_collisions.rel
                                          [ scene_27_collisions ]
C:/Users/steve/AppData/Local/Temp/_gbsbuild/obj/scene_27_init.rel
                                          [ scene_27_init ]
C:/Users/steve/AppData/Local/Temp/_gbsbuild/obj/scene_27_projectiles.rel
                                          [ scene_27_projectiles ]
C:/Users/steve/AppData/Local/Temp/_gbsbuild/obj/scene_27_sprites.rel
                                          [ scene_27_sprites ]
C:/Users/steve/AppData/Local/Temp/_gbsbuild/obj/scene_27_triggers.rel
                                          [ scene_27_triggers ]
C:/Users/steve/AppData/Local/Temp/_gbsbuild/obj/scene_27.rel
                                          [ scene_27 ]
C:/Users/steve/AppData/Local/Temp/_gbsbuild/obj/scene_28_actors.rel
                                          [ scene_28_actors ]
C:/Users/steve/AppData/Local/Temp/_gbsbuild/obj/scene_28_collisions.rel
                                          [ scene_28_collisions ]
C:/Users/steve/AppData/Local/Temp/_gbsbuild/obj/scene_28_init.rel
                                          [ scene_28_init ]
C:/Users/steve/AppData/Local/Temp/_gbsbuild/obj/scene_28_p_hit1.rel
                                          [ scene_28_p_hit1 ]
C:/Users/steve/AppData/Local/Temp/_gbsbuild/obj/scene_28_projectiles.rel
                                          [ scene_28_projectiles ]
C:/Users/steve/AppData/Local/Temp/_gbsbuild/obj/scene_28_sprites.rel
                                          [ scene_28_sprites ]
C:/Users/steve/AppData/Local/Temp/_gbsbuild/obj/scene_28.rel
                                          [ scene_28 ]
C:/Users/steve/AppData/Local/Temp/_gbsbuild/obj/scene_29_actors.rel
                                          [ scene_29_actors ]
C:/Users/steve/AppData/Local/Temp/_gbsbuild/obj/scene_29_collisions.rel
                                          [ scene_29_collisions ]
C:/Users/steve/AppData/Local/Temp/_gbsbuild/obj/scene_29_init.rel
                                          [ scene_29_init ]
C:/Users/steve/AppData/Local/Temp/_gbsbuild/obj/scene_29_sprites.rel
                                          [ scene_29_sprites ]
C:/Users/steve/AppData/Local/Temp/_gbsbuild/obj/scene_29.rel
                                          [ scene_29 ]
C:/Users/steve/AppData/Local/Temp/_gbsbuild/obj/scene_3_collisions.rel
                                          [ scene_3_collisions ]
C:/Users/steve/AppData/Local/Temp/_gbsbuild/obj/scene_3_init.rel
                                          [ scene_3_init ]
C:/Users/steve/AppData/Local/Temp/_gbsbuild/obj/scene_3.rel
                                          [ scene_3 ]
C:/Users/steve/AppData/Local/Temp/_gbsbuild/obj/scene_30_actors.rel
                                          [ scene_30_actors ]
C:/Users/steve/AppData/Local/Temp/_gbsbuild/obj/scene_30_collisions.rel
                                          [ scene_30_collisions ]
C:/Users/steve/AppData/Local/Temp/_gbsbuild/obj/scene_30_init.rel
                                          [ scene_30_init ]
C:/Users/steve/AppData/Local/Temp/_gbsbuild/obj/scene_30_sprites.rel
                                          [ scene_30_sprites ]
C:/Users/steve/AppData/Local/Temp/_gbsbuild/obj/scene_30.rel
                                          [ scene_30 ]
C:/Users/steve/AppData/Local/Temp/_gbsbuild/obj/scene_31_collisions.rel
                                          [ scene_31_collisions ]
C:/Users/steve/AppData/Local/Temp/_gbsbuild/obj/scene_31_init.rel
                                          [ scene_31_init ]
C:/Users/steve/AppData/Local/Temp/_gbsbuild/obj/scene_31_projectiles.rel
                                          [ scene_31_projectiles ]
C:/Users/steve/AppData/Local/Temp/_gbsbuild/obj/scene_31_sprites.rel
                                          [ scene_31_sprites ]
C:/Users/steve/AppData/Local/Temp/_gbsbuild/obj/scene_31_triggers.rel
                                          [ scene_31_triggers ]
C:/Users/steve/AppData/Local/Temp/_gbsbuild/obj/scene_31.rel
                                          [ scene_31 ]
C:/Users/steve/AppData/Local/Temp/_gbsbuild/obj/scene_32_actors.rel
                                          [ scene_32_actors ]
C:/Users/steve/AppData/Local/Temp/_gbsbuild/obj/scene_32_collisions.rel
                                          [ scene_32_collisions ]
C:/Users/steve/AppData/Local/Temp/_gbsbuild/obj/scene_32_init.rel
                                          [ scene_32_init ]
C:/Users/steve/AppData/Local/Temp/_gbsbuild/obj/scene_32_projectiles.rel
                                          [ scene_32_projectiles ]
C:/Users/steve/AppData/Local/Temp/_gbsbuild/obj/scene_32_sprites.rel
                                          [ scene_32_sprites ]
C:/Users/steve/AppData/Local/Temp/_gbsbuild/obj/scene_32_triggers.rel
                                          [ scene_32_triggers ]
C:/Users/steve/AppData/Local/Temp/_gbsbuild/obj/scene_32.rel
                                          [ scene_32 ]
C:/Users/steve/AppData/Local/Temp/_gbsbuild/obj/scene_33_actors.rel
                                          [ scene_33_actors ]
C:/Users/steve/AppData/Local/Temp/_gbsbuild/obj/scene_33_collisions.rel
                                          [ scene_33_collisions ]
C:/Users/steve/AppData/Local/Temp/_gbsbuild/obj/scene_33_init.rel
                                          [ scene_33_init ]
C:/Users/steve/AppData/Local/Temp/_gbsbuild/obj/scene_33_projectiles.rel
                                          [ scene_33_projectiles ]
C:/Users/steve/AppData/Local/Temp/_gbsbuild/obj/scene_33_sprites.rel
                                          [ scene_33_sprites ]
C:/Users/steve/AppData/Local/Temp/_gbsbuild/obj/scene_33_triggers.rel
                                          [ scene_33_triggers ]
C:/Users/steve/AppData/Local/Temp/_gbsbuild/obj/scene_33.rel
                                          [ scene_33 ]
C:/Users/steve/AppData/Local/Temp/_gbsbuild/obj/scene_34_collisions.rel
                                          [ scene_34_collisions ]
C:/Users/steve/AppData/Local/Temp/_gbsbuild/obj/scene_34_init.rel
                                          [ scene_34_init ]
C:/Users/steve/AppData/Local/Temp/_gbsbuild/obj/scene_34_projectiles.rel
                                          [ scene_34_projectiles ]
C:/Users/steve/AppData/Local/Temp/_gbsbuild/obj/scene_34_sprites.rel
                                          [ scene_34_sprites ]
C:/Users/steve/AppData/Local/Temp/_gbsbuild/obj/scene_34_triggers.rel
                                          [ scene_34_triggers ]
C:/Users/steve/AppData/Local/Temp/_gbsbuild/obj/scene_34.rel
                                          [ scene_34 ]
C:/Users/steve/AppData/Local/Temp/_gbsbuild/obj/scene_35_actors.rel
                                          [ scene_35_actors ]
C:/Users/steve/AppData/Local/Temp/_gbsbuild/obj/scene_35_collisions.rel
                                          [ scene_35_collisions ]
C:/Users/steve/AppData/Local/Temp/_gbsbuild/obj/scene_35_init.rel
                                          [ scene_35_init ]
C:/Users/steve/AppData/Local/Temp/_gbsbuild/obj/scene_35_p_hit1.rel
                                          [ scene_35_p_hit1 ]
C:/Users/steve/AppData/Local/Temp/_gbsbuild/obj/scene_35_projectiles.rel
                                          [ scene_35_projectiles ]
C:/Users/steve/AppData/Local/Temp/_gbsbuild/obj/scene_35_sprites.rel
                                          [ scene_35_sprites ]
C:/Users/steve/AppData/Local/Temp/_gbsbuild/obj/scene_35_triggers.rel
                                          [ scene_35_triggers ]
C:/Users/steve/AppData/Local/Temp/_gbsbuild/obj/scene_35.rel
                                          [ scene_35 ]
C:/Users/steve/AppData/Local/Temp/_gbsbuild/obj/scene_36_collisions.rel
                                          [ scene_36_collisions ]
C:/Users/steve/AppData/Local/Temp/_gbsbuild/obj/scene_36_init.rel
                                          [ scene_36_init ]
C:/Users/steve/AppData/Local/Temp/_gbsbuild/obj/scene_36_projectiles.rel
                                          [ scene_36_projectiles ]
C:/Users/steve/AppData/Local/Temp/_gbsbuild/obj/scene_36_sprites.rel
                                          [ scene_36_sprites ]
C:/Users/steve/AppData/Local/Temp/_gbsbuild/obj/scene_36_triggers.rel
                                          [ scene_36_triggers ]
C:/Users/steve/AppData/Local/Temp/_gbsbuild/obj/scene_36.rel
                                          [ scene_36 ]
C:/Users/steve/AppData/Local/Temp/_gbsbuild/obj/scene_37_collisions.rel
                                          [ scene_37_collisions ]
C:/Users/steve/AppData/Local/Temp/_gbsbuild/obj/scene_37_init.rel
                                          [ scene_37_init ]
C:/Users/steve/AppData/Local/Temp/_gbsbuild/obj/scene_37_projectiles.rel
                                          [ scene_37_projectiles ]
C:/Users/steve/AppData/Local/Temp/_gbsbuild/obj/scene_37_sprites.rel
                                          [ scene_37_sprites ]
C:/Users/steve/AppData/Local/Temp/_gbsbuild/obj/scene_37_triggers.rel
                                          [ scene_37_triggers ]
C:/Users/steve/AppData/Local/Temp/_gbsbuild/obj/scene_37.rel
                                          [ scene_37 ]
C:/Users/steve/AppData/Local/Temp/_gbsbuild/obj/scene_38_actors.rel
                                          [ scene_38_actors ]
C:/Users/steve/AppData/Local/Temp/_gbsbuild/obj/scene_38_collisions.rel
                                          [ scene_38_collisions ]
C:/Users/steve/AppData/Local/Temp/_gbsbuild/obj/scene_38_init.rel
                                          [ scene_38_init ]
C:/Users/steve/AppData/Local/Temp/_gbsbuild/obj/scene_38_projectiles.rel
                                          [ scene_38_projectiles ]
C:/Users/steve/AppData/Local/Temp/_gbsbuild/obj/scene_38_sprites.rel
                                          [ scene_38_sprites ]
C:/Users/steve/AppData/Local/Temp/_gbsbuild/obj/scene_38_triggers.rel
                                          [ scene_38_triggers ]
C:/Users/steve/AppData/Local/Temp/_gbsbuild/obj/scene_38.rel
                                          [ scene_38 ]
C:/Users/steve/AppData/Local/Temp/_gbsbuild/obj/scene_39_actors.rel
                                          [ scene_39_actors ]
C:/Users/steve/AppData/Local/Temp/_gbsbuild/obj/scene_39_collisions.rel
                                          [ scene_39_collisions ]
C:/Users/steve/AppData/Local/Temp/_gbsbuild/obj/scene_39_init.rel
                                          [ scene_39_init ]
C:/Users/steve/AppData/Local/Temp/_gbsbuild/obj/scene_39_sprites.rel
                                          [ scene_39_sprites ]
C:/Users/steve/AppData/Local/Temp/_gbsbuild/obj/scene_39.rel
                                          [ scene_39 ]
C:/Users/steve/AppData/Local/Temp/_gbsbuild/obj/scene_4_collisions.rel
                                          [ scene_4_collisions ]
C:/Users/steve/AppData/Local/Temp/_gbsbuild/obj/scene_4_init.rel
                                          [ scene_4_init ]
C:/Users/steve/AppData/Local/Temp/_gbsbuild/obj/scene_4.rel
                                          [ scene_4 ]
C:/Users/steve/AppData/Local/Temp/_gbsbuild/obj/scene_40_actors.rel
                                          [ scene_40_actors ]
C:/Users/steve/AppData/Local/Temp/_gbsbuild/obj/scene_40_collisions.rel
                                          [ scene_40_collisions ]
C:/Users/steve/AppData/Local/Temp/_gbsbuild/obj/scene_40_init.rel
                                          [ scene_40_init ]
C:/Users/steve/AppData/Local/Temp/_gbsbuild/obj/scene_40_projectiles.rel
                                          [ scene_40_projectiles ]
C:/Users/steve/AppData/Local/Temp/_gbsbuild/obj/scene_40_sprites.rel
                                          [ scene_40_sprites ]
C:/Users/steve/AppData/Local/Temp/_gbsbuild/obj/scene_40.rel
                                          [ scene_40 ]
C:/Users/steve/AppData/Local/Temp/_gbsbuild/obj/scene_41_actors.rel
                                          [ scene_41_actors ]
C:/Users/steve/AppData/Local/Temp/_gbsbuild/obj/scene_41_collisions.rel
                                          [ scene_41_collisions ]
C:/Users/steve/AppData/Local/Temp/_gbsbuild/obj/scene_41_init.rel
                                          [ scene_41_init ]
C:/Users/steve/AppData/Local/Temp/_gbsbuild/obj/scene_41_p_hit1.rel
                                          [ scene_41_p_hit1 ]
C:/Users/steve/AppData/Local/Temp/_gbsbuild/obj/scene_41_projectiles.rel
                                          [ scene_41_projectiles ]
C:/Users/steve/AppData/Local/Temp/_gbsbuild/obj/scene_41_sprites.rel
                                          [ scene_41_sprites ]
C:/Users/steve/AppData/Local/Temp/_gbsbuild/obj/scene_41.rel
                                          [ scene_41 ]
C:/Users/steve/AppData/Local/Temp/_gbsbuild/obj/scene_42_actors.rel
                                          [ scene_42_actors ]
C:/Users/steve/AppData/Local/Temp/_gbsbuild/obj/scene_42_collisions.rel
                                          [ scene_42_collisions ]
C:/Users/steve/AppData/Local/Temp/_gbsbuild/obj/scene_42_init.rel
                                          [ scene_42_init ]
C:/Users/steve/AppData/Local/Temp/_gbsbuild/obj/scene_42_projectiles.rel
                                          [ scene_42_projectiles ]
C:/Users/steve/AppData/Local/Temp/_gbsbuild/obj/scene_42_sprites.rel
                                          [ scene_42_sprites ]
C:/Users/steve/AppData/Local/Temp/_gbsbuild/obj/scene_42_triggers.rel
                                          [ scene_42_triggers ]
C:/Users/steve/AppData/Local/Temp/_gbsbuild/obj/scene_42.rel
                                          [ scene_42 ]
C:/Users/steve/AppData/Local/Temp/_gbsbuild/obj/scene_43_actors.rel
                                          [ scene_43_actors ]
C:/Users/steve/AppData/Local/Temp/_gbsbuild/obj/scene_43_collisions.rel
                                          [ scene_43_collisions ]
C:/Users/steve/AppData/Local/Temp/_gbsbuild/obj/scene_43_init.rel
                                          [ scene_43_init ]
C:/Users/steve/AppData/Local/Temp/_gbsbuild/obj/scene_43_projectiles.rel
                                          [ scene_43_projectiles ]
C:/Users/steve/AppData/Local/Temp/_gbsbuild/obj/scene_43_sprites.rel
                                          [ scene_43_sprites ]
C:/Users/steve/AppData/Local/Temp/_gbsbuild/obj/scene_43_triggers.rel
                                          [ scene_43_triggers ]
C:/Users/steve/AppData/Local/Temp/_gbsbuild/obj/scene_43.rel
                                          [ scene_43 ]
C:/Users/steve/AppData/Local/Temp/_gbsbuild/obj/scene_44_actors.rel
                                          [ scene_44_actors ]
C:/Users/steve/AppData/Local/Temp/_gbsbuild/obj/scene_44_collisions.rel
                                          [ scene_44_collisions ]
C:/Users/steve/AppData/Local/Temp/_gbsbuild/obj/scene_44_init.rel
                                          [ scene_44_init ]
C:/Users/steve/AppData/Local/Temp/_gbsbuild/obj/scene_44_projectiles.rel
                                          [ scene_44_projectiles ]
C:/Users/steve/AppData/Local/Temp/_gbsbuild/obj/scene_44_sprites.rel
                                          [ scene_44_sprites ]
C:/Users/steve/AppData/Local/Temp/_gbsbuild/obj/scene_44_triggers.rel
                                          [ scene_44_triggers ]
C:/Users/steve/AppData/Local/Temp/_gbsbuild/obj/scene_44.rel
                                          [ scene_44 ]
C:/Users/steve/AppData/Local/Temp/_gbsbuild/obj/scene_45_actors.rel
                                          [ scene_45_actors ]
C:/Users/steve/AppData/Local/Temp/_gbsbuild/obj/scene_45_collisions.rel
                                          [ scene_45_collisions ]
C:/Users/steve/AppData/Local/Temp/_gbsbuild/obj/scene_45_init.rel
                                          [ scene_45_init ]
C:/Users/steve/AppData/Local/Temp/_gbsbuild/obj/scene_45_p_hit1.rel
                                          [ scene_45_p_hit1 ]
C:/Users/steve/AppData/Local/Temp/_gbsbuild/obj/scene_45_projectiles.rel
                                          [ scene_45_projectiles ]
C:/Users/steve/AppData/Local/Temp/_gbsbuild/obj/scene_45_sprites.rel
                                          [ scene_45_sprites ]
C:/Users/steve/AppData/Local/Temp/_gbsbuild/obj/scene_45_triggers.rel
                                          [ scene_45_triggers ]
C:/Users/steve/AppData/Local/Temp/_gbsbuild/obj/scene_45.rel
                                          [ scene_45 ]
C:/Users/steve/AppData/Local/Temp/_gbsbuild/obj/scene_46_collisions.rel
                                          [ scene_46_collisions ]
C:/Users/steve/AppData/Local/Temp/_gbsbuild/obj/scene_46_init.rel
                                          [ scene_46_init ]
C:/Users/steve/AppData/Local/Temp/_gbsbuild/obj/scene_46_projectiles.rel
                                          [ scene_46_projectiles ]
C:/Users/steve/AppData/Local/Temp/_gbsbuild/obj/scene_46_sprites.rel
                                          [ scene_46_sprites ]
C:/Users/steve/AppData/Local/Temp/_gbsbuild/obj/scene_46_triggers.rel
                                          [ scene_46_triggers ]
C:/Users/steve/AppData/Local/Temp/_gbsbuild/obj/scene_46.rel
                                          [ scene_46 ]
C:/Users/steve/AppData/Local/Temp/_gbsbuild/obj/scene_47_actors.rel
                                          [ scene_47_actors ]
C:/Users/steve/AppData/Local/Temp/_gbsbuild/obj/scene_47_collisions.rel
                                          [ scene_47_collisions ]
C:/Users/steve/AppData/Local/Temp/_gbsbuild/obj/scene_47_init.rel
                                          [ scene_47_init ]
C:/Users/steve/AppData/Local/Temp/_gbsbuild/obj/scene_47_p_hit1.rel
                                          [ scene_47_p_hit1 ]
C:/Users/steve/AppData/Local/Temp/_gbsbuild/obj/scene_47_projectiles.rel
                                          [ scene_47_projectiles ]
C:/Users/steve/AppData/Local/Temp/_gbsbuild/obj/scene_47_sprites.rel
                                          [ scene_47_sprites ]
C:/Users/steve/AppData/Local/Temp/_gbsbuild/obj/scene_47_triggers.rel
                                          [ scene_47_triggers ]
C:/Users/steve/AppData/Local/Temp/_gbsbuild/obj/scene_47.rel
                                          [ scene_47 ]
C:/Users/steve/AppData/Local/Temp/_gbsbuild/obj/scene_48_collisions.rel
                                          [ scene_48_collisions ]
C:/Users/steve/AppData/Local/Temp/_gbsbuild/obj/scene_48_init.rel
                                          [ scene_48_init ]
C:/Users/steve/AppData/Local/Temp/_gbsbuild/obj/scene_48_projectiles.rel
                                          [ scene_48_projectiles ]
C:/Users/steve/AppData/Local/Temp/_gbsbuild/obj/scene_48_sprites.rel
                                          [ scene_48_sprites ]
C:/Users/steve/AppData/Local/Temp/_gbsbuild/obj/scene_48_triggers.rel
                                          [ scene_48_triggers ]
C:/Users/steve/AppData/Local/Temp/_gbsbuild/obj/scene_48.rel
                                          [ scene_48 ]
C:/Users/steve/AppData/Local/Temp/_gbsbuild/obj/scene_49_collisions.rel
                                          [ scene_49_collisions ]
C:/Users/steve/AppData/Local/Temp/_gbsbuild/obj/scene_49_init.rel
                                          [ scene_49_init ]
C:/Users/steve/AppData/Local/Temp/_gbsbuild/obj/scene_49_projectiles.rel
                                          [ scene_49_projectiles ]
C:/Users/steve/AppData/Local/Temp/_gbsbuild/obj/scene_49_sprites.rel
                                          [ scene_49_sprites ]
C:/Users/steve/AppData/Local/Temp/_gbsbuild/obj/scene_49_triggers.rel
                                          [ scene_49_triggers ]
C:/Users/steve/AppData/Local/Temp/_gbsbuild/obj/scene_49.rel
                                          [ scene_49 ]
C:/Users/steve/AppData/Local/Temp/_gbsbuild/obj/scene_5_collisions.rel
                                          [ scene_5_collisions ]
C:/Users/steve/AppData/Local/Temp/_gbsbuild/obj/scene_5_init.rel
                                          [ scene_5_init ]
C:/Users/steve/AppData/Local/Temp/_gbsbuild/obj/scene_5.rel
                                          [ scene_5 ]
C:/Users/steve/AppData/Local/Temp/_gbsbuild/obj/scene_50_collisions.rel
                                          [ scene_50_collisions ]
C:/Users/steve/AppData/Local/Temp/_gbsbuild/obj/scene_50_init.rel
                                          [ scene_50_init ]
C:/Users/steve/AppData/Local/Temp/_gbsbuild/obj/scene_50_projectiles.rel
                                          [ scene_50_projectiles ]
C:/Users/steve/AppData/Local/Temp/_gbsbuild/obj/scene_50_sprites.rel
                                          [ scene_50_sprites ]
C:/Users/steve/AppData/Local/Temp/_gbsbuild/obj/scene_50_triggers.rel
                                          [ scene_50_triggers ]
C:/Users/steve/AppData/Local/Temp/_gbsbuild/obj/scene_50.rel
                                          [ scene_50 ]
C:/Users/steve/AppData/Local/Temp/_gbsbuild/obj/scene_51_actors.rel
                                          [ scene_51_actors ]
C:/Users/steve/AppData/Local/Temp/_gbsbuild/obj/scene_51_collisions.rel
                                          [ scene_51_collisions ]
C:/Users/steve/AppData/Local/Temp/_gbsbuild/obj/scene_51_init.rel
                                          [ scene_51_init ]
C:/Users/steve/AppData/Local/Temp/_gbsbuild/obj/scene_51_p_hit1.rel
                                          [ scene_51_p_hit1 ]
C:/Users/steve/AppData/Local/Temp/_gbsbuild/obj/scene_51_projectiles.rel
                                          [ scene_51_projectiles ]
C:/Users/steve/AppData/Local/Temp/_gbsbuild/obj/scene_51_sprites.rel
                                          [ scene_51_sprites ]
C:/Users/steve/AppData/Local/Temp/_gbsbuild/obj/scene_51_triggers.rel
                                          [ scene_51_triggers ]
C:/Users/steve/AppData/Local/Temp/_gbsbuild/obj/scene_51.rel
                                          [ scene_51 ]
C:/Users/steve/AppData/Local/Temp/_gbsbuild/obj/scene_52_actors.rel
                                          [ scene_52_actors ]
C:/Users/steve/AppData/Local/Temp/_gbsbuild/obj/scene_52_collisions.rel
                                          [ scene_52_collisions ]
C:/Users/steve/AppData/Local/Temp/_gbsbuild/obj/scene_52_init.rel
                                          [ scene_52_init ]
C:/Users/steve/AppData/Local/Temp/_gbsbuild/obj/scene_52_sprites.rel
                                          [ scene_52_sprites ]
C:/Users/steve/AppData/Local/Temp/_gbsbuild/obj/scene_52.rel
                                          [ scene_52 ]
C:/Users/steve/AppData/Local/Temp/_gbsbuild/obj/scene_53_actors.rel
                                          [ scene_53_actors ]
C:/Users/steve/AppData/Local/Temp/_gbsbuild/obj/scene_53_collisions.rel
                                          [ scene_53_collisions ]
C:/Users/steve/AppData/Local/Temp/_gbsbuild/obj/scene_53_init.rel
                                          [ scene_53_init ]
C:/Users/steve/AppData/Local/Temp/_gbsbuild/obj/scene_53_sprites.rel
                                          [ scene_53_sprites ]
C:/Users/steve/AppData/Local/Temp/_gbsbuild/obj/scene_53.rel
                                          [ scene_53 ]
C:/Users/steve/AppData/Local/Temp/_gbsbuild/obj/scene_54_actors.rel
                                          [ scene_54_actors ]
C:/Users/steve/AppData/Local/Temp/_gbsbuild/obj/scene_54_collisions.rel
                                          [ scene_54_collisions ]
C:/Users/steve/AppData/Local/Temp/_gbsbuild/obj/scene_54_init.rel
                                          [ scene_54_init ]
C:/Users/steve/AppData/Local/Temp/_gbsbuild/obj/scene_54_projectiles.rel
                                          [ scene_54_projectiles ]
C:/Users/steve/AppData/Local/Temp/_gbsbuild/obj/scene_54_sprites.rel
                                          [ scene_54_sprites ]
C:/Users/steve/AppData/Local/Temp/_gbsbuild/obj/scene_54_triggers.rel
                                          [ scene_54_triggers ]
C:/Users/steve/AppData/Local/Temp/_gbsbuild/obj/scene_54.rel
                                          [ scene_54 ]
C:/Users/steve/AppData/Local/Temp/_gbsbuild/obj/scene_55_actors.rel
                                          [ scene_55_actors ]
C:/Users/steve/AppData/Local/Temp/_gbsbuild/obj/scene_55_collisions.rel
                                          [ scene_55_collisions ]
C:/Users/steve/AppData/Local/Temp/_gbsbuild/obj/scene_55_init.rel
                                          [ scene_55_init ]
C:/Users/steve/AppData/Local/Temp/_gbsbuild/obj/scene_55_projectiles.rel
                                          [ scene_55_projectiles ]
C:/Users/steve/AppData/Local/Temp/_gbsbuild/obj/scene_55_sprites.rel
                                          [ scene_55_sprites ]
C:/Users/steve/AppData/Local/Temp/_gbsbuild/obj/scene_55_triggers.rel
                                          [ scene_55_triggers ]
C:/Users/steve/AppData/Local/Temp/_gbsbuild/obj/scene_55.rel
                                          [ scene_55 ]
C:/Users/steve/AppData/Local/Temp/_gbsbuild/obj/scene_6_actors.rel
                                          [ scene_6_actors ]
C:/Users/steve/AppData/Local/Temp/_gbsbuild/obj/scene_6_collisions.rel
                                          [ scene_6_collisions ]
C:/Users/steve/AppData/Local/Temp/_gbsbuild/obj/scene_6_init.rel
                                          [ scene_6_init ]
C:/Users/steve/AppData/Local/Temp/_gbsbuild/obj/scene_6_sprites.rel
                                          [ scene_6_sprites ]
C:/Users/steve/AppData/Local/Temp/_gbsbuild/obj/scene_6.rel
                                          [ scene_6 ]
C:/Users/steve/AppData/Local/Temp/_gbsbuild/obj/scene_7_collisions.rel
                                          [ scene_7_collisions ]
C:/Users/steve/AppData/Local/Temp/_gbsbuild/obj/scene_7_init.rel
                                          [ scene_7_init ]
C:/Users/steve/AppData/Local/Temp/_gbsbuild/obj/scene_7.rel
                                          [ scene_7 ]
C:/Users/steve/AppData/Local/Temp/_gbsbuild/obj/scene_8_collisions.rel
                                          [ scene_8_collisions ]
C:/Users/steve/AppData/Local/Temp/_gbsbuild/obj/scene_8_init.rel
                                          [ scene_8_init ]
C:/Users/steve/AppData/Local/Temp/_gbsbuild/obj/scene_8_projectiles.rel
                                          [ scene_8_projectiles ]
C:/Users/steve/AppData/Local/Temp/_gbsbuild/obj/scene_8_sprites.rel
                                          [ scene_8_sprites ]
C:/Users/steve/AppData/Local/Temp/_gbsbuild/obj/scene_8_triggers.rel
                                          [ scene_8_triggers ]
C:/Users/steve/AppData/Local/Temp/_gbsbuild/obj/scene_8.rel
                                          [ scene_8 ]
C:/Users/steve/AppData/Local/Temp/_gbsbuild/obj/scene_9_collisions.rel
                                          [ scene_9_collisions ]
C:/Users/steve/AppData/Local/Temp/_gbsbuild/obj/scene_9_init.rel
                                          [ scene_9_init ]
C:/Users/steve/AppData/Local/Temp/_gbsbuild/obj/scene_9_projectiles.rel
                                          [ scene_9_projectiles ]
C:/Users/steve/AppData/Local/Temp/_gbsbuild/obj/scene_9_sprites.rel
                                          [ scene_9_sprites ]
C:/Users/steve/AppData/Local/Temp/_gbsbuild/obj/scene_9_triggers.rel
                                          [ scene_9_triggers ]
C:/Users/steve/AppData/Local/Temp/_gbsbuild/obj/scene_9.rel
                                          [ scene_9 ]
C:/Users/steve/AppData/Local/Temp/_gbsbuild/obj/script_1.rel
                                          [ script_1 ]
C:/Users/steve/AppData/Local/Temp/_gbsbuild/obj/script_10.rel
                                          [ script_10 ]
C:/Users/steve/AppData/Local/Temp/_gbsbuild/obj/script_11.rel
                                          [ script_11 ]
C:/Users/steve/AppData/Local/Temp/_gbsbuild/obj/script_12.rel
                                          [ script_12 ]
C:/Users/steve/AppData/Local/Temp/_gbsbuild/obj/script_13.rel
                                          [ script_13 ]
C:/Users/steve/AppData/Local/Temp/_gbsbuild/obj/script_14.rel
                                          [ script_14 ]
C:/Users/steve/AppData/Local/Temp/_gbsbuild/obj/script_2.rel
                                          [ script_2 ]
C:/Users/steve/AppData/Local/Temp/_gbsbuild/obj/script_3.rel
                                          [ script_3 ]
C:/Users/steve/AppData/Local/Temp/_gbsbuild/obj/script_4.rel
                                          [ script_4 ]
C:/Users/steve/AppData/Local/Temp/_gbsbuild/obj/script_5.rel
                                          [ script_5 ]
C:/Users/steve/AppData/Local/Temp/_gbsbuild/obj/script_6.rel
                                          [ script_6 ]
C:/Users/steve/AppData/Local/Temp/_gbsbuild/obj/script_7.rel
                                          [ script_7 ]
C:/Users/steve/AppData/Local/Temp/_gbsbuild/obj/script_8.rel
                                          [ script_8 ]
C:/Users/steve/AppData/Local/Temp/_gbsbuild/obj/script_9.rel
                                          [ script_9 ]
C:/Users/steve/AppData/Local/Temp/_gbsbuild/obj/script_engine_init.rel
                                          [  ]
C:/Users/steve/AppData/Local/Temp/_gbsbuild/obj/script_input_0.rel
                                          [ script_input_0 ]
C:/Users/steve/AppData/Local/Temp/_gbsbuild/obj/script_input_1.rel
                                          [ script_input_1 ]
C:/Users/steve/AppData/Local/Temp/_gbsbuild/obj/script_input_10.rel
                                          [ script_input_10 ]
C:/Users/steve/AppData/Local/Temp/_gbsbuild/obj/script_input_11.rel
                                          [ script_input_11 ]
C:/Users/steve/AppData/Local/Temp/_gbsbuild/obj/script_input_12.rel
                                          [ script_input_12 ]
C:/Users/steve/AppData/Local/Temp/_gbsbuild/obj/script_input_13.rel
                                          [ script_input_13 ]
C:/Users/steve/AppData/Local/Temp/_gbsbuild/obj/script_input_14.rel
                                          [ script_input_14 ]
C:/Users/steve/AppData/Local/Temp/_gbsbuild/obj/script_input_15.rel
                                          [ script_input_15 ]
C:/Users/steve/AppData/Local/Temp/_gbsbuild/obj/script_input_16.rel
                                          [ script_input_16 ]
C:/Users/steve/AppData/Local/Temp/_gbsbuild/obj/script_input_17.rel
                                          [ script_input_17 ]
C:/Users/steve/AppData/Local/Temp/_gbsbuild/obj/script_input_18.rel
                                          [ script_input_18 ]
C:/Users/steve/AppData/Local/Temp/_gbsbuild/obj/script_input_19.rel
                                          [ script_input_19 ]
C:/Users/steve/AppData/Local/Temp/_gbsbuild/obj/script_input_2.rel
                                          [ script_input_2 ]
C:/Users/steve/AppData/Local/Temp/_gbsbuild/obj/script_input_20.rel
                                          [ script_input_20 ]
C:/Users/steve/AppData/Local/Temp/_gbsbuild/obj/script_input_21.rel
                                          [ script_input_21 ]
C:/Users/steve/AppData/Local/Temp/_gbsbuild/obj/script_input_22.rel
                                          [ script_input_22 ]
C:/Users/steve/AppData/Local/Temp/_gbsbuild/obj/script_input_23.rel
                                          [ script_input_23 ]
C:/Users/steve/AppData/Local/Temp/_gbsbuild/obj/script_input_24.rel
                                          [ script_input_24 ]
C:/Users/steve/AppData/Local/Temp/_gbsbuild/obj/script_input_25.rel
                                          [ script_input_25 ]
C:/Users/steve/AppData/Local/Temp/_gbsbuild/obj/script_input_26.rel
                                          [ script_input_26 ]
C:/Users/steve/AppData/Local/Temp/_gbsbuild/obj/script_input_27.rel
                                          [ script_input_27 ]
C:/Users/steve/AppData/Local/Temp/_gbsbuild/obj/script_input_28.rel
                                          [ script_input_28 ]
C:/Users/steve/AppData/Local/Temp/_gbsbuild/obj/script_input_29.rel
                                          [ script_input_29 ]
C:/Users/steve/AppData/Local/Temp/_gbsbuild/obj/script_input_3.rel
                                          [ script_input_3 ]
C:/Users/steve/AppData/Local/Temp/_gbsbuild/obj/script_input_30.rel
                                          [ script_input_30 ]
C:/Users/steve/AppData/Local/Temp/_gbsbuild/obj/script_input_31.rel
                                          [ script_input_31 ]
C:/Users/steve/AppData/Local/Temp/_gbsbuild/obj/script_input_32.rel
                                          [ script_input_32 ]
C:/Users/steve/AppData/Local/Temp/_gbsbuild/obj/script_input_33.rel
                                          [ script_input_33 ]
C:/Users/steve/AppData/Local/Temp/_gbsbuild/obj/script_input_4.rel
                                          [ script_input_4 ]
C:/Users/steve/AppData/Local/Temp/_gbsbuild/obj/script_input_5.rel
                                          [ script_input_5 ]
C:/Users/steve/AppData/Local/Temp/_gbsbuild/obj/script_input_6.rel
                                          [ script_input_6 ]
C:/Users/steve/AppData/Local/Temp/_gbsbuild/obj/script_input_7.rel
                                          [ script_input_7 ]
C:/Users/steve/AppData/Local/Temp/_gbsbuild/obj/script_input_8.rel
                                          [ script_input_8 ]
C:/Users/steve/AppData/Local/Temp/_gbsbuild/obj/script_input_9.rel
                                          [ script_input_9 ]
C:/Users/steve/AppData/Local/Temp/_gbsbuild/obj/script_timer_0.rel
                                          [ script_timer_0 ]
C:/Users/steve/AppData/Local/Temp/_gbsbuild/obj/script_timer_1.rel
                                          [ script_timer_1 ]
C:/Users/steve/AppData/Local/Temp/_gbsbuild/obj/script_timer_10.rel
                                          [ script_timer_10 ]
C:/Users/steve/AppData/Local/Temp/_gbsbuild/obj/script_timer_11.rel
                                          [ script_timer_11 ]
C:/Users/steve/AppData/Local/Temp/_gbsbuild/obj/script_timer_12.rel
                                          [ script_timer_12 ]
C:/Users/steve/AppData/Local/Temp/_gbsbuild/obj/script_timer_13.rel
                                          [ script_timer_13 ]
C:/Users/steve/AppData/Local/Temp/_gbsbuild/obj/script_timer_14.rel
                                          [ script_timer_14 ]
C:/Users/steve/AppData/Local/Temp/_gbsbuild/obj/script_timer_15.rel
                                          [ script_timer_15 ]
C:/Users/steve/AppData/Local/Temp/_gbsbuild/obj/script_timer_16.rel
                                          [ script_timer_16 ]
C:/Users/steve/AppData/Local/Temp/_gbsbuild/obj/script_timer_17.rel
                                          [ script_timer_17 ]
C:/Users/steve/AppData/Local/Temp/_gbsbuild/obj/script_timer_18.rel
                                          [ script_timer_18 ]
C:/Users/steve/AppData/Local/Temp/_gbsbuild/obj/script_timer_19.rel
                                          [ script_timer_19 ]
C:/Users/steve/AppData/Local/Temp/_gbsbuild/obj/script_timer_2.rel
                                          [ script_timer_2 ]
C:/Users/steve/AppData/Local/Temp/_gbsbuild/obj/script_timer_20.rel
                                          [ script_timer_20 ]
C:/Users/steve/AppData/Local/Temp/_gbsbuild/obj/script_timer_21.rel
                                          [ script_timer_21 ]
C:/Users/steve/AppData/Local/Temp/_gbsbuild/obj/script_timer_22.rel
                                          [ script_timer_22 ]
C:/Users/steve/AppData/Local/Temp/_gbsbuild/obj/script_timer_23.rel
                                          [ script_timer_23 ]
C:/Users/steve/AppData/Local/Temp/_gbsbuild/obj/script_timer_24.rel
                                          [ script_timer_24 ]
C:/Users/steve/AppData/Local/Temp/_gbsbuild/obj/script_timer_25.rel
                                          [ script_timer_25 ]
C:/Users/steve/AppData/Local/Temp/_gbsbuild/obj/script_timer_26.rel
                                          [ script_timer_26 ]
C:/Users/steve/AppData/Local/Temp/_gbsbuild/obj/script_timer_27.rel
                                          [ script_timer_27 ]
C:/Users/steve/AppData/Local/Temp/_gbsbuild/obj/script_timer_28.rel
                                          [ script_timer_28 ]
C:/Users/steve/AppData/Local/Temp/_gbsbuild/obj/script_timer_29.rel
                                          [ script_timer_29 ]
C:/Users/steve/AppData/Local/Temp/_gbsbuild/obj/script_timer_3.rel
                                          [ script_timer_3 ]
C:/Users/steve/AppData/Local/Temp/_gbsbuild/obj/script_timer_30.rel
                                          [ script_timer_30 ]
C:/Users/steve/AppData/Local/Temp/_gbsbuild/obj/script_timer_31.rel
                                          [ script_timer_31 ]
C:/Users/steve/AppData/Local/Temp/_gbsbuild/obj/script_timer_32.rel
                                          [ script_timer_32 ]
C:/Users/steve/AppData/Local/Temp/_gbsbuild/obj/script_timer_33.rel
                                          [ script_timer_33 ]
C:/Users/steve/AppData/Local/Temp/_gbsbuild/obj/script_timer_34.rel
                                          [ script_timer_34 ]
C:/Users/steve/AppData/Local/Temp/_gbsbuild/obj/script_timer_35.rel
                                          [ script_timer_35 ]
C:/Users/steve/AppData/Local/Temp/_gbsbuild/obj/script_timer_36.rel
                                          [ script_timer_36 ]
C:/Users/steve/AppData/Local/Temp/_gbsbuild/obj/script_timer_37.rel
                                          [ script_timer_37 ]
C:/Users/steve/AppData/Local/Temp/_gbsbuild/obj/script_timer_38.rel
                                          [ script_timer_38 ]
C:/Users/steve/AppData/Local/Temp/_gbsbuild/obj/script_timer_39.rel
                                          [ script_timer_39 ]
C:/Users/steve/AppData/Local/Temp/_gbsbuild/obj/script_timer_4.rel
                                          [ script_timer_4 ]
C:/Users/steve/AppData/Local/Temp/_gbsbuild/obj/script_timer_40.rel
                                          [ script_timer_40 ]
C:/Users/steve/AppData/Local/Temp/_gbsbuild/obj/script_timer_41.rel
                                          [ script_timer_41 ]
C:/Users/steve/AppData/Local/Temp/_gbsbuild/obj/script_timer_42.rel
                                          [ script_timer_42 ]
C:/Users/steve/AppData/Local/Temp/_gbsbuild/obj/script_timer_43.rel
                                          [ script_timer_43 ]
C:/Users/steve/AppData/Local/Temp/_gbsbuild/obj/script_timer_44.rel
                                          [ script_timer_44 ]
C:/Users/steve/AppData/Local/Temp/_gbsbuild/obj/script_timer_45.rel
                                          [ script_timer_45 ]
C:/Users/steve/AppData/Local/Temp/_gbsbuild/obj/script_timer_46.rel
                                          [ script_timer_46 ]
C:/Users/steve/AppData/Local/Temp/_gbsbuild/obj/script_timer_47.rel
                                          [ script_timer_47 ]
C:/Users/steve/AppData/Local/Temp/_gbsbuild/obj/script_timer_48.rel
                                          [ script_timer_48 ]
C:/Users/steve/AppData/Local/Temp/_gbsbuild/obj/script_timer_49.rel
                                          [ script_timer_49 ]
C:/Users/steve/AppData/Local/Temp/_gbsbuild/obj/script_timer_5.rel
                                          [ script_timer_5 ]
C:/Users/steve/AppData/Local/Temp/_gbsbuild/obj/script_timer_50.rel
                                          [ script_timer_50 ]
C:/Users/steve/AppData/Local/Temp/_gbsbuild/obj/script_timer_51.rel
                                          [ script_timer_51 ]
C:/Users/steve/AppData/Local/Temp/_gbsbuild/obj/script_timer_52.rel
                                          [ script_timer_52 ]
C:/Users/steve/AppData/Local/Temp/_gbsbuild/obj/script_timer_53.rel
                                          [ script_timer_53 ]
C:/Users/steve/AppData/Local/Temp/_gbsbuild/obj/script_timer_54.rel
                                          [ script_timer_54 ]
C:/Users/steve/AppData/Local/Temp/_gbsbuild/obj/script_timer_55.rel
                                          [ script_timer_55 ]
C:/Users/steve/AppData/Local/Temp/_gbsbuild/obj/script_timer_56.rel
                                          [ script_timer_56 ]
C:/Users/steve/AppData/Local/Temp/_gbsbuild/obj/script_timer_57.rel
                                          [ script_timer_57 ]
C:/Users/steve/AppData/Local/Temp/_gbsbuild/obj/script_timer_58.rel
                                          [ script_timer_58 ]
C:/Users/steve/AppData/Local/Temp/_gbsbuild/obj/script_timer_59.rel
                                          [ script_timer_59 ]
C:/Users/steve/AppData/Local/Temp/_gbsbuild/obj/script_timer_6.rel
                                          [ script_timer_6 ]
C:/Users/steve/AppData/Local/Temp/_gbsbuild/obj/script_timer_60.rel
                                          [ script_timer_60 ]
C:/Users/steve/AppData/Local/Temp/_gbsbuild/obj/script_timer_61.rel
                                          [ script_timer_61 ]
C:/Users/steve/AppData/Local/Temp/_gbsbuild/obj/script_timer_62.rel
                                          [ script_timer_62 ]
C:/Users/steve/AppData/Local/Temp/_gbsbuild/obj/script_timer_63.rel
                                          [ script_timer_63 ]
C:/Users/steve/AppData/Local/Temp/_gbsbuild/obj/script_timer_64.rel
                                          [ script_timer_64 ]
C:/Users/steve/AppData/Local/Temp/_gbsbuild/obj/script_timer_65.rel
                                          [ script_timer_65 ]
C:/Users/steve/AppData/Local/Temp/_gbsbuild/obj/script_timer_66.rel
                                          [ script_timer_66 ]
C:/Users/steve/AppData/Local/Temp/_gbsbuild/obj/script_timer_67.rel
                                          [ script_timer_67 ]
C:/Users/steve/AppData/Local/Temp/_gbsbuild/obj/script_timer_68.rel
                                          [ script_timer_68 ]
C:/Users/steve/AppData/Local/Temp/_gbsbuild/obj/script_timer_69.rel
                                          [ script_timer_69 ]
C:/Users/steve/AppData/Local/Temp/_gbsbuild/obj/script_timer_7.rel
                                          [ script_timer_7 ]
C:/Users/steve/AppData/Local/Temp/_gbsbuild/obj/script_timer_70.rel
                                          [ script_timer_70 ]
C:/Users/steve/AppData/Local/Temp/_gbsbuild/obj/script_timer_71.rel
                                          [ script_timer_71 ]
C:/Users/steve/AppData/Local/Temp/_gbsbuild/obj/script_timer_72.rel
                                          [ script_timer_72 ]
C:/Users/steve/AppData/Local/Temp/_gbsbuild/obj/script_timer_73.rel
                                          [ script_timer_73 ]
C:/Users/steve/AppData/Local/Temp/_gbsbuild/obj/script_timer_74.rel
                                          [ script_timer_74 ]
C:/Users/steve/AppData/Local/Temp/_gbsbuild/obj/script_timer_75.rel
                                          [ script_timer_75 ]
C:/Users/steve/AppData/Local/Temp/_gbsbuild/obj/script_timer_76.rel
                                          [ script_timer_76 ]
C:/Users/steve/AppData/Local/Temp/_gbsbuild/obj/script_timer_77.rel
                                          [ script_timer_77 ]
C:/Users/steve/AppData/Local/Temp/_gbsbuild/obj/script_timer_78.rel
                                          [ script_timer_78 ]
C:/Users/steve/AppData/Local/Temp/_gbsbuild/obj/script_timer_79.rel
                                          [ script_timer_79 ]
C:/Users/steve/AppData/Local/Temp/_gbsbuild/obj/script_timer_8.rel
                                          [ script_timer_8 ]
C:/Users/steve/AppData/Local/Temp/_gbsbuild/obj/script_timer_80.rel
                                          [ script_timer_80 ]
C:/Users/steve/AppData/Local/Temp/_gbsbuild/obj/script_timer_81.rel
                                          [ script_timer_81 ]
C:/Users/steve/AppData/Local/Temp/_gbsbuild/obj/script_timer_82.rel
                                          [ script_timer_82 ]
C:/Users/steve/AppData/Local/Temp/_gbsbuild/obj/script_timer_83.rel
                                          [ script_timer_83 ]
C:/Users/steve/AppData/Local/Temp/_gbsbuild/obj/script_timer_84.rel
                                          [ script_timer_84 ]
C:/Users/steve/AppData/Local/Temp/_gbsbuild/obj/script_timer_85.rel
                                          [ script_timer_85 ]
C:/Users/steve/AppData/Local/Temp/_gbsbuild/obj/script_timer_86.rel
                                          [ script_timer_86 ]
C:/Users/steve/AppData/Local/Temp/_gbsbuild/obj/script_timer_87.rel
                                          [ script_timer_87 ]
C:/Users/steve/AppData/Local/Temp/_gbsbuild/obj/script_timer_88.rel
                                          [ script_timer_88 ]
C:/Users/steve/AppData/Local/Temp/_gbsbuild/obj/script_timer_89.rel
                                          [ script_timer_89 ]
C:/Users/steve/AppData/Local/Temp/_gbsbuild/obj/script_timer_9.rel
                                          [ script_timer_9 ]
C:/Users/steve/AppData/Local/Temp/_gbsbuild/obj/script_timer_90.rel
                                          [ script_timer_90 ]
C:/Users/steve/AppData/Local/Temp/_gbsbuild/obj/script_timer_91.rel
                                          [ script_timer_91 ]
C:/Users/steve/AppData/Local/Temp/_gbsbuild/obj/script_timer_92.rel
                                          [ script_timer_92 ]
C:/Users/steve/AppData/Local/Temp/_gbsbuild/obj/script_timer_93.rel
                                          [ script_timer_93 ]
C:/Users/steve/AppData/Local/Temp/_gbsbuild/obj/script_timer_94.rel
                                          [ script_timer_94 ]
C:/Users/steve/AppData/Local/Temp/_gbsbuild/obj/script_timer_95.rel
                                          [ script_timer_95 ]
C:/Users/steve/AppData/Local/Temp/_gbsbuild/obj/script_timer_96.rel
                                          [ script_timer_96 ]
C:/Users/steve/AppData/Local/Temp/_gbsbuild/obj/sprite_actor_animated_tileset.rel
                                          [ sprite_actor_animated_tileset ]
C:/Users/steve/AppData/Local/Temp/_gbsbuild/obj/sprite_actor_animated.rel
                                          [ sprite_actor_animated ]
C:/Users/steve/AppData/Local/Temp/_gbsbuild/obj/sprite_bullet_tileset.rel
                                          [ sprite_bullet_tileset ]
C:/Users/steve/AppData/Local/Temp/_gbsbuild/obj/sprite_bullet.rel
                                          [ sprite_bullet ]
C:/Users/steve/AppData/Local/Temp/_gbsbuild/obj/sprite_cedric_copy_tileset.rel
                                          [ sprite_cedric_copy_tileset ]
C:/Users/steve/AppData/Local/Temp/_gbsbuild/obj/sprite_cedric_copy.rel
                                          [ sprite_cedric_copy ]
C:/Users/steve/AppData/Local/Temp/_gbsbuild/obj/sprite_cedric_dust_tileset.rel
                                          [ sprite_cedric_dust_tileset ]
C:/Users/steve/AppData/Local/Temp/_gbsbuild/obj/sprite_cedric_dust.rel
                                          [ sprite_cedric_dust ]
C:/Users/steve/AppData/Local/Temp/_gbsbuild/obj/sprite_cedric_tileset.rel
                                          [ sprite_cedric_tileset ]
C:/Users/steve/AppData/Local/Temp/_gbsbuild/obj/sprite_cedric.rel
                                          [ sprite_cedric ]
C:/Users/steve/AppData/Local/Temp/_gbsbuild/obj/sprite_ember_dragon_copy_tileset.rel
                                          [ sprite_ember_dragon_copy_tileset ]
C:/Users/steve/AppData/Local/Temp/_gbsbuild/obj/sprite_ember_dragon_copy.rel
                                          [ sprite_ember_dragon_copy ]
C:/Users/steve/AppData/Local/Temp/_gbsbuild/obj/sprite_ember_foxphoenix_tileset.rel
                                          [ sprite_ember_foxphoenix_tileset ]
C:/Users/steve/AppData/Local/Temp/_gbsbuild/obj/sprite_ember_foxphoenix.rel
                                          [ sprite_ember_foxphoenix ]
C:/Users/steve/AppData/Local/Temp/_gbsbuild/obj/sprite_ember_phoenix_copy_tileset.rel
                                          [ sprite_ember_phoenix_copy_tilese ]
C:/Users/steve/AppData/Local/Temp/_gbsbuild/obj/sprite_ember_phoenix_copy.rel
                                          [ sprite_ember_phoenix_copy ]
C:/Users/steve/AppData/Local/Temp/_gbsbuild/obj/sprite_ember_phoenix_topdow_tileset.rel
                                          [ sprite_ember_phoenix_topdow_tile ]
C:/Users/steve/AppData/Local/Temp/_gbsbuild/obj/sprite_ember_phoenix_topdow.rel
                                          [ sprite_ember_phoenix_topdow ]
C:/Users/steve/AppData/Local/Temp/_gbsbuild/obj/sprite_ember_stationary_tileset.rel
                                          [ sprite_ember_stationary_tileset ]
C:/Users/steve/AppData/Local/Temp/_gbsbuild/obj/sprite_ember_stationary.rel
                                          [ sprite_ember_stationary ]
C:/Users/steve/AppData/Local/Temp/_gbsbuild/obj/sprite_feather_tileset.rel
                                          [ sprite_feather_tileset ]
C:/Users/steve/AppData/Local/Temp/_gbsbuild/obj/sprite_feather.rel
                                          [ sprite_feather ]
C:/Users/steve/AppData/Local/Temp/_gbsbuild/obj/sprite_flame_whip_tileset.rel
                                          [ sprite_flame_whip_tileset ]
C:/Users/steve/AppData/Local/Temp/_gbsbuild/obj/sprite_flame_whip.rel
                                          [ sprite_flame_whip ]
C:/Users/steve/AppData/Local/Temp/_gbsbuild/obj/sprite_flare_static_tileset.rel
                                          [ sprite_flare_static_tileset ]
C:/Users/steve/AppData/Local/Temp/_gbsbuild/obj/sprite_flare_static.rel
                                          [ sprite_flare_static ]
C:/Users/steve/AppData/Local/Temp/_gbsbuild/obj/sprite_foxberry_ui_tileset.rel
                                          [ sprite_foxberry_ui_tileset ]
C:/Users/steve/AppData/Local/Temp/_gbsbuild/obj/sprite_foxberry_ui.rel
                                          [ sprite_foxberry_ui ]
C:/Users/steve/AppData/Local/Temp/_gbsbuild/obj/sprite_jem_animated_0_tileset.rel
                                          [ sprite_jem_animated_0_tileset ]
C:/Users/steve/AppData/Local/Temp/_gbsbuild/obj/sprite_jem_animated_0.rel
                                          [ sprite_jem_animated_0 ]
C:/Users/steve/AppData/Local/Temp/_gbsbuild/obj/sprite_jem_animated_tileset.rel
                                          [ sprite_jem_animated_tileset ]
C:/Users/steve/AppData/Local/Temp/_gbsbuild/obj/sprite_jem_animated.rel
                                          [ sprite_jem_animated ]
C:/Users/steve/AppData/Local/Temp/_gbsbuild/obj/sprite_lava_tileset.rel
                                          [ sprite_lava_tileset ]
C:/Users/steve/AppData/Local/Temp/_gbsbuild/obj/sprite_lava.rel
                                          [ sprite_lava ]
C:/Users/steve/AppData/Local/Temp/_gbsbuild/obj/sprite_light_animated_copy_tileset.rel
                                          [ sprite_light_animated_copy_tiles ]
C:/Users/steve/AppData/Local/Temp/_gbsbuild/obj/sprite_light_animated_copy.rel
                                          [ sprite_light_animated_copy ]
C:/Users/steve/AppData/Local/Temp/_gbsbuild/obj/sprite_light_key_0_tileset.rel
                                          [ sprite_light_key_0_tileset ]
C:/Users/steve/AppData/Local/Temp/_gbsbuild/obj/sprite_light_key_0.rel
                                          [ sprite_light_key_0 ]
C:/Users/steve/AppData/Local/Temp/_gbsbuild/obj/sprite_light_key_tileset.rel
                                          [ sprite_light_key_tileset ]
C:/Users/steve/AppData/Local/Temp/_gbsbuild/obj/sprite_light_key.rel
                                          [ sprite_light_key ]
C:/Users/steve/AppData/Local/Temp/_gbsbuild/obj/sprite_metal_walls_tileset.rel
                                          [ sprite_metal_walls_tileset ]
C:/Users/steve/AppData/Local/Temp/_gbsbuild/obj/sprite_metal_walls.rel
                                          [ sprite_metal_walls ]
C:/Users/steve/AppData/Local/Temp/_gbsbuild/obj/sprite_number_ui_tileset.rel
                                          [ sprite_number_ui_tileset ]
C:/Users/steve/AppData/Local/Temp/_gbsbuild/obj/sprite_number_ui.rel
                                          [ sprite_number_ui ]
C:/Users/steve/AppData/Local/Temp/_gbsbuild/obj/sprite_perlite_animated_tileset.rel
                                          [ sprite_perlite_animated_tileset ]
C:/Users/steve/AppData/Local/Temp/_gbsbuild/obj/sprite_perlite_animated.rel
                                          [ sprite_perlite_animated ]
C:/Users/steve/AppData/Local/Temp/_gbsbuild/obj/sprite_phoenix_cop_copy_tileset.rel
                                          [ sprite_phoenix_cop_copy_tileset ]
C:/Users/steve/AppData/Local/Temp/_gbsbuild/obj/sprite_phoenix_cop_copy.rel
                                          [ sprite_phoenix_cop_copy ]
C:/Users/steve/AppData/Local/Temp/_gbsbuild/obj/sprite_poison_tileset.rel
                                          [ sprite_poison_tileset ]
C:/Users/steve/AppData/Local/Temp/_gbsbuild/obj/sprite_poison.rel
                                          [ sprite_poison ]
C:/Users/steve/AppData/Local/Temp/_gbsbuild/obj/sprite_potion_ui_tileset.rel
                                          [ sprite_potion_ui_tileset ]
C:/Users/steve/AppData/Local/Temp/_gbsbuild/obj/sprite_potion_ui.rel
                                          [ sprite_potion_ui ]
C:/Users/steve/AppData/Local/Temp/_gbsbuild/obj/sprite_sly_slimeball_copy_tileset.rel
                                          [ sprite_sly_slimeball_copy_tilese ]
C:/Users/steve/AppData/Local/Temp/_gbsbuild/obj/sprite_sly_slimeball_copy.rel
                                          [ sprite_sly_slimeball_copy ]
C:/Users/steve/AppData/Local/Temp/_gbsbuild/obj/sprite_sly_slimeball_tileset.rel
                                          [ sprite_sly_slimeball_tileset ]
C:/Users/steve/AppData/Local/Temp/_gbsbuild/obj/sprite_sly_slimeball.rel
                                          [ sprite_sly_slimeball ]
C:/Users/steve/AppData/Local/Temp/_gbsbuild/obj/sprite_swordattack_tileset.rel
                                          [ sprite_swordattack_tileset ]
C:/Users/steve/AppData/Local/Temp/_gbsbuild/obj/sprite_swordattack.rel
                                          [ sprite_swordattack ]
C:/Users/steve/AppData/Local/Temp/_gbsbuild/obj/sprite_toxic_tileset.rel
                                          [ sprite_toxic_tileset ]
C:/Users/steve/AppData/Local/Temp/_gbsbuild/obj/sprite_toxic.rel
                                          [ sprite_toxic ]
C:/Users/steve/AppData/Local/Temp/_gbsbuild/obj/sprite_transparent.rel
                                          [ sprite_transparent ]
C:/Users/steve/AppData/Local/Temp/_gbsbuild/obj/sprite_unknown_key_copy_2__tileset.rel
                                          [ sprite_unknown_key_copy_2__tiles ]
C:/Users/steve/AppData/Local/Temp/_gbsbuild/obj/sprite_unknown_key_copy_2_.rel
                                          [ sprite_unknown_key_copy_2_ ]
C:/Users/steve/AppData/Local/Temp/_gbsbuild/obj/sprite_unknown_key_copy_tileset.rel
                                          [ sprite_unknown_key_copy_tileset ]
C:/Users/steve/AppData/Local/Temp/_gbsbuild/obj/sprite_unknown_key_copy.rel
                                          [ sprite_unknown_key_copy ]
C:/Users/steve/AppData/Local/Temp/_gbsbuild/obj/sprite_water_tileset.rel
                                          [ sprite_water_tileset ]
C:/Users/steve/AppData/Local/Temp/_gbsbuild/obj/sprite_water.rel
                                          [ sprite_water ]
C:/Users/steve/AppData/Local/Temp/_gbsbuild/obj/spritesheet_none.rel
                                          [ spritesheet_none ]
C:/Users/steve/AppData/Local/Temp/_gbsbuild/obj/tileset_hud_ui.rel
                                          [ tileset_hud_ui ]
C:/Users/steve/AppData/Local/Temp/_gbsbuild/obj/trigger_0_interact.rel
                                          [ trigger_0_interact ]
C:/Users/steve/AppData/Local/Temp/_gbsbuild/obj/trigger_1_interact.rel
                                          [ trigger_1_interact ]
C:/Users/steve/AppData/Local/Temp/_gbsbuild/obj/trigger_10_interact.rel
                                          [ trigger_10_interact ]
C:/Users/steve/AppData/Local/Temp/_gbsbuild/obj/trigger_100_interact.rel
                                          [ trigger_100_interact ]
C:/Users/steve/AppData/Local/Temp/_gbsbuild/obj/trigger_101_interact.rel
                                          [ trigger_101_interact ]
C:/Users/steve/AppData/Local/Temp/_gbsbuild/obj/trigger_102_interact.rel
                                          [ trigger_102_interact ]
C:/Users/steve/AppData/Local/Temp/_gbsbuild/obj/trigger_103_interact.rel
                                          [ trigger_103_interact ]
C:/Users/steve/AppData/Local/Temp/_gbsbuild/obj/trigger_104_interact.rel
                                          [ trigger_104_interact ]
C:/Users/steve/AppData/Local/Temp/_gbsbuild/obj/trigger_105_interact.rel
                                          [ trigger_105_interact ]
C:/Users/steve/AppData/Local/Temp/_gbsbuild/obj/trigger_106_interact.rel
                                          [ trigger_106_interact ]
C:/Users/steve/AppData/Local/Temp/_gbsbuild/obj/trigger_107_interact.rel
                                          [ trigger_107_interact ]
C:/Users/steve/AppData/Local/Temp/_gbsbuild/obj/trigger_108_interact.rel
                                          [ trigger_108_interact ]
C:/Users/steve/AppData/Local/Temp/_gbsbuild/obj/trigger_109_interact.rel
                                          [ trigger_109_interact ]
C:/Users/steve/AppData/Local/Temp/_gbsbuild/obj/trigger_11_interact.rel
                                          [ trigger_11_interact ]
C:/Users/steve/AppData/Local/Temp/_gbsbuild/obj/trigger_110_interact.rel
                                          [ trigger_110_interact ]
C:/Users/steve/AppData/Local/Temp/_gbsbuild/obj/trigger_111_interact.rel
                                          [ trigger_111_interact ]
C:/Users/steve/AppData/Local/Temp/_gbsbuild/obj/trigger_112_interact.rel
                                          [ trigger_112_interact ]
C:/Users/steve/AppData/Local/Temp/_gbsbuild/obj/trigger_113_interact.rel
                                          [ trigger_113_interact ]
C:/Users/steve/AppData/Local/Temp/_gbsbuild/obj/trigger_114_interact.rel
                                          [ trigger_114_interact ]
C:/Users/steve/AppData/Local/Temp/_gbsbuild/obj/trigger_115_interact.rel
                                          [ trigger_115_interact ]
C:/Users/steve/AppData/Local/Temp/_gbsbuild/obj/trigger_116_interact.rel
                                          [ trigger_116_interact ]
C:/Users/steve/AppData/Local/Temp/_gbsbuild/obj/trigger_117_interact.rel
                                          [ trigger_117_interact ]
C:/Users/steve/AppData/Local/Temp/_gbsbuild/obj/trigger_118_interact.rel
                                          [ trigger_118_interact ]
C:/Users/steve/AppData/Local/Temp/_gbsbuild/obj/trigger_119_interact.rel
                                          [ trigger_119_interact ]
C:/Users/steve/AppData/Local/Temp/_gbsbuild/obj/trigger_12_interact.rel
                                          [ trigger_12_interact ]
C:/Users/steve/AppData/Local/Temp/_gbsbuild/obj/trigger_120_interact.rel
                                          [ trigger_120_interact ]
C:/Users/steve/AppData/Local/Temp/_gbsbuild/obj/trigger_121_interact.rel
                                          [ trigger_121_interact ]
C:/Users/steve/AppData/Local/Temp/_gbsbuild/obj/trigger_122_interact.rel
                                          [ trigger_122_interact ]
C:/Users/steve/AppData/Local/Temp/_gbsbuild/obj/trigger_123_interact.rel
                                          [ trigger_123_interact ]
C:/Users/steve/AppData/Local/Temp/_gbsbuild/obj/trigger_124_interact.rel
                                          [ trigger_124_interact ]
C:/Users/steve/AppData/Local/Temp/_gbsbuild/obj/trigger_125_interact.rel
                                          [ trigger_125_interact ]
C:/Users/steve/AppData/Local/Temp/_gbsbuild/obj/trigger_126_interact.rel
                                          [ trigger_126_interact ]
C:/Users/steve/AppData/Local/Temp/_gbsbuild/obj/trigger_127_interact.rel
                                          [ trigger_127_interact ]
C:/Users/steve/AppData/Local/Temp/_gbsbuild/obj/trigger_128_interact.rel
                                          [ trigger_128_interact ]
C:/Users/steve/AppData/Local/Temp/_gbsbuild/obj/trigger_129_interact.rel
                                          [ trigger_129_interact ]
C:/Users/steve/AppData/Local/Temp/_gbsbuild/obj/trigger_13_interact.rel
                                          [ trigger_13_interact ]
C:/Users/steve/AppData/Local/Temp/_gbsbuild/obj/trigger_130_interact.rel
                                          [ trigger_130_interact ]
C:/Users/steve/AppData/Local/Temp/_gbsbuild/obj/trigger_131_interact.rel
                                          [ trigger_131_interact ]
C:/Users/steve/AppData/Local/Temp/_gbsbuild/obj/trigger_132_interact.rel
                                          [ trigger_132_interact ]
C:/Users/steve/AppData/Local/Temp/_gbsbuild/obj/trigger_133_interact.rel
                                          [ trigger_133_interact ]
C:/Users/steve/AppData/Local/Temp/_gbsbuild/obj/trigger_134_interact.rel
                                          [ trigger_134_interact ]
C:/Users/steve/AppData/Local/Temp/_gbsbuild/obj/trigger_135_interact.rel
                                          [ trigger_135_interact ]
C:/Users/steve/AppData/Local/Temp/_gbsbuild/obj/trigger_136_interact.rel
                                          [ trigger_136_interact ]
C:/Users/steve/AppData/Local/Temp/_gbsbuild/obj/trigger_137_interact.rel
                                          [ trigger_137_interact ]
C:/Users/steve/AppData/Local/Temp/_gbsbuild/obj/trigger_138_interact.rel
                                          [ trigger_138_interact ]
C:/Users/steve/AppData/Local/Temp/_gbsbuild/obj/trigger_139_interact.rel
                                          [ trigger_139_interact ]
C:/Users/steve/AppData/Local/Temp/_gbsbuild/obj/trigger_14_interact.rel
                                          [ trigger_14_interact ]
C:/Users/steve/AppData/Local/Temp/_gbsbuild/obj/trigger_140_interact.rel
                                          [ trigger_140_interact ]
C:/Users/steve/AppData/Local/Temp/_gbsbuild/obj/trigger_141_interact.rel
                                          [ trigger_141_interact ]
C:/Users/steve/AppData/Local/Temp/_gbsbuild/obj/trigger_142_interact.rel
                                          [ trigger_142_interact ]
C:/Users/steve/AppData/Local/Temp/_gbsbuild/obj/trigger_143_interact.rel
                                          [ trigger_143_interact ]
C:/Users/steve/AppData/Local/Temp/_gbsbuild/obj/trigger_144_interact.rel
                                          [ trigger_144_interact ]
C:/Users/steve/AppData/Local/Temp/_gbsbuild/obj/trigger_145_interact.rel
                                          [ trigger_145_interact ]
C:/Users/steve/AppData/Local/Temp/_gbsbuild/obj/trigger_146_interact.rel
                                          [ trigger_146_interact ]
C:/Users/steve/AppData/Local/Temp/_gbsbuild/obj/trigger_147_interact.rel
                                          [ trigger_147_interact ]
C:/Users/steve/AppData/Local/Temp/_gbsbuild/obj/trigger_148_interact.rel
                                          [ trigger_148_interact ]
C:/Users/steve/AppData/Local/Temp/_gbsbuild/obj/trigger_149_interact.rel
                                          [ trigger_149_interact ]
C:/Users/steve/AppData/Local/Temp/_gbsbuild/obj/trigger_15_interact.rel
                                          [ trigger_15_interact ]
C:/Users/steve/AppData/Local/Temp/_gbsbuild/obj/trigger_150_interact.rel
                                          [ trigger_150_interact ]
C:/Users/steve/AppData/Local/Temp/_gbsbuild/obj/trigger_151_interact.rel
                                          [ trigger_151_interact ]
C:/Users/steve/AppData/Local/Temp/_gbsbuild/obj/trigger_152_interact.rel
                                          [ trigger_152_interact ]
C:/Users/steve/AppData/Local/Temp/_gbsbuild/obj/trigger_153_interact.rel
                                          [ trigger_153_interact ]
C:/Users/steve/AppData/Local/Temp/_gbsbuild/obj/trigger_154_interact.rel
                                          [ trigger_154_interact ]
C:/Users/steve/AppData/Local/Temp/_gbsbuild/obj/trigger_155_interact.rel
                                          [ trigger_155_interact ]
C:/Users/steve/AppData/Local/Temp/_gbsbuild/obj/trigger_156_interact.rel
                                          [ trigger_156_interact ]
C:/Users/steve/AppData/Local/Temp/_gbsbuild/obj/trigger_157_interact.rel
                                          [ trigger_157_interact ]
C:/Users/steve/AppData/Local/Temp/_gbsbuild/obj/trigger_158_interact.rel
                                          [ trigger_158_interact ]
C:/Users/steve/AppData/Local/Temp/_gbsbuild/obj/trigger_159_interact.rel
                                          [ trigger_159_interact ]
C:/Users/steve/AppData/Local/Temp/_gbsbuild/obj/trigger_16_interact.rel
                                          [ trigger_16_interact ]
C:/Users/steve/AppData/Local/Temp/_gbsbuild/obj/trigger_160_interact.rel
                                          [ trigger_160_interact ]
C:/Users/steve/AppData/Local/Temp/_gbsbuild/obj/trigger_161_interact.rel
                                          [ trigger_161_interact ]
C:/Users/steve/AppData/Local/Temp/_gbsbuild/obj/trigger_162_interact.rel
                                          [ trigger_162_interact ]
C:/Users/steve/AppData/Local/Temp/_gbsbuild/obj/trigger_163_interact.rel
                                          [ trigger_163_interact ]
C:/Users/steve/AppData/Local/Temp/_gbsbuild/obj/trigger_164_interact.rel
                                          [ trigger_164_interact ]
C:/Users/steve/AppData/Local/Temp/_gbsbuild/obj/trigger_165_interact.rel
                                          [ trigger_165_interact ]
C:/Users/steve/AppData/Local/Temp/_gbsbuild/obj/trigger_166_interact.rel
                                          [ trigger_166_interact ]
C:/Users/steve/AppData/Local/Temp/_gbsbuild/obj/trigger_167_interact.rel
                                          [ trigger_167_interact ]
C:/Users/steve/AppData/Local/Temp/_gbsbuild/obj/trigger_168_interact.rel
                                          [ trigger_168_interact ]
C:/Users/steve/AppData/Local/Temp/_gbsbuild/obj/trigger_169_interact.rel
                                          [ trigger_169_interact ]
C:/Users/steve/AppData/Local/Temp/_gbsbuild/obj/trigger_17_interact.rel
                                          [ trigger_17_interact ]
C:/Users/steve/AppData/Local/Temp/_gbsbuild/obj/trigger_170_interact.rel
                                          [ trigger_170_interact ]
C:/Users/steve/AppData/Local/Temp/_gbsbuild/obj/trigger_171_interact.rel
                                          [ trigger_171_interact ]
C:/Users/steve/AppData/Local/Temp/_gbsbuild/obj/trigger_172_interact.rel
                                          [ trigger_172_interact ]
C:/Users/steve/AppData/Local/Temp/_gbsbuild/obj/trigger_173_interact.rel
                                          [ trigger_173_interact ]
C:/Users/steve/AppData/Local/Temp/_gbsbuild/obj/trigger_174_interact.rel
                                          [ trigger_174_interact ]
C:/Users/steve/AppData/Local/Temp/_gbsbuild/obj/trigger_175_interact.rel
                                          [ trigger_175_interact ]
C:/Users/steve/AppData/Local/Temp/_gbsbuild/obj/trigger_176_interact.rel
                                          [ trigger_176_interact ]
C:/Users/steve/AppData/Local/Temp/_gbsbuild/obj/trigger_177_interact.rel
                                          [ trigger_177_interact ]
C:/Users/steve/AppData/Local/Temp/_gbsbuild/obj/trigger_178_interact.rel
                                          [ trigger_178_interact ]
C:/Users/steve/AppData/Local/Temp/_gbsbuild/obj/trigger_179_interact.rel
                                          [ trigger_179_interact ]
C:/Users/steve/AppData/Local/Temp/_gbsbuild/obj/trigger_18_interact.rel
                                          [ trigger_18_interact ]
C:/Users/steve/AppData/Local/Temp/_gbsbuild/obj/trigger_180_interact.rel
                                          [ trigger_180_interact ]
C:/Users/steve/AppData/Local/Temp/_gbsbuild/obj/trigger_181_interact.rel
                                          [ trigger_181_interact ]
C:/Users/steve/AppData/Local/Temp/_gbsbuild/obj/trigger_182_interact.rel
                                          [ trigger_182_interact ]
C:/Users/steve/AppData/Local/Temp/_gbsbuild/obj/trigger_183_interact.rel
                                          [ trigger_183_interact ]
C:/Users/steve/AppData/Local/Temp/_gbsbuild/obj/trigger_184_interact.rel
                                          [ trigger_184_interact ]
C:/Users/steve/AppData/Local/Temp/_gbsbuild/obj/trigger_185_interact.rel
                                          [ trigger_185_interact ]
C:/Users/steve/AppData/Local/Temp/_gbsbuild/obj/trigger_186_interact.rel
                                          [ trigger_186_interact ]
C:/Users/steve/AppData/Local/Temp/_gbsbuild/obj/trigger_187_interact.rel
                                          [ trigger_187_interact ]
C:/Users/steve/AppData/Local/Temp/_gbsbuild/obj/trigger_188_interact.rel
                                          [ trigger_188_interact ]
C:/Users/steve/AppData/Local/Temp/_gbsbuild/obj/trigger_189_interact.rel
                                          [ trigger_189_interact ]
C:/Users/steve/AppData/Local/Temp/_gbsbuild/obj/trigger_19_interact.rel
                                          [ trigger_19_interact ]
C:/Users/steve/AppData/Local/Temp/_gbsbuild/obj/trigger_190_interact.rel
                                          [ trigger_190_interact ]
C:/Users/steve/AppData/Local/Temp/_gbsbuild/obj/trigger_191_interact.rel
                                          [ trigger_191_interact ]
C:/Users/steve/AppData/Local/Temp/_gbsbuild/obj/trigger_192_interact.rel
                                          [ trigger_192_interact ]
C:/Users/steve/AppData/Local/Temp/_gbsbuild/obj/trigger_193_interact.rel
                                          [ trigger_193_interact ]
C:/Users/steve/AppData/Local/Temp/_gbsbuild/obj/trigger_194_interact.rel
                                          [ trigger_194_interact ]
C:/Users/steve/AppData/Local/Temp/_gbsbuild/obj/trigger_195_interact.rel
                                          [ trigger_195_interact ]
C:/Users/steve/AppData/Local/Temp/_gbsbuild/obj/trigger_196_interact.rel
                                          [ trigger_196_interact ]
C:/Users/steve/AppData/Local/Temp/_gbsbuild/obj/trigger_197_interact.rel
                                          [ trigger_197_interact ]
C:/Users/steve/AppData/Local/Temp/_gbsbuild/obj/trigger_198_interact.rel
                                          [ trigger_198_interact ]
C:/Users/steve/AppData/Local/Temp/_gbsbuild/obj/trigger_199_interact.rel
                                          [ trigger_199_interact ]
C:/Users/steve/AppData/Local/Temp/_gbsbuild/obj/trigger_2_interact.rel
                                          [ trigger_2_interact ]
C:/Users/steve/AppData/Local/Temp/_gbsbuild/obj/trigger_20_interact.rel
                                          [ trigger_20_interact ]
C:/Users/steve/AppData/Local/Temp/_gbsbuild/obj/trigger_200_interact.rel
                                          [ trigger_200_interact ]
C:/Users/steve/AppData/Local/Temp/_gbsbuild/obj/trigger_201_interact.rel
                                          [ trigger_201_interact ]
C:/Users/steve/AppData/Local/Temp/_gbsbuild/obj/trigger_202_interact.rel
                                          [ trigger_202_interact ]
C:/Users/steve/AppData/Local/Temp/_gbsbuild/obj/trigger_203_interact.rel
                                          [ trigger_203_interact ]
C:/Users/steve/AppData/Local/Temp/_gbsbuild/obj/trigger_204_interact.rel
                                          [ trigger_204_interact ]
C:/Users/steve/AppData/Local/Temp/_gbsbuild/obj/trigger_205_interact.rel
                                          [ trigger_205_interact ]
C:/Users/steve/AppData/Local/Temp/_gbsbuild/obj/trigger_206_interact.rel
                                          [ trigger_206_interact ]
C:/Users/steve/AppData/Local/Temp/_gbsbuild/obj/trigger_207_interact.rel
                                          [ trigger_207_interact ]
C:/Users/steve/AppData/Local/Temp/_gbsbuild/obj/trigger_208_interact.rel
                                          [ trigger_208_interact ]
C:/Users/steve/AppData/Local/Temp/_gbsbuild/obj/trigger_209_interact.rel
                                          [ trigger_209_interact ]
C:/Users/steve/AppData/Local/Temp/_gbsbuild/obj/trigger_21_interact.rel
                                          [ trigger_21_interact ]
C:/Users/steve/AppData/Local/Temp/_gbsbuild/obj/trigger_210_interact.rel
                                          [ trigger_210_interact ]
C:/Users/steve/AppData/Local/Temp/_gbsbuild/obj/trigger_211_interact.rel
                                          [ trigger_211_interact ]
C:/Users/steve/AppData/Local/Temp/_gbsbuild/obj/trigger_212_interact.rel
                                          [ trigger_212_interact ]
C:/Users/steve/AppData/Local/Temp/_gbsbuild/obj/trigger_213_interact.rel
                                          [ trigger_213_interact ]
C:/Users/steve/AppData/Local/Temp/_gbsbuild/obj/trigger_214_interact.rel
                                          [ trigger_214_interact ]
C:/Users/steve/AppData/Local/Temp/_gbsbuild/obj/trigger_215_interact.rel
                                          [ trigger_215_interact ]
C:/Users/steve/AppData/Local/Temp/_gbsbuild/obj/trigger_216_interact.rel
                                          [ trigger_216_interact ]
C:/Users/steve/AppData/Local/Temp/_gbsbuild/obj/trigger_217_interact.rel
                                          [ trigger_217_interact ]
C:/Users/steve/AppData/Local/Temp/_gbsbuild/obj/trigger_218_interact.rel
                                          [ trigger_218_interact ]
C:/Users/steve/AppData/Local/Temp/_gbsbuild/obj/trigger_219_interact.rel
                                          [ trigger_219_interact ]
C:/Users/steve/AppData/Local/Temp/_gbsbuild/obj/trigger_22_interact.rel
                                          [ trigger_22_interact ]
C:/Users/steve/AppData/Local/Temp/_gbsbuild/obj/trigger_220_interact.rel
                                          [ trigger_220_interact ]
C:/Users/steve/AppData/Local/Temp/_gbsbuild/obj/trigger_221_interact.rel
                                          [ trigger_221_interact ]
C:/Users/steve/AppData/Local/Temp/_gbsbuild/obj/trigger_222_interact.rel
                                          [ trigger_222_interact ]
C:/Users/steve/AppData/Local/Temp/_gbsbuild/obj/trigger_223_interact.rel
                                          [ trigger_223_interact ]
C:/Users/steve/AppData/Local/Temp/_gbsbuild/obj/trigger_224_interact.rel
                                          [ trigger_224_interact ]
C:/Users/steve/AppData/Local/Temp/_gbsbuild/obj/trigger_225_interact.rel
                                          [ trigger_225_interact ]
C:/Users/steve/AppData/Local/Temp/_gbsbuild/obj/trigger_226_interact.rel
                                          [ trigger_226_interact ]
C:/Users/steve/AppData/Local/Temp/_gbsbuild/obj/trigger_227_interact.rel
                                          [ trigger_227_interact ]
C:/Users/steve/AppData/Local/Temp/_gbsbuild/obj/trigger_228_interact.rel
                                          [ trigger_228_interact ]
C:/Users/steve/AppData/Local/Temp/_gbsbuild/obj/trigger_229_interact.rel
                                          [ trigger_229_interact ]
C:/Users/steve/AppData/Local/Temp/_gbsbuild/obj/trigger_23_interact.rel
                                          [ trigger_23_interact ]
C:/Users/steve/AppData/Local/Temp/_gbsbuild/obj/trigger_230_interact.rel
                                          [ trigger_230_interact ]
C:/Users/steve/AppData/Local/Temp/_gbsbuild/obj/trigger_231_interact.rel
                                          [ trigger_231_interact ]
C:/Users/steve/AppData/Local/Temp/_gbsbuild/obj/trigger_232_interact.rel
                                          [ trigger_232_interact ]
C:/Users/steve/AppData/Local/Temp/_gbsbuild/obj/trigger_233_interact.rel
                                          [ trigger_233_interact ]
C:/Users/steve/AppData/Local/Temp/_gbsbuild/obj/trigger_24_interact.rel
                                          [ trigger_24_interact ]
C:/Users/steve/AppData/Local/Temp/_gbsbuild/obj/trigger_25_interact.rel
                                          [ trigger_25_interact ]
C:/Users/steve/AppData/Local/Temp/_gbsbuild/obj/trigger_26_interact.rel
                                          [ trigger_26_interact ]
C:/Users/steve/AppData/Local/Temp/_gbsbuild/obj/trigger_27_interact.rel
                                          [ trigger_27_interact ]
C:/Users/steve/AppData/Local/Temp/_gbsbuild/obj/trigger_28_interact.rel
                                          [ trigger_28_interact ]
C:/Users/steve/AppData/Local/Temp/_gbsbuild/obj/trigger_29_interact.rel
                                          [ trigger_29_interact ]
C:/Users/steve/AppData/Local/Temp/_gbsbuild/obj/trigger_3_interact.rel
                                          [ trigger_3_interact ]
C:/Users/steve/AppData/Local/Temp/_gbsbuild/obj/trigger_30_interact.rel
                                          [ trigger_30_interact ]
C:/Users/steve/AppData/Local/Temp/_gbsbuild/obj/trigger_31_interact.rel
                                          [ trigger_31_interact ]
C:/Users/steve/AppData/Local/Temp/_gbsbuild/obj/trigger_32_interact.rel
                                          [ trigger_32_interact ]
C:/Users/steve/AppData/Local/Temp/_gbsbuild/obj/trigger_33_interact.rel
                                          [ trigger_33_interact ]
C:/Users/steve/AppData/Local/Temp/_gbsbuild/obj/trigger_34_interact.rel
                                          [ trigger_34_interact ]
C:/Users/steve/AppData/Local/Temp/_gbsbuild/obj/trigger_35_interact.rel
                                          [ trigger_35_interact ]
C:/Users/steve/AppData/Local/Temp/_gbsbuild/obj/trigger_36_interact.rel
                                          [ trigger_36_interact ]
C:/Users/steve/AppData/Local/Temp/_gbsbuild/obj/trigger_37_interact.rel
                                          [ trigger_37_interact ]
C:/Users/steve/AppData/Local/Temp/_gbsbuild/obj/trigger_38_interact.rel
                                          [ trigger_38_interact ]
C:/Users/steve/AppData/Local/Temp/_gbsbuild/obj/trigger_39_interact.rel
                                          [ trigger_39_interact ]
C:/Users/steve/AppData/Local/Temp/_gbsbuild/obj/trigger_4_interact.rel
                                          [ trigger_4_interact ]
C:/Users/steve/AppData/Local/Temp/_gbsbuild/obj/trigger_40_interact.rel
                                          [ trigger_40_interact ]
C:/Users/steve/AppData/Local/Temp/_gbsbuild/obj/trigger_41_interact.rel
                                          [ trigger_41_interact ]
C:/Users/steve/AppData/Local/Temp/_gbsbuild/obj/trigger_42_interact.rel
                                          [ trigger_42_interact ]
C:/Users/steve/AppData/Local/Temp/_gbsbuild/obj/trigger_43_interact.rel
                                          [ trigger_43_interact ]
C:/Users/steve/AppData/Local/Temp/_gbsbuild/obj/trigger_44_interact.rel
                                          [ trigger_44_interact ]
C:/Users/steve/AppData/Local/Temp/_gbsbuild/obj/trigger_45_interact.rel
                                          [ trigger_45_interact ]
C:/Users/steve/AppData/Local/Temp/_gbsbuild/obj/trigger_46_interact.rel
                                          [ trigger_46_interact ]
C:/Users/steve/AppData/Local/Temp/_gbsbuild/obj/trigger_47_interact.rel
                                          [ trigger_47_interact ]
C:/Users/steve/AppData/Local/Temp/_gbsbuild/obj/trigger_48_interact.rel
                                          [ trigger_48_interact ]
C:/Users/steve/AppData/Local/Temp/_gbsbuild/obj/trigger_49_interact.rel
                                          [ trigger_49_interact ]
C:/Users/steve/AppData/Local/Temp/_gbsbuild/obj/trigger_5_interact.rel
                                          [ trigger_5_interact ]
C:/Users/steve/AppData/Local/Temp/_gbsbuild/obj/trigger_50_interact.rel
                                          [ trigger_50_interact ]
C:/Users/steve/AppData/Local/Temp/_gbsbuild/obj/trigger_51_interact.rel
                                          [ trigger_51_interact ]
C:/Users/steve/AppData/Local/Temp/_gbsbuild/obj/trigger_52_interact.rel
                                          [ trigger_52_interact ]
C:/Users/steve/AppData/Local/Temp/_gbsbuild/obj/trigger_53_interact.rel
                                          [ trigger_53_interact ]
C:/Users/steve/AppData/Local/Temp/_gbsbuild/obj/trigger_54_interact.rel
                                          [ trigger_54_interact ]
C:/Users/steve/AppData/Local/Temp/_gbsbuild/obj/trigger_55_interact.rel
                                          [ trigger_55_interact ]
C:/Users/steve/AppData/Local/Temp/_gbsbuild/obj/trigger_56_interact.rel
                                          [ trigger_56_interact ]
C:/Users/steve/AppData/Local/Temp/_gbsbuild/obj/trigger_57_interact.rel
                                          [ trigger_57_interact ]
C:/Users/steve/AppData/Local/Temp/_gbsbuild/obj/trigger_58_interact.rel
                                          [ trigger_58_interact ]
C:/Users/steve/AppData/Local/Temp/_gbsbuild/obj/trigger_59_interact.rel
                                          [ trigger_59_interact ]
C:/Users/steve/AppData/Local/Temp/_gbsbuild/obj/trigger_6_interact.rel
                                          [ trigger_6_interact ]
C:/Users/steve/AppData/Local/Temp/_gbsbuild/obj/trigger_60_interact.rel
                                          [ trigger_60_interact ]
C:/Users/steve/AppData/Local/Temp/_gbsbuild/obj/trigger_61_interact.rel
                                          [ trigger_61_interact ]
C:/Users/steve/AppData/Local/Temp/_gbsbuild/obj/trigger_62_interact.rel
                                          [ trigger_62_interact ]
C:/Users/steve/AppData/Local/Temp/_gbsbuild/obj/trigger_63_interact.rel
                                          [ trigger_63_interact ]
C:/Users/steve/AppData/Local/Temp/_gbsbuild/obj/trigger_64_interact.rel
                                          [ trigger_64_interact ]
C:/Users/steve/AppData/Local/Temp/_gbsbuild/obj/trigger_65_interact.rel
                                          [ trigger_65_interact ]
C:/Users/steve/AppData/Local/Temp/_gbsbuild/obj/trigger_66_interact.rel
                                          [ trigger_66_interact ]
C:/Users/steve/AppData/Local/Temp/_gbsbuild/obj/trigger_67_interact.rel
                                          [ trigger_67_interact ]
C:/Users/steve/AppData/Local/Temp/_gbsbuild/obj/trigger_68_interact.rel
                                          [ trigger_68_interact ]
C:/Users/steve/AppData/Local/Temp/_gbsbuild/obj/trigger_69_interact.rel
                                          [ trigger_69_interact ]
C:/Users/steve/AppData/Local/Temp/_gbsbuild/obj/trigger_7_interact.rel
                                          [ trigger_7_interact ]
C:/Users/steve/AppData/Local/Temp/_gbsbuild/obj/trigger_70_interact.rel
                                          [ trigger_70_interact ]
C:/Users/steve/AppData/Local/Temp/_gbsbuild/obj/trigger_71_interact.rel
                                          [ trigger_71_interact ]
C:/Users/steve/AppData/Local/Temp/_gbsbuild/obj/trigger_72_interact.rel
                                          [ trigger_72_interact ]
C:/Users/steve/AppData/Local/Temp/_gbsbuild/obj/trigger_73_interact.rel
                                          [ trigger_73_interact ]
C:/Users/steve/AppData/Local/Temp/_gbsbuild/obj/trigger_74_interact.rel
                                          [ trigger_74_interact ]
C:/Users/steve/AppData/Local/Temp/_gbsbuild/obj/trigger_75_interact.rel
                                          [ trigger_75_interact ]
C:/Users/steve/AppData/Local/Temp/_gbsbuild/obj/trigger_76_interact.rel
                                          [ trigger_76_interact ]
C:/Users/steve/AppData/Local/Temp/_gbsbuild/obj/trigger_77_interact.rel
                                          [ trigger_77_interact ]
C:/Users/steve/AppData/Local/Temp/_gbsbuild/obj/trigger_78_interact.rel
                                          [ trigger_78_interact ]
C:/Users/steve/AppData/Local/Temp/_gbsbuild/obj/trigger_79_interact.rel
                                          [ trigger_79_interact ]
C:/Users/steve/AppData/Local/Temp/_gbsbuild/obj/trigger_8_interact.rel
                                          [ trigger_8_interact ]
C:/Users/steve/AppData/Local/Temp/_gbsbuild/obj/trigger_80_interact.rel
                                          [ trigger_80_interact ]
C:/Users/steve/AppData/Local/Temp/_gbsbuild/obj/trigger_81_interact.rel
                                          [ trigger_81_interact ]
C:/Users/steve/AppData/Local/Temp/_gbsbuild/obj/trigger_82_interact.rel
                                          [ trigger_82_interact ]
C:/Users/steve/AppData/Local/Temp/_gbsbuild/obj/trigger_83_interact.rel
                                          [ trigger_83_interact ]
C:/Users/steve/AppData/Local/Temp/_gbsbuild/obj/trigger_84_interact.rel
                                          [ trigger_84_interact ]
C:/Users/steve/AppData/Local/Temp/_gbsbuild/obj/trigger_85_interact.rel
                                          [ trigger_85_interact ]
C:/Users/steve/AppData/Local/Temp/_gbsbuild/obj/trigger_86_interact.rel
                                          [ trigger_86_interact ]
C:/Users/steve/AppData/Local/Temp/_gbsbuild/obj/trigger_87_interact.rel
                                          [ trigger_87_interact ]
C:/Users/steve/AppData/Local/Temp/_gbsbuild/obj/trigger_88_interact.rel
                                          [ trigger_88_interact ]
C:/Users/steve/AppData/Local/Temp/_gbsbuild/obj/trigger_89_interact.rel
                                          [ trigger_89_interact ]
C:/Users/steve/AppData/Local/Temp/_gbsbuild/obj/trigger_9_interact.rel
                                          [ trigger_9_interact ]
C:/Users/steve/AppData/Local/Temp/_gbsbuild/obj/trigger_90_interact.rel
                                          [ trigger_90_interact ]
C:/Users/steve/AppData/Local/Temp/_gbsbuild/obj/trigger_91_interact.rel
                                          [ trigger_91_interact ]
C:/Users/steve/AppData/Local/Temp/_gbsbuild/obj/trigger_92_interact.rel
                                          [ trigger_92_interact ]
C:/Users/steve/AppData/Local/Temp/_gbsbuild/obj/trigger_93_interact.rel
                                          [ trigger_93_interact ]
C:/Users/steve/AppData/Local/Temp/_gbsbuild/obj/trigger_94_interact.rel
                                          [ trigger_94_interact ]
C:/Users/steve/AppData/Local/Temp/_gbsbuild/obj/trigger_95_interact.rel
                                          [ trigger_95_interact ]
C:/Users/steve/AppData/Local/Temp/_gbsbuild/obj/trigger_96_interact.rel
                                          [ trigger_96_interact ]
C:/Users/steve/AppData/Local/Temp/_gbsbuild/obj/trigger_97_interact.rel
                                          [ trigger_97_interact ]
C:/Users/steve/AppData/Local/Temp/_gbsbuild/obj/trigger_98_interact.rel
                                          [ trigger_98_interact ]
C:/Users/steve/AppData/Local/Temp/_gbsbuild/obj/trigger_99_interact.rel
                                          [ trigger_99_interact ]
C:/Users/steve/AppData/Local/Temp/_gbsbuild/obj/main.rel
                                          [ main ]
C:/Users/steve/AppData/Local/Temp/_gbsbuild/obj/adventure.rel
                                          [ adventure ]
C:/Users/steve/AppData/Local/Temp/_gbsbuild/obj/logo.rel
                                          [ logo ]
C:/Users/steve/AppData/Local/Temp/_gbsbuild/obj/platform.rel
                                          [ platform ]
C:/Users/steve/AppData/Local/Temp/_gbsbuild/obj/pointnclick.rel
                                          [ pointnclick ]
C:/Users/steve/AppData/Local/Temp/_gbsbuild/obj/shmup.rel
                                          [ shmup ]
C:/Users/steve/AppData/Local/Temp/_gbsbuild/obj/states_ptrs.rel
                                          [  ]
C:/Users/steve/AppData/Local/Temp/_gbsbuild/obj/topdown.rel
                                          [ topdown ]


Libraries Linked                          [ object file ]

C:\Users\steve\AppData\Local\Temp/_gbstools/gbdk/lib/gb/gb.lib
                                          [ fill_rect_wi.o ]
C:\Users\steve\AppData\Local\Temp/_gbstools/gbdk/lib/sm83/sm83.lib
                                          [ rand.o ]
lib/hUGEDriver.lib                        [ hUGEDriver.o ]
C:\Users\steve\AppData\Local\Temp/_gbstools/gbdk/lib/gb/gb.lib
                                          [ sfr.o ]
C:\Users\steve\AppData\Local\Temp/_gbstools/gbdk/lib/gb/gb.lib
                                          [ get_data.o ]
C:\Users\steve\AppData\Local\Temp/_gbstools/gbdk/lib/gb/gb.lib
                                          [ get_tile.o ]
C:\Users\steve\AppData\Local\Temp/_gbstools/gbdk/lib/gb/gb.lib
                                          [ cgb_palettes.o ]
C:\Users\steve\AppData\Local\Temp/_gbstools/gbdk/lib/gb/gb.lib
                                          [ metasprites_hide_spr.o ]
C:\Users\steve\AppData\Local\Temp/_gbstools/gbdk/lib/sm83/sm83.lib
                                          [ mul.o ]
C:\Users\steve\AppData\Local\Temp/_gbstools/gbdk/lib/gb/gb.lib
                                          [ set_tile.o ]
C:\Users\steve\AppData\Local\Temp/_gbstools/gbdk/lib/sm83/sm83.lib
                                          [ abs.o ]
C:\Users\steve\AppData\Local\Temp/_gbstools/gbdk/lib/gb/gb.lib
                                          [ set_wi_t.o ]
C:\Users\steve\AppData\Local\Temp/_gbstools/gbdk/lib/gb/gb.lib
                                          [ set_data.o ]
C:\Users\steve\AppData\Local\Temp/_gbstools/gbdk/lib/sm83/sm83.lib
                                          [ reverse.o ]
C:\Users\steve\AppData\Local\Temp/_gbstools/gbdk/lib/gb/gb.lib
                                          [ far_ptr.o ]
C:\Users\steve\AppData\Local\Temp/_gbstools/gbdk/lib/gb/gb.lib
                                          [ sgb.o ]
C:\Users\steve\AppData\Local\Temp/_gbstools/gbdk/lib/gb/gb.lib
                                          [ lcd.o ]
C:\Users\steve\AppData\Local\Temp/_gbstools/gbdk/lib/gb/gb.lib
                                          [ fill_rect.o ]
C:\Users\steve\AppData\Local\Temp/_gbstools/gbdk/lib/gb/gb.lib
                                          [ pad_ex.o ]
C:\Users\steve\AppData\Local\Temp/_gbstools/gbdk/lib/gb/gb.lib
                                          [ cpy_data.o ]
C:\Users\steve\AppData\Local\Temp/_gbstools/gbdk/lib/gb/gb.lib
                                          [ fill_rect_bk.o ]
C:\Users\steve\AppData\Local\Temp/_gbstools/gbdk/lib/gb/gb.lib
                                          [ metasprites.o ]
C:\Users\steve\AppData\Local\Temp/_gbstools/gbdk/lib/sm83/sm83.lib
                                          [ __sdcc_call_hl.o ]
C:\Users\steve\AppData\Local\Temp/_gbstools/gbdk/lib/sm83/sm83.lib
                                          [ memcpy.o ]
C:\Users\steve\AppData\Local\Temp/_gbstools/gbdk/lib/sm83/sm83.lib
                                          [ _memset.o ]
C:\Users\steve\AppData\Local\Temp/_gbstools/gbdk/lib/gb/gb.lib
                                          [ set_xy_t.o ]
C:\Users\steve\AppData\Local\Temp/_gbstools/gbdk/lib/gb/gb.lib
                                          [ ___sdcc_bcall_ehl.o ]
C:\Users\steve\AppData\Local\Temp/_gbstools/gbdk/lib/gb/gb.lib
                                          [ cgb.o ]
C:\Users\steve\AppData\Local\Temp/_gbstools/gbdk/lib/sm83/sm83.lib
                                          [ div.o ]
C:\Users\steve\AppData\Local\Temp/_gbstools/gbdk/lib/gb/gb.lib
                                          [ set_bk_t.o ]

ASxxxx Linker V03.00/V05.40 + sdld,  page 214.

User Base Address Definitions

_DATA=0xC0A0
_CODE=0x0200
ASxxxx Linker V03.00/V05.40 + sdld,  page 215.

User Global Definitions

.STACK=0xDF00
_shadow_OAM=0xC000
.refresh_OAM=0xFF80
__start_save=60

