ASxxxx Linker V03.00/V05.40 + sdld,  page 1.
Hexadecimal  [32-Bits]

Area                                    Addr        Size        Decimal Bytes (Attributes)
--------------------------------        ----        ----        ------- ----- ------------
.  .ABS.                            00000000    00000000 =           0. bytes (ABS,CON)

      Value  Global                              Global Defined In Module
      -----  --------------------------------   ------------------------
     00000000  .__.ABS.                           
     00000000  _rRAMG                             
     00000000  l__BASE                         
     00000000  l__BSS                          
     00000000  l__CABS                         
     00000000  l__CODE_0                       
     00000000  l__CRASH_HEADER                 
     00000000  l__CRASH_SCRATCH                
     00000000  l__DABS                         
     00000000  l__HEADER                       
     00000000  l__HEADER_LCD                   
     00000000  l__HEADER_SIO                   
     00000000  l__HEADER_TIMER                 
     00000000  l__HEAP                         
     00000000  l__HEAP_END                     
     00000000  l__HRAM                         
     00000000  l__LIT                          
     00000000  s__CABS                         
     00000000  s__CRASH_HEADER                 
     00000000  s__CRASH_HEADER0                
     00000000  s__CRASH_HEADER1                
     00000000  s__CRASH_SCRATCH                
     00000000  s__CRASH_SCRATCH2               
     00000000  s__DABS                         
     00000000  s__HEADER                       
     00000000  s__HEADER0                      
     00000000  s__HEADER1                      
     00000000  s__HEADER10                     
     00000000  s__HEADER11                     
     00000000  s__HEADER2                      
     00000000  s__HEADER3                      
     00000000  s__HEADER4                      
     00000000  s__HEADER5                      
     00000000  s__HEADER6                      
     00000000  s__HEADER7                      
     00000000  s__HEADER8                      
     00000000  s__HEADER9                      
     00000000  s__HEADER_LCD                   
     00000000  s__HEADER_LCD0                  
     00000000  s__HEADER_SIO                   
     00000000  s__HEADER_SIO0                  
     00000000  s__HEADER_TIMER                 
     00000000  s__HEADER_TIMER0                
     00000000  s__HEADERa                      
     00000000  s__HEADERb                      
     00000000  s__HEADERc                      
     00000000  s__HEADERd                      
     00000000  s__HEADERe                      
     00000000  s__HEADERf                      
     00000000  s__HRAM                         
ASxxxx Linker V03.00/V05.40 + sdld,  page 2.
Hexadecimal  [32-Bits]

Area                                    Addr        Size        Decimal Bytes (Attributes)
--------------------------------        ----        ----        ------- ----- ------------
.  .ABS.                            00000000    00000000 =           0. bytes (ABS,CON)

      Value  Global                              Global Defined In Module
      -----  --------------------------------   ------------------------
     00000000  s__HRAM12                       
     00000001  ___bank_VM_SGB                     vm_sgb
     00000001  ___bank_bg_earth_distortion_moun   bg_earth_distortion_mountai_
     00000001  ___bank_script_input_28            script_input_28
     00000001  ___bank_sprite_cedric              sprite_cedric
     00000001  b_do_load_palette                  data_manager
     00000001  b_load_background                  data_manager
     00000001  b_load_bkg_tileset                 data_manager
     00000001  b_load_bounds                      data_manager
     00000001  b_load_emote                       data_manager
     00000001  b_load_init                        data_manager
     00000001  b_load_player                      data_manager
     00000001  b_load_scene                       data_manager
     00000001  b_load_sprite                      data_manager
     00000001  b_ui_draw_frame                    ui
     00000001  b_ui_draw_text_buffer_char         ui
     00000001  b_ui_init                          ui
     00000001  b_ui_load_tiles                    ui
     00000001  b_ui_run_menu                      ui
     00000001  b_ui_run_modal                     ui
     00000001  b_ui_set_start_tile                ui
     00000001  l__GSFINAL                      
     00000001  l__HEADER0                      
     00000001  l__HEADER5                      
     00000001  l__HEADERa                      
     00000001  l__HEADERb                      
     00000001  l__HEADERc                      
     00000001  l__HEADERe                      
     00000001  l__HEADERf                      
     00000002  ___bank_bg_luna_serenity_waterfr   bg_luna_serenity_waterfront_
     00000002  ___bank_bg_venus_landing_site_ti   bg_venus_landing_site_tilema
     00000002  ___bank_scene_5_init               scene_5_init
     00000002  l__HEADER10                     
     00000002  l__HEADER6                      
     00000002  l__HEADERd                      
     00000003  ___bank_bg_title_tileset           bg_title_tileset
     00000003  ___bank_bg_venus_landing_site_ti   bg_venus_landing_site_tilema
     00000003  ___bank_scene_59_init              scene_59_init
     00000003  l__HEADER9                      
     00000003  l__HEADER_LCD0                  
     00000003  l__HRAM12                       
     00000004  ___bank_bg_venus_landing_site_ti   bg_venus_landing_site_tilese
     00000004  ___bank_scene_42_collisions        scene_42_collisions
     00000004  ___bank_script_10                  script_10
     00000004  l__CRASH_HEADER1                
     00000004  l__HEADER_SIO0                  
     00000004  l__HEADER_TIMER0                
     00000005  ___bank_actor_0_update             actor_0_update
     00000005  ___bank_bg_earth_distortion_moun   bg_earth_distortion_mountai_
     00000005  ___bank_scene_40_init              scene_40_init
     00000005  l__CRASH_HEADER0                
ASxxxx Linker V03.00/V05.40 + sdld,  page 3.
Hexadecimal  [32-Bits]

Area                                    Addr        Size        Decimal Bytes (Attributes)
--------------------------------        ----        ----        ------- ----- ------------
.  .ABS.                            00000000    00000000 =           0. bytes (ABS,CON)

      Value  Global                              Global Defined In Module
      -----  --------------------------------   ------------------------
     00000005  l__HEADER1                      
     00000006  ___bank_bg_temporal_light_backgr   bg_temporal_light_backgroun_
     00000006  ___bank_scene_13_collisions        scene_13_collisions
     00000006  ___bank_scene_4_init               scene_4_init
     00000006  l__HEADER8                      
     00000007  ___bank_bg_earth_burnclaw_forest   bg_earth_burnclaw_forest_til
     00000007  ___bank_bg_placeholder_tileset     bg_placeholder_tileset
     00000007  ___bank_bg_warning_tileset         bg_warning_tileset
     00000007  ___bank_scene_1_sprites            scene_1_sprites
     00000007  l__HEADER2                      
     00000008  ___bank_bg_earth_burnclaw_forest   bg_earth_burnclaw_forest_til
     00000008  ___bank_sprite_ember_foxphoenix    sprite_ember_foxphoenix
     00000008  ___bank_tileset_hud_ui             tileset_hud_ui
     00000008  ___bank_trigger_180_interact       trigger_180_interact
     00000008  l__HEADER3                      
     00000009  ___bank_bg_earth_shuttle_bay_upp   bg_earth_shuttle_bay_upper_t
     00000009  ___bank_scene_19_sprites           scene_19_sprites
     00000009  ___bank_sprite_perlite_animated    sprite_perlite_animated
     00000009  b_platform_init                    platform
     00000009  b_platform_update                  platform
     0000000A  ___bank_ACTOR                      actor
     0000000A  ___bank_bg_earth_shuttle_bay_upp   bg_earth_shuttle_bay_upper_t
     0000000A  ___bank_bg_luna_water_heater_til   bg_luna_water_heater_tileset
     0000000A  ___bank_scene_26_sprites           scene_26_sprites
     0000000A  b_activate_actor                   actor
     0000000A  b_activate_actors_in_col           actor
     0000000A  b_activate_actors_in_row           actor
     0000000A  b_actor_at_tile                    actor
     0000000A  b_actor_get_frame_offset           actor
     0000000A  b_actor_in_front_of_player         actor
     0000000A  b_actor_overlapping_bb             actor
     0000000A  b_actor_overlapping_player         actor
     0000000A  b_actor_set_anim_idle              actor
     0000000A  b_actor_set_anim_moving            actor
     0000000A  b_actor_set_dir                    actor
     0000000A  b_actor_set_frame_offset           actor
     0000000A  b_actor_set_frames                 actor
     0000000A  b_actors_handle_player_collision   actor
     0000000A  b_actors_init                      actor
     0000000A  b_check_collision_in_direction     actor
     0000000A  b_deactivate_actor                 actor
     0000000A  b_player_init                      actor
     0000000B  ___bank_bg_earth_level_1_intro_t   bg_earth_level_1_intro_tilem
     0000000B  ___bank_scene_11_collisions        scene_11_collisions
     0000000B  ___bank_scene_6_sprites            scene_6_sprites
     0000000B  ___bank_song_featherfire_deprese   song_featherfire_depresed_0_
     0000000C  ___bank_bg_earth_level_1_intro_t   bg_earth_level_1_intro_tilem
     0000000C  ___bank_scene_14_collisions        scene_14_collisions
     0000000C  ___bank_script_input_2             script_input_2
     0000000C  ___bank_song_featherfire_deprese   song_featherfire_depresed0_D
     0000000D  ___bank_bg_luna_serenity_waterfr   bg_luna_serenity_waterfront_
ASxxxx Linker V03.00/V05.40 + sdld,  page 4.
Hexadecimal  [32-Bits]

Area                                    Addr        Size        Decimal Bytes (Attributes)
--------------------------------        ----        ----        ------- ----- ------------
.  .ABS.                            00000000    00000000 =           0. bytes (ABS,CON)

      Value  Global                              Global Defined In Module
      -----  --------------------------------   ------------------------
     0000000D  ___bank_scene_10_init              scene_10_init
     0000000D  ___bank_song_blight_of_light_0_D   song_blight_of_light_0_Data
     0000000E  ___bank_bg_luna_serenity_waterfr   bg_luna_serenity_waterfront_
     0000000E  ___bank_script_input_22            script_input_22
     0000000E  ___bank_song_featherfire_deprese   song_featherfire_depresed_Da
     0000000F  ___bank_bg_luna_peryil_s_house_t   bg_luna_peryil_s_house_tilem
     0000000F  ___bank_bg_luna_water_heater_til   bg_luna_water_heater_tilemap
     0000000F  ___bank_scene_27_sprites           scene_27_sprites
     0000000F  ___bank_sprite_jem_animated        sprite_jem_animated
     00000010  ___bank_actor_64_interact          actor_64_interact
     00000010  ___bank_bg_luna_peryil_s_house_t   bg_luna_peryil_s_house_tilem
     00000010  ___bank_bg_luna_water_heater_til   bg_luna_water_heater_tilemap
     00000010  ___bank_scene_43_actors            scene_43_actors
     00000011  ___bank_actor_65_interact          actor_65_interact
     00000011  ___bank_bg_mercury_landing_site_   bg_mercury_landing_site_tile
     00000011  ___bank_scene_17_collisions        scene_17_collisions
     00000011  ___bank_scene_6_actors             scene_6_actors
     00000012  ___bank_bg_game_menu_tilemap_att   bg_game_menu_tilemap_attr
     00000012  ___bank_bg_mercury_landing_site_   bg_mercury_landing_site_tile
     00000012  ___bank_scene_14_triggers          scene_14_triggers
     00000012  ___bank_scene_19_collisions        scene_19_collisions
     00000013  ___bank_bg_game_menu_tilemap       bg_game_menu_tilemap
     00000013  ___bank_bg_mercury_overflow_pass   bg_mercury_overflow_passage_
     00000013  ___bank_scene_15_triggers          scene_15_triggers
     00000013  ___bank_scene_20_collisions        scene_20_collisions
     00000014  ___bank_bg_hud_ui_tilemap_attr     bg_hud_ui_tilemap_attr
     00000014  ___bank_bg_mercury_overflow_pass   bg_mercury_overflow_passage_
     00000014  ___bank_scene_27_triggers          scene_27_triggers
     00000014  ___bank_scene_29_collisions        scene_29_collisions
     00000015  ___bank_bg_hud_ui_tilemap          bg_hud_ui_tilemap
     00000015  ___bank_bg_mercury_poison_proces   bg_mercury_poison_processin_
     00000015  ___bank_scene_30_collisions        scene_30_collisions
     00000015  ___bank_scene_43_triggers          scene_43_triggers
     00000016  ___bank_bg_jems_background_tilem   bg_jems_background_tilemap_a
     00000016  ___bank_bg_mercury_poison_proces   bg_mercury_poison_processin_
     00000016  ___bank_scene_39_collisions        scene_39_collisions
     00000016  ___bank_script_timer_90            script_timer_90
     00000017  ___bank_bg_jems_background_tilem   bg_jems_background_tilemap
     00000017  ___bank_bg_mercury_poison_storag   bg_mercury_poison_storage_ti
     00000017  ___bank_scene_1_projectiles        scene_1_projectiles
     00000017  ___bank_scene_52_collisions        scene_52_collisions
     00000018  ___bank_bg_level_1_tilemap_attr    bg_level_1_tilemap_attr
     00000018  ___bank_bg_mercury_poison_storag   bg_mercury_poison_storage_ti
     00000018  ___bank_scene_10_projectiles       scene_10_projectiles
     00000018  ___bank_scene_53_collisions        scene_53_collisions
     00000019  ___bank_bg_luna_sewer_system_til   bg_luna_sewer_system_tileset
     00000019  ___bank_bg_mercury_projectile_pl   bg_mercury_projectile_platf_
     00000019  ___bank_bg_platformer_test01_til   bg_platformer_test01_tilemap
     00000019  ___bank_trigger_184_interact       trigger_184_interact
     0000001A  ___bank_bg_mercury_projectile_pl   bg_mercury_projectile_platf_
     0000001A  ___bank_bg_platformer_test01_til   bg_platformer_test01_tilemap
ASxxxx Linker V03.00/V05.40 + sdld,  page 5.
Hexadecimal  [32-Bits]

Area                                    Addr        Size        Decimal Bytes (Attributes)
--------------------------------        ----        ----        ------- ----- ------------
.  .ABS.                            00000000    00000000 =           0. bytes (ABS,CON)

      Value  Global                              Global Defined In Module
      -----  --------------------------------   ------------------------
     0000001A  ___bank_bg_venus_dropshaft_0_til   bg_venus_dropshaft_0_tileset
     0000001A  ___bank_trigger_185_interact       trigger_185_interact
     0000001A  l__INITIALIZED                  
     0000001A  l__INITIALIZER                  
     0000001B  ___bank_bg_mercury_projectile_pl   bg_mercury_projectile_platf_
     0000001B  ___bank_bg_mercury_viewing_area_   bg_mercury_viewing_area_tile
     0000001B  ___bank_scene_8_collisions         scene_8_collisions
     0000001B  b_camera_init                      camera
     0000001C  ___bank_actor_63_update            actor_63_update
     0000001C  ___bank_bg_mercury_viewing_area_   bg_mercury_viewing_area_tile
     0000001C  ___bank_script_7                   script_7
     0000001C  ___bank_song_featherfire_ember_D   song_featherfire_ember_Data
     0000001D  ___bank_VM_GAMEBOY                 vm_gameboy
     0000001D  ___bank_bg_mercury_landing_site_   bg_mercury_landing_site_cgb_
     0000001D  ___bank_scene_22_collisions        scene_22_collisions
     0000001D  ___bank_song_featherfire_cedric_   song_featherfire_cedric_Data
     0000001D  b_vm_context_prepare               vm_gameboy
     0000001D  b_vm_fade                          vm_gameboy
     0000001D  b_vm_get_tile_xy                   vm_gameboy
     0000001D  b_vm_input_attach                  vm_gameboy
     0000001D  b_vm_input_detach                  vm_gameboy
     0000001D  b_vm_input_get                     vm_gameboy
     0000001D  b_vm_input_wait                    vm_gameboy
     0000001D  b_vm_load_tileset                  vm_gameboy
     0000001D  b_vm_poll                          vm_gameboy
     0000001D  b_vm_replace_tile                  vm_gameboy
     0000001D  b_vm_replace_tile_xy               vm_gameboy
     0000001D  b_vm_rumble                        vm_gameboy
     0000001D  b_vm_set_sprite_mode               vm_gameboy
     0000001D  b_vm_set_sprites_visible           vm_gameboy
     0000001D  b_vm_timer_prepare                 vm_gameboy
     0000001D  b_vm_timer_reset                   vm_gameboy
     0000001D  b_vm_timer_set                     vm_gameboy
     0000001D  b_vm_timer_stop                    vm_gameboy
     0000001E  ___bank_VM_ACTOR                   vm_actor
     0000001E  ___bank_scene_25_collisions        scene_25_collisions
     0000001E  ___bank_script_timer_0             script_timer_0
     0000001E  b_adventure_init                   adventure
     0000001E  b_adventure_update                 adventure
     0000001E  b_vm_actor_activate                vm_actor
     0000001E  b_vm_actor_begin_update            vm_actor
     0000001E  b_vm_actor_deactivate              vm_actor
     0000001E  b_vm_actor_emote                   vm_actor
     0000001E  b_vm_actor_get_angle               vm_actor
     0000001E  b_vm_actor_get_anim_frame          vm_actor
     0000001E  b_vm_actor_get_dir                 vm_actor
     0000001E  b_vm_actor_get_pos                 vm_actor
     0000001E  b_vm_actor_move_cancel             vm_actor
     0000001E  b_vm_actor_move_to                 vm_actor
     0000001E  b_vm_actor_replace_tile            vm_actor
     0000001E  b_vm_actor_set_anim                vm_actor
ASxxxx Linker V03.00/V05.40 + sdld,  page 6.
Hexadecimal  [32-Bits]

Area                                    Addr        Size        Decimal Bytes (Attributes)
--------------------------------        ----        ----        ------- ----- ------------
.  .ABS.                            00000000    00000000 =           0. bytes (ABS,CON)

      Value  Global                              Global Defined In Module
      -----  --------------------------------   ------------------------
     0000001E  b_vm_actor_set_anim_frame          vm_actor
     0000001E  b_vm_actor_set_anim_set            vm_actor
     0000001E  b_vm_actor_set_anim_tick           vm_actor
     0000001E  b_vm_actor_set_bounds              vm_actor
     0000001E  b_vm_actor_set_dir                 vm_actor
     0000001E  b_vm_actor_set_flags               vm_actor
     0000001E  b_vm_actor_set_move_speed          vm_actor
     0000001E  b_vm_actor_set_pos                 vm_actor
     0000001E  b_vm_actor_set_spritesheet         vm_actor
     0000001E  b_vm_actor_set_spritesheet_by_re   vm_actor
     0000001E  b_vm_actor_terminate_update        vm_actor
     0000001F  ___bank_bg_earth_burnclaw_forest   bg_earth_burnclaw_forest_ca_
     0000001F  ___bank_bg_earth_burnclaw_forest   bg_earth_burnclaw_forest_cr_
     0000001F  ___bank_scene_28_projectiles       scene_28_projectiles
     0000001F  ___bank_scene_31_collisions        scene_31_collisions
     00000020  ___bank_VM_UI                      vm_ui
     00000020  ___bank_bg_earth_burnclaw_forest   bg_earth_burnclaw_forest_ca_
     00000020  ___bank_scene_33_collisions        scene_33_collisions
     00000020  ___bank_scene_51_triggers          scene_51_triggers
     00000020  b_vm_choice                        vm_ui
     00000020  b_vm_display_text                  vm_ui
     00000020  b_vm_overlay_clear                 vm_ui
     00000020  b_vm_overlay_move_to               vm_ui
     00000020  b_vm_overlay_scroll                vm_ui
     00000020  b_vm_overlay_set_map               vm_ui
     00000020  b_vm_overlay_set_scroll            vm_ui
     00000020  b_vm_overlay_set_submap            vm_ui
     00000020  b_vm_overlay_set_submap_ex         vm_ui
     00000020  b_vm_overlay_setpos                vm_ui
     00000020  b_vm_overlay_show                  vm_ui
     00000020  b_vm_overlay_wait                  vm_ui
     00000020  b_vm_set_font                      vm_ui
     00000020  b_vm_set_text_sound                vm_ui
     00000020  b_vm_switch_text_layer             vm_ui
     00000021  ___bank_bg_luna_serenity_cave_up   bg_luna_serenity_cave_upper_
     00000021  ___bank_scene_34_collisions        scene_34_collisions
     00000021  ___bank_script_input_0             script_input_0
     00000021  b_scroll_init                      scroll
     00000021  b_scroll_repaint                   scroll
     00000021  b_scroll_reset                     scroll
     00000021  b_scroll_update                    scroll
     00000022  ___bank_bg_luna_serenity_cave_up   bg_luna_serenity_cave_upper_
     00000022  ___bank_scene_35_collisions        scene_35_collisions
     00000022  ___bank_script_input_10            script_input_10
     00000022  ___bank_trigger_190_interact       trigger_190_interact
     00000022  b_topdown_init                     topdown
     00000022  b_topdown_update                   topdown
     00000023  ___bank_bg_jems_background_tiles   bg_jems_background_tileset
     00000023  ___bank_bg_luna_serenity_forest_   bg_luna_serenity_forest_tile
     00000023  ___bank_scene_36_collisions        scene_36_collisions
     00000023  ___bank_scene_43_sprites           scene_43_sprites
ASxxxx Linker V03.00/V05.40 + sdld,  page 7.
Hexadecimal  [32-Bits]

Area                                    Addr        Size        Decimal Bytes (Attributes)
--------------------------------        ----        ----        ------- ----- ------------
.  .ABS.                            00000000    00000000 =           0. bytes (ABS,CON)

      Value  Global                              Global Defined In Module
      -----  --------------------------------   ------------------------
     00000023  ___bank_sprite_flare_static        sprite_flare_static
     00000024  ___bank_actor_2_interact           actor_2_interact
     00000024  ___bank_bg_luna_serenity_forest_   bg_luna_serenity_forest_tile
     00000024  ___bank_scene_37_collisions        scene_37_collisions
     00000024  ___bank_script_3                   script_3
     00000025  ___bank_song_alchemist_energy_0_   song_alchemist_energy_0_Data
     00000025  ___bank_song_lunabound_Data        song_lunabound_Data
     00000025  ___bank_trigger_116_interact       trigger_116_interact
     00000025  ___bank_trigger_120_interact       trigger_120_interact
     00000026  ___bank_bg_luna_serenity_outskir   bg_luna_serenity_outskirts_t
     00000026  ___bank_scene_10_triggers          scene_10_triggers
     00000026  ___bank_song_alchemist_energy_ba   song_alchemist_energy_battl_
     00000026  ___bank_song_wolfsbane_castle_Da   song_wolfsbane_castle_Data
     00000027  ___bank_bg_luna_serenity_outskir   bg_luna_serenity_outskirts_t
     00000027  ___bank_bg_luna_sewer_system_til   bg_luna_sewer_system_tilemap
     00000027  ___bank_bg_luna_sewer_system_til   bg_luna_sewer_system_tilemap
     00000027  ___bank_scene_30_init              scene_30_init
     00000027  ___bank_scene_55_init              scene_55_init
     00000027  ___bank_trigger_181_interact       trigger_181_interact
     00000027  l__GSINIT                       
     00000028  ___bank_actor_46_update            actor_46_update
     00000028  ___bank_bg_level_1_tilemap         bg_level_1_tilemap
     00000028  ___bank_bg_venus_ac_ventilation2   bg_venus_ac_ventilation2_til
     00000028  ___bank_bg_venus_ac_ventilation_   bg_venus_ac_ventilation_tile
     00000028  ___bank_bg_venus_ac_ventilation_   bg_venus_ac_ventilation_tile
     00000028  ___bank_scene_47_sprites           scene_47_sprites
     00000029  ___bank_bg_earth_shuttle_bay_wat   bg_earth_shuttle_bay_water_t
     00000029  ___bank_bg_level_2_tilemap_attr    bg_level_2_tilemap_attr
     00000029  ___bank_bg_venus_ac_ventilation2   bg_venus_ac_ventilation2_til
     00000029  ___bank_bg_venus_office_access_t   bg_venus_office_access_tilem
     00000029  ___bank_bg_venus_office_access_t   bg_venus_office_access_tilem
     00000029  ___bank_scene_11_projectiles       scene_11_projectiles
     0000002A  ___bank_bg_earth_shuttle_bay_wat   bg_earth_shuttle_bay_water_t
     0000002A  ___bank_bg_level_2_tilemap         bg_level_2_tilemap
     0000002A  ___bank_bg_venus_police_departme   bg_venus_police_department__
     0000002A  ___bank_bg_venus_police_departme   bg_venus_police_department__
     0000002A  ___bank_scene_12_projectiles       scene_12_projectiles
     0000002A  ___bank_scene_15_collisions        scene_15_collisions
     0000002B  ___bank_bg_menu_load_background_   bg_menu_load_background_tile
     0000002B  ___bank_bg_mercury_secret_area_t   bg_mercury_secret_area_tilem
     0000002B  ___bank_scene_13_projectiles       scene_13_projectiles
     0000002B  ___bank_scene_21_collisions        scene_21_collisions
     0000002B  ___bank_scene_23_collisions        scene_23_collisions
     0000002B  ___bank_scene_24_collisions        scene_24_collisions
     0000002C  ___bank_bg_menu_load_background_   bg_menu_load_background_tile
     0000002C  ___bank_bg_mercury_secret_area_t   bg_mercury_secret_area_tilem
     0000002C  ___bank_scene_14_projectiles       scene_14_projectiles
     0000002C  ___bank_scene_26_collisions        scene_26_collisions
     0000002C  ___bank_scene_43_collisions        scene_43_collisions
     0000002C  ___bank_scene_44_collisions        scene_44_collisions
     0000002D  ___bank_bg_placeholder_tilemap_a   bg_placeholder_tilemap_attr
ASxxxx Linker V03.00/V05.40 + sdld,  page 8.
Hexadecimal  [32-Bits]

Area                                    Addr        Size        Decimal Bytes (Attributes)
--------------------------------        ----        ----        ------- ----- ------------
.  .ABS.                            00000000    00000000 =           0. bytes (ABS,CON)

      Value  Global                              Global Defined In Module
      -----  --------------------------------   ------------------------
     0000002D  ___bank_bg_venus_evidence_room_t   bg_venus_evidence_room_tilem
     0000002D  ___bank_scene_15_projectiles       scene_15_projectiles
     0000002D  ___bank_scene_45_collisions        scene_45_collisions
     0000002D  ___bank_scene_46_collisions        scene_46_collisions
     0000002D  ___bank_scene_54_collisions        scene_54_collisions
     0000002E  ___bank_bg_level_2_cgb_tileset     bg_level_2_cgb_tileset
     0000002E  ___bank_scene_29_sprites           scene_29_sprites
     0000002E  ___bank_scene_55_collisions        scene_55_collisions
     0000002E  ___bank_script_4                   script_4
     0000002E  ___bank_song_wolfsbane_castle_co   song_wolfsbane_castle_copy_D
     0000002F  ___bank_actor_10_update            actor_10_update
     0000002F  ___bank_bg_earth_shuttle_bay_til   bg_earth_shuttle_bay_tilemap
     0000002F  ___bank_scene_39_init              scene_39_init
     0000002F  ___bank_scene_41_init              scene_41_init
     0000002F  ___bank_song_unknown_wilds_Data    song_unknown_wilds_Data
     00000030  ___bank_bg_earth_shuttle_bay_til   bg_earth_shuttle_bay_tilemap
     00000030  ___bank_scene_30_sprites           scene_30_sprites
     00000030  ___bank_scene_9_collisions         scene_9_collisions
     00000030  ___bank_script_input_26            script_input_26
     00000030  ___bank_song_uncertain_wilds_0_D   song_uncertain_wilds_0_Data
     00000030  ___bank_song_wolf_city_distiorti   song_wolf_city_distiortion__
     00000030  l__HEADER7                      
     00000031  ___bank_VM_MAIN                    vm
     00000031  ___bank_bootstrap_script           
     00000031  ___bank_font_gbs_mono              font_gbs_mono
     00000031  ___bank_script_timer_98            script_timer_98
     00000031  ___bank_song_taking_flight_0_Dat   song_taking_flight_0_Data
     00000031  ___bank_song_uncertain_wilds_cop   song_uncertain_wilds_copy_Da
     00000031  b_script_detach_hthread            vm
     00000031  b_script_execute                   vm
     00000031  b_script_runner_init               vm
     00000031  b_script_terminate                 vm
     00000031  b_vm_call                          vm
     00000031  b_vm_call_far                      vm
     00000031  b_vm_get_indirect                  vm
     00000031  b_vm_get_tlocal                    vm
     00000031  b_vm_idle                          vm
     00000031  b_vm_if                            vm
     00000031  b_vm_if_const                      vm
     00000031  b_vm_init_rng                      vm
     00000031  b_vm_invoke                        vm
     00000031  b_vm_join                          vm
     00000031  b_vm_jump                          vm
     00000031  b_vm_lock                          vm
     00000031  b_vm_loop                          vm
     00000031  b_vm_memcpy                        vm
     00000031  b_vm_memset                        vm
     00000031  b_vm_poll_loaded                   vm
     00000031  b_vm_pop                           vm
     00000031  b_vm_push                          vm
     00000031  b_vm_push_reference                vm
ASxxxx Linker V03.00/V05.40 + sdld,  page 9.
Hexadecimal  [32-Bits]

Area                                    Addr        Size        Decimal Bytes (Attributes)
--------------------------------        ----        ----        ------- ----- ------------
.  .ABS.                            00000000    00000000 =           0. bytes (ABS,CON)

      Value  Global                              Global Defined In Module
      -----  --------------------------------   ------------------------
     00000031  b_vm_push_value                    vm
     00000031  b_vm_push_value_ind                vm
     00000031  b_vm_raise                         vm
     00000031  b_vm_rand                          vm
     00000031  b_vm_reserve                       vm
     00000031  b_vm_ret                           vm
     00000031  b_vm_ret_far                       vm
     00000031  b_vm_set                           vm
     00000031  b_vm_set_const                     vm
     00000031  b_vm_set_indirect                  vm
     00000031  b_vm_terminate                     vm
     00000031  b_vm_test_terminate                vm
     00000031  b_vm_unlock                        vm
     00000031  b_wait_frames                      vm
     00000032  ___bank_bg_luna_serenity_cave_lo   bg_luna_serenity_cave_lower_
     00000032  ___bank_bg_luna_serenity_cave_lo   bg_luna_serenity_cave_lower_
     00000032  ___bank_bg_mercury_throne_room_t   bg_mercury_throne_room_tilem
     00000032  ___bank_scene_27_collisions        scene_27_collisions
     00000032  ___bank_script_13                  script_13
     00000033  ___bank_bg_level_2_tileset         bg_level_2_tileset
     00000033  ___bank_bg_mercury_throne_room_t   bg_mercury_throne_room_tilem
     00000033  ___bank_bg_venus_defence_tunnel_   bg_venus_defence_tunnel_tile
     00000033  ___bank_scene_28_init              scene_28_init
     00000033  ___bank_scene_29_init              scene_29_init
     00000033  ___bank_scene_31_sprites           scene_31_sprites
     00000033  ___bank_scene_38_collisions        scene_38_collisions
     00000034  ___bank_bg_placeholder_tilemap     bg_placeholder_tilemap
     00000034  ___bank_bg_venus_defence_tunnel_   bg_venus_defence_tunnel_tile
     00000034  ___bank_bg_venus_dropshaft_0_til   bg_venus_dropshaft_0_tilemap
     00000034  ___bank_bg_venus_dropshaft_0_til   bg_venus_dropshaft_0_tilemap
     00000034  ___bank_bg_venus_dropshaft_1_til   bg_venus_dropshaft_1_tilemap
     00000034  ___bank_bg_venus_dropshaft_1_til   bg_venus_dropshaft_1_tilemap
     00000034  ___bank_bg_venus_evidence_room_t   bg_venus_evidence_room_tilem
     00000034  ___bank_scene_16_projectiles       scene_16_projectiles
     00000034  ___bank_scene_47_collisions        scene_47_collisions
     00000035  ___bank_bg_earth_distortion_moun   bg_earth_distortion_mountai_
     00000035  ___bank_bg_earth_level_1_intro_t   bg_earth_level_1_intro_tiles
     00000035  ___bank_bg_earth_shuttle_bay_til   bg_earth_shuttle_bay_tileset
     00000035  ___bank_bg_level_1_tileset         bg_level_1_tileset
     00000035  ___bank_scene_49_collisions        scene_49_collisions
     00000035  ___bank_scene_50_collisions        scene_50_collisions
     00000035  ___bank_scene_53_init              scene_53_init
     00000035  ___bank_script_11                  script_11
     00000035  ___bank_trigger_182_interact       trigger_182_interact
     00000036  ___bank_bg_hud_ui_tileset          bg_hud_ui_tileset
     00000036  ___bank_bg_luna_peryil_s_house_t   bg_luna_peryil_s_house_tiles
     00000036  ___bank_bg_luna_serenity_forest_   bg_luna_serenity_forest_tile
     00000036  ___bank_bg_menu_load_background_   bg_menu_load_background_tile
     00000036  ___bank_bg_mercury_landing_site_   bg_mercury_landing_site_tile
     00000036  ___bank_bg_mercury_overflow_pass   bg_mercury_overflow_passage_
     00000036  ___bank_bg_mercury_poison_proces   bg_mercury_poison_processin_
ASxxxx Linker V03.00/V05.40 + sdld,  page 10.
Hexadecimal  [32-Bits]

Area                                    Addr        Size        Decimal Bytes (Attributes)
--------------------------------        ----        ----        ------- ----- ------------
.  .ABS.                            00000000    00000000 =           0. bytes (ABS,CON)

      Value  Global                              Global Defined In Module
      -----  --------------------------------   ------------------------
     00000036  ___bank_bg_mercury_poison_storag   bg_mercury_poison_storage_ti
     00000037  ___bank_bg_earth_burnclaw_forest   bg_earth_burnclaw_forest_til
     00000037  ___bank_bg_mercury_projectile_pl   bg_mercury_projectile_platf_
     00000037  ___bank_bg_mercury_throne_room_t   bg_mercury_throne_room_tiles
     00000037  ___bank_bg_mercury_viewing_area_   bg_mercury_viewing_area_tile
     00000037  ___bank_bg_settings_tileset        bg_settings_tileset
     00000037  ___bank_scene_12_collisions        scene_12_collisions
     00000037  ___bank_scene_32_collisions        scene_32_collisions
     00000037  ___bank_scene_51_collisions        scene_51_collisions
     00000037  ___bank_sprite_ember_stationary    sprite_ember_stationary
     00000037  ___bank_trigger_183_interact       trigger_183_interact
     00000037  b_shmup_init                       shmup
     00000037  b_shmup_update                     shmup
     00000038  ___bank_bg_blight_s_memory_p1_ti   bg_blight_s_memory_p1_tilese
     00000038  ___bank_bg_earth_burnclaw_forest   bg_earth_burnclaw_forest_cr_
     00000038  ___bank_bg_earth_burnclaw_forest   bg_earth_burnclaw_forest_cr_
     00000038  ___bank_bg_earth_shuttle_bay_wat   bg_earth_shuttle_bay_water_t
     00000038  ___bank_bg_game_menu_tileset       bg_game_menu_tileset
     00000038  ___bank_bg_luna_serenity_cave_up   bg_luna_serenity_cave_upper_
     00000038  ___bank_bg_luna_serenity_outskir   bg_luna_serenity_outskirts_t
     00000038  ___bank_bg_venus_office_access_t   bg_venus_office_access_tiles
     00000038  ___bank_bg_venus_police_departme   bg_venus_police_department__
     00000038  ___bank_scene_16_collisions        scene_16_collisions
     00000038  ___bank_scene_16_init              scene_16_init
     00000038  ___bank_scene_18_init              scene_18_init
     00000038  ___bank_scene_54_sprites           scene_54_sprites
     00000038  b_fade_applypalettechange          fade_manager
     00000038  b_fade_in                          fade_manager
     00000038  b_fade_in_modal                    fade_manager
     00000038  b_fade_init                        fade_manager
     00000038  b_fade_out                         fade_manager
     00000038  b_fade_out_modal                   fade_manager
     00000038  b_fade_setspeed                    fade_manager
     00000038  b_fade_update                      fade_manager
     00000039  ___bank_VM_CAMERA                  vm_camera
     00000039  ___bank_bg_blight_s_memory_p1_ti   bg_blight_s_memory_p1_tilema
     00000039  ___bank_bg_blight_s_memory_p1_ti   bg_blight_s_memory_p1_tilema
     00000039  ___bank_bg_earth_burnclaw_forest   bg_earth_burnclaw_forest_ca_
     00000039  ___bank_bg_earth_shuttle_bay_cgb   bg_earth_shuttle_bay_cgb_til
     00000039  ___bank_bg_earth_shuttle_bay_upp   bg_earth_shuttle_bay_upper_t
     00000039  ___bank_bg_level_1_cgb_tileset     bg_level_1_cgb_tileset
     00000039  ___bank_bg_mercury_secret_area_t   bg_mercury_secret_area_tiles
     00000039  ___bank_bg_platformer_test01_til   bg_platformer_test01_tileset
     00000039  ___bank_bg_settings_tilemap_attr   bg_settings_tilemap_attr
     00000039  ___bank_bg_venus_ac_ventilation_   bg_venus_ac_ventilation_tile
     00000039  ___bank_bg_venus_dropshaft_1_til   bg_venus_dropshaft_1_tileset
     00000039  ___bank_scene_31_init              scene_31_init
     00000039  ___bank_scene_40_collisions        scene_40_collisions
     00000039  b_camera_shake_frames              vm_camera
     00000039  b_core_reset                       core
     00000039  b_core_run                         core
ASxxxx Linker V03.00/V05.40 + sdld,  page 11.
Hexadecimal  [32-Bits]

Area                                    Addr        Size        Decimal Bytes (Attributes)
--------------------------------        ----        ----        ------- ----- ------------
.  .ABS.                            00000000    00000000 =           0. bytes (ABS,CON)

      Value  Global                              Global Defined In Module
      -----  --------------------------------   ------------------------
     00000039  b_projectile_launch                projectiles
     00000039  b_projectiles_init                 projectiles
     00000039  b_vm_camera_move_to                vm_camera
     00000039  b_vm_camera_set_pos                vm_camera
     0000003A  ___bank_VM_SIO                     vm_sio
     0000003A  ___bank_bg_earth_distortion_moun   bg_earth_distortion_mountai_
     0000003A  ___bank_bg_earth_shuttle_bay_sec   bg_earth_shuttle_bay_secret_
     0000003A  ___bank_bg_luna_boss_room_tilese   bg_luna_boss_room_tileset
     0000003A  ___bank_bg_luna_peryil_s_house_c   bg_luna_peryil_s_house_cgb_t
     0000003A  ___bank_bg_luna_serenity_cave_lo   bg_luna_serenity_cave_lower_
     0000003A  ___bank_bg_mercury_overflow_pass   bg_mercury_overflow_passage_
     0000003A  ___bank_bg_mercury_viewing_area_   bg_mercury_viewing_area_cgb_
     0000003A  ___bank_bg_venus_ac_ventilation2   bg_venus_ac_ventilation2_til
     0000003A  ___bank_bg_venus_evidence_room_t   bg_venus_evidence_room_tiles
     0000003A  ___bank_scene_17_init              scene_17_init
     0000003A  ___bank_scene_18_collisions        scene_18_collisions
     0000003A  ___bank_scene_43_init              scene_43_init
     0000003A  ___bank_scene_51_init              scene_51_init
     0000003A  ___bank_sprite_transparent         sprite_transparent
     0000003A  b___HandleCrash_banked             
     0000003A  b_atan2                            math_atan2
     0000003A  b_data_clear                       load_save
     0000003A  b_data_init                        load_save
     0000003A  b_data_load                        load_save
     0000003A  b_data_peek                        load_save
     0000003A  b_data_save                        load_save
     0000003A  b_gbprinter_detect                 gbprinter
     0000003A  b_gbprinter_print_overlay          gbprinter
     0000003A  b_pointnclick_init                 pointnclick
     0000003A  b_pointnclick_update               pointnclick
     0000003A  b_trigger_activate_at              trigger
     0000003A  b_trigger_activate_at_intersecti   trigger
     0000003A  b_trigger_at_intersection          trigger
     0000003A  b_trigger_at_tile                  trigger
     0000003A  b_trigger_interact                 trigger
     0000003A  b_trigger_reset                    trigger
     0000003A  b_vm_sio_exchange                  vm_sio
     0000003A  b_vm_sio_set_mode                  vm_sio
     0000003B  ___bank_VM_PALETTE                 vm_palette
     0000003B  ___bank_actor_23_interact          actor_23_interact
     0000003B  ___bank_actor_24_update            actor_24_update
     0000003B  ___bank_avatar_font_0              avatar_font_0
     0000003B  ___bank_bg_earth_shuttle_bay_sec   bg_earth_shuttle_bay_secret_
     0000003B  ___bank_bg_earth_shuttle_bay_sec   bg_earth_shuttle_bay_secret_
     0000003B  ___bank_bg_luna_boss_room_tilema   bg_luna_boss_room_tilemap
     0000003B  ___bank_bg_luna_boss_room_tilema   bg_luna_boss_room_tilemap_at
     0000003B  ___bank_bg_luna_serenity_forest_   bg_luna_serenity_forest_cgb_
     0000003B  ___bank_bg_menu_load_background_   bg_menu_load_background_cgb_
     0000003B  ___bank_bg_mercury_poison_storag   bg_mercury_poison_storage_cg
     0000003B  ___bank_bg_mercury_throne_room_c   bg_mercury_throne_room_cgb_t
     0000003B  ___bank_bg_settings_tilemap        bg_settings_tilemap
ASxxxx Linker V03.00/V05.40 + sdld,  page 12.
Hexadecimal  [32-Bits]

Area                                    Addr        Size        Decimal Bytes (Attributes)
--------------------------------        ----        ----        ------- ----- ------------
.  .ABS.                            00000000    00000000 =           0. bytes (ABS,CON)

      Value  Global                              Global Defined In Module
      -----  --------------------------------   ------------------------
     0000003B  ___bank_bg_temporal_light_backgr   bg_temporal_light_backgroun_
     0000003B  ___bank_bg_temporal_light_backgr   bg_temporal_light_backgroun_
     0000003B  ___bank_bg_title_tilemap           bg_title_tilemap
     0000003B  ___bank_bg_title_tilemap_attr      bg_title_tilemap_attr
     0000003B  ___bank_bg_venus_defence_tunnel_   bg_venus_defence_tunnel_tile
     0000003B  ___bank_bg_venus_office_tilemap    bg_venus_office_tilemap
     0000003B  ___bank_bg_venus_office_tilemap_   bg_venus_office_tilemap_attr
     0000003B  ___bank_bg_venus_office_tileset    bg_venus_office_tileset
     0000003B  ___bank_scene_10_collisions        scene_10_collisions
     0000003B  ___bank_scene_20_init              scene_20_init
     0000003B  ___bank_scene_21_init              scene_21_init
     0000003B  ___bank_scene_23_init              scene_23_init
     0000003B  ___bank_scene_28_collisions        scene_28_collisions
     0000003B  ___bank_scene_41_collisions        scene_41_collisions
     0000003B  ___bank_scene_52_init              scene_52_init
     0000003B  ___bank_scene_54_init              scene_54_init
     0000003B  ___bank_scene_9_init               scene_9_init
     0000003B  ___bank_script_2                   script_2
     0000003B  ___bank_script_8                   script_8
     0000003B  ___bank_script_9                   script_9
     0000003B  ___bank_script_input_25            script_input_25
     0000003B  ___bank_sprite_ember_phoenix_cop   sprite_ember_phoenix_copy
     0000003B  ___bank_trigger_192_interact       trigger_192_interact
     0000003B  ___bank_trigger_215_interact       trigger_215_interact
     0000003B  b_set_sgb_border                   sgb_border
     0000003B  b_vm_load_palette                  vm_palette
     0000003C  ___bank_VM_MATH                    vm_math
     0000003C  ___bank_VM_MUSIC                   vm_music
     0000003C  ___bank_VM_PROJECTILE              vm_projectiles
     0000003C  ___bank_VM_RTC                     vm_rtc
     0000003C  ___bank_actor_18_interact          actor_18_interact
     0000003C  ___bank_actor_19_interact          actor_19_interact
     0000003C  ___bank_actor_20_interact          actor_20_interact
     0000003C  ___bank_actor_21_interact          actor_21_interact
     0000003C  ___bank_actor_22_interact          actor_22_interact
     0000003C  ___bank_actor_39_interact          actor_39_interact
     0000003C  ___bank_actor_3_interact           actor_3_interact
     0000003C  ___bank_actor_40_interact          actor_40_interact
     0000003C  ___bank_actor_41_interact          actor_41_interact
     0000003C  ___bank_actor_4_interact           actor_4_interact
     0000003C  ___bank_actor_55_interact          actor_55_interact
     0000003C  ___bank_actor_57_interact          actor_57_interact
     0000003C  ___bank_actor_59_interact          actor_59_interact
     0000003C  ___bank_actor_5_interact           actor_5_interact
     0000003C  ___bank_actor_60_interact          actor_60_interact
     0000003C  ___bank_actor_61_interact          actor_61_interact
     0000003C  ___bank_actor_62_update            actor_62_update
     0000003C  ___bank_actor_6_interact           actor_6_interact
     0000003C  ___bank_actor_7_interact           actor_7_interact
     0000003C  ___bank_actor_8_interact           actor_8_interact
     0000003C  ___bank_bg_warning_tilemap         bg_warning_tilemap
ASxxxx Linker V03.00/V05.40 + sdld,  page 13.
Hexadecimal  [32-Bits]

Area                                    Addr        Size        Decimal Bytes (Attributes)
--------------------------------        ----        ----        ------- ----- ------------
.  .ABS.                            00000000    00000000 =           0. bytes (ABS,CON)

      Value  Global                              Global Defined In Module
      -----  --------------------------------   ------------------------
     0000003C  ___bank_bg_warning_tilemap_attr    bg_warning_tilemap_attr
     0000003C  ___bank_scene_1_collisions         scene_1_collisions
     0000003C  ___bank_scene_26_init              scene_26_init
     0000003C  ___bank_scene_2_collisions         scene_2_collisions
     0000003C  ___bank_scene_3_collisions         scene_3_collisions
     0000003C  ___bank_scene_40_actors            scene_40_actors
     0000003C  ___bank_scene_48_collisions        scene_48_collisions
     0000003C  ___bank_scene_4_collisions         scene_4_collisions
     0000003C  ___bank_scene_54_actors            scene_54_actors
     0000003C  ___bank_scene_56_collisions        scene_56_collisions
     0000003C  ___bank_scene_57_collisions        scene_57_collisions
     0000003C  ___bank_scene_58_collisions        scene_58_collisions
     0000003C  ___bank_scene_59_collisions        scene_59_collisions
     0000003C  ___bank_scene_5_collisions         scene_5_collisions
     0000003C  ___bank_scene_6_collisions         scene_6_collisions
     0000003C  ___bank_scene_7_collisions         scene_7_collisions
     0000003C  ___bank_script_16                  script_16
     0000003C  ___bank_script_17                  script_17
     0000003C  ___bank_script_input_23            script_input_23
     0000003C  ___bank_script_input_32            script_input_32
     0000003C  ___bank_sprite_ember_dragon_copy   sprite_ember_dragon_copy
     0000003C  ___bank_sprite_ember_phoenix_cop   sprite_ember_phoenix_copy_ti
     0000003C  ___bank_sprite_ember_phoenix_top   sprite_ember_phoenix_topdow
     0000003C  ___bank_sprite_flare_static_tile   sprite_flare_static_tileset
     0000003C  ___bank_sprite_number_ui_bank2_t   sprite_number_ui_bank2_tiles
     0000003C  ___bank_sprite_number_ui_tileset   sprite_number_ui_tileset
     0000003C  ___bank_sprite_perlite_animated_   sprite_perlite_animated_tile
     0000003C  ___bank_sprite_sly_slimeball_cop   sprite_sly_slimeball_copy
     0000003C  ___bank_sprite_speed_selection_b   sprite_speed_selection_bank2
     0000003C  ___bank_sprite_speed_selection_t   sprite_speed_selection_tiles
     0000003C  ___bank_trigger_104_interact       trigger_104_interact
     0000003C  __start_save                    
     0000003C  b_erase_flash                      
     0000003C  b_itoa_fmt                         vm_ui_a
     0000003C  b_music_events_poll                music_manager
     0000003C  b_music_init_driver                music_manager
     0000003C  b_music_init_events                music_manager
     0000003C  b_save_sram_banks                  
     0000003C  b_vm_cos_scale                     vm_math
     0000003C  b_vm_music_mute                    vm_music
     0000003C  b_vm_music_play                    vm_music
     0000003C  b_vm_music_routine                 vm_music
     0000003C  b_vm_music_setpos                  vm_music
     0000003C  b_vm_music_stop                    vm_music
     0000003C  b_vm_projectile_launch             vm_projectiles
     0000003C  b_vm_projectile_load_type          vm_projectiles
     0000003C  b_vm_rtc_get                       vm_rtc
     0000003C  b_vm_rtc_latch                     vm_rtc
     0000003C  b_vm_rtc_set                       vm_rtc
     0000003C  b_vm_rtc_start                     vm_rtc
     0000003C  b_vm_sfx_play                      vm_music
ASxxxx Linker V03.00/V05.40 + sdld,  page 14.
Hexadecimal  [32-Bits]

Area                                    Addr        Size        Decimal Bytes (Attributes)
--------------------------------        ----        ----        ------- ----- ------------
.  .ABS.                            00000000    00000000 =           0. bytes (ABS,CON)

      Value  Global                              Global Defined In Module
      -----  --------------------------------   ------------------------
     0000003C  b_vm_sin_scale                     vm_math
     0000003C  b_vm_sound_mastervol               vm_music
     0000003D  ___bank_VM_GBPRINTER               vm_gbprinter
     0000003D  ___bank_VM_LOAD_SAVE               vm_load_save
     0000003D  ___bank_VM_SCENE                   vm_scene
     0000003D  ___bank_actor_24_interact          actor_24_interact
     0000003D  ___bank_actor_44_update            actor_44_update
     0000003D  ___bank_actor_45_update            actor_45_update
     0000003D  ___bank_actor_46_interact          actor_46_interact
     0000003D  ___bank_actor_62_interact          actor_62_interact
     0000003D  ___bank_bg_earth_level_1_intro_c   bg_earth_level_1_intro_cgb_t
     0000003D  ___bank_bg_mercury_poison_proces   bg_mercury_poison_processin_
     0000003D  ___bank_frame_image                frame_image
     0000003D  ___bank_scene_11_actors            scene_11_actors
     0000003D  ___bank_scene_11_init              scene_11_init
     0000003D  ___bank_scene_13_init              scene_13_init
     0000003D  ___bank_scene_16_triggers          scene_16_triggers
     0000003D  ___bank_scene_19_actors            scene_19_actors
     0000003D  ___bank_scene_22_triggers          scene_22_triggers
     0000003D  ___bank_scene_26_triggers          scene_26_triggers
     0000003D  ___bank_scene_29_actors            scene_29_actors
     0000003D  ___bank_scene_33_actors            scene_33_actors
     0000003D  ___bank_scene_33_init              scene_33_init
     0000003D  ___bank_scene_34_triggers          scene_34_triggers
     0000003D  ___bank_scene_35_actors            scene_35_actors
     0000003D  ___bank_scene_39_actors            scene_39_actors
     0000003D  ___bank_scene_42_init              scene_42_init
     0000003D  ___bank_scene_45_actors            scene_45_actors
     0000003D  ___bank_scene_47_actors            scene_47_actors
     0000003D  ___bank_scene_59_actors            scene_59_actors
     0000003D  ___bank_scene_6_init               scene_6_init
     0000003D  ___bank_script_1                   script_1
     0000003D  ___bank_script_engine_init         
     0000003D  ___bank_script_input_13            script_input_13
     0000003D  ___bank_script_input_14            script_input_14
     0000003D  ___bank_script_input_15            script_input_15
     0000003D  ___bank_script_input_16            script_input_16
     0000003D  ___bank_script_input_17            script_input_17
     0000003D  ___bank_script_input_18            script_input_18
     0000003D  ___bank_script_input_19            script_input_19
     0000003D  ___bank_script_input_20            script_input_20
     0000003D  ___bank_script_input_21            script_input_21
     0000003D  ___bank_script_input_24            script_input_24
     0000003D  ___bank_script_input_27            script_input_27
     0000003D  ___bank_script_input_29            script_input_29
     0000003D  ___bank_script_input_31            script_input_31
     0000003D  ___bank_script_input_9             script_input_9
     0000003D  ___bank_sprite_actor_animated      sprite_actor_animated
     0000003D  ___bank_sprite_actor_animated_ba   sprite_actor_animated_bank2_
     0000003D  ___bank_sprite_actor_animated_ti   sprite_actor_animated_tilese
     0000003D  ___bank_sprite_bullet_bank2_tile   sprite_bullet_bank2_tileset
ASxxxx Linker V03.00/V05.40 + sdld,  page 15.
Hexadecimal  [32-Bits]

Area                                    Addr        Size        Decimal Bytes (Attributes)
--------------------------------        ----        ----        ------- ----- ------------
.  .ABS.                            00000000    00000000 =           0. bytes (ABS,CON)

      Value  Global                              Global Defined In Module
      -----  --------------------------------   ------------------------
     0000003D  ___bank_sprite_bullet_tileset      sprite_bullet_tileset
     0000003D  ___bank_sprite_cedric_bank2_tile   sprite_cedric_bank2_tileset
     0000003D  ___bank_sprite_cedric_copy_bank2   sprite_cedric_copy_bank2_til
     0000003D  ___bank_sprite_cedric_copy_tiles   sprite_cedric_copy_tileset
     0000003D  ___bank_sprite_cedric_tileset      sprite_cedric_tileset
     0000003D  ___bank_sprite_ember_dragon_copy   sprite_ember_dragon_copy_ban
     0000003D  ___bank_sprite_ember_dragon_copy   sprite_ember_dragon_copy_til
     0000003D  ___bank_sprite_ember_foxphoenix_   sprite_ember_foxphoenix_bank
     0000003D  ___bank_sprite_ember_foxphoenix_   sprite_ember_foxphoenix_tile
     0000003D  ___bank_sprite_ember_phoenix_cop   sprite_ember_phoenix_copy_ba
     0000003D  ___bank_sprite_ember_phoenix_top   sprite_ember_phoenix_topdow_
     0000003D  ___bank_sprite_ember_phoenix_top   sprite_ember_phoenix_topdow_
     0000003D  ___bank_sprite_ember_stationary_   sprite_ember_stationary_bank
     0000003D  ___bank_sprite_ember_stationary_   sprite_ember_stationary_tile
     0000003D  ___bank_sprite_flame_whip_tilese   sprite_flame_whip_tileset
     0000003D  ___bank_sprite_flare_static_bank   sprite_flare_static_bank2_ti
     0000003D  ___bank_sprite_jem_animated_0_ti   sprite_jem_animated_0_tilese
     0000003D  ___bank_sprite_jem_animated_bank   sprite_jem_animated_bank2_ti
     0000003D  ___bank_sprite_jem_animated_tile   sprite_jem_animated_tileset
     0000003D  ___bank_sprite_light_animated_co   sprite_light_animated_copy
     0000003D  ___bank_sprite_light_animated_co   sprite_light_animated_copy_b
     0000003D  ___bank_sprite_light_animated_co   sprite_light_animated_copy_t
     0000003D  ___bank_sprite_music_type_bank2_   sprite_music_type_bank2_tile
     0000003D  ___bank_sprite_music_type_tilese   sprite_music_type_tileset
     0000003D  ___bank_sprite_number_ui           sprite_number_ui
     0000003D  ___bank_sprite_perlite_animated_   sprite_perlite_animated_bank
     0000003D  ___bank_sprite_phoenix_cop_copy_   sprite_phoenix_cop_copy_bank
     0000003D  ___bank_sprite_phoenix_cop_copy_   sprite_phoenix_cop_copy_tile
     0000003D  ___bank_sprite_sly_slimeball       sprite_sly_slimeball
     0000003D  ___bank_sprite_sly_slimeball_ban   sprite_sly_slimeball_bank2_t
     0000003D  ___bank_sprite_sly_slimeball_cop   sprite_sly_slimeball_copy_ba
     0000003D  ___bank_sprite_sly_slimeball_cop   sprite_sly_slimeball_copy_ti
     0000003D  ___bank_sprite_sly_slimeball_til   sprite_sly_slimeball_tileset
     0000003D  ___bank_sprite_speed_selection     sprite_speed_selection
     0000003D  ___bank_trigger_103_interact       trigger_103_interact
     0000003D  ___bank_trigger_105_interact       trigger_105_interact
     0000003D  ___bank_trigger_106_interact       trigger_106_interact
     0000003D  ___bank_trigger_109_interact       trigger_109_interact
     0000003D  ___bank_trigger_10_interact        trigger_10_interact
     0000003D  ___bank_trigger_110_interact       trigger_110_interact
     0000003D  ___bank_trigger_112_interact       trigger_112_interact
     0000003D  ___bank_trigger_113_interact       trigger_113_interact
     0000003D  ___bank_trigger_114_interact       trigger_114_interact
     0000003D  ___bank_trigger_115_interact       trigger_115_interact
     0000003D  ___bank_trigger_117_interact       trigger_117_interact
     0000003D  ___bank_trigger_121_interact       trigger_121_interact
     0000003D  ___bank_trigger_122_interact       trigger_122_interact
     0000003D  ___bank_trigger_123_interact       trigger_123_interact
     0000003D  ___bank_trigger_124_interact       trigger_124_interact
     0000003D  ___bank_trigger_160_interact       trigger_160_interact
     0000003D  ___bank_trigger_163_interact       trigger_163_interact
ASxxxx Linker V03.00/V05.40 + sdld,  page 16.
Hexadecimal  [32-Bits]

Area                                    Addr        Size        Decimal Bytes (Attributes)
--------------------------------        ----        ----        ------- ----- ------------
.  .ABS.                            00000000    00000000 =           0. bytes (ABS,CON)

      Value  Global                              Global Defined In Module
      -----  --------------------------------   ------------------------
     0000003D  ___bank_trigger_174_interact       trigger_174_interact
     0000003D  ___bank_trigger_175_interact       trigger_175_interact
     0000003D  ___bank_trigger_177_interact       trigger_177_interact
     0000003D  ___bank_trigger_186_interact       trigger_186_interact
     0000003D  ___bank_trigger_189_interact       trigger_189_interact
     0000003D  ___bank_trigger_191_interact       trigger_191_interact
     0000003D  ___bank_trigger_21_interact        trigger_21_interact
     0000003D  ___bank_trigger_226_interact       trigger_226_interact
     0000003D  ___bank_trigger_230_interact       trigger_230_interact
     0000003D  ___bank_trigger_42_interact        trigger_42_interact
     0000003D  ___bank_trigger_45_interact        trigger_45_interact
     0000003D  ___bank_trigger_4_interact         trigger_4_interact
     0000003D  ___bank_trigger_69_interact        trigger_69_interact
     0000003D  ___bank_trigger_6_interact         trigger_6_interact
     0000003D  ___bank_trigger_7_interact         trigger_7_interact
     0000003D  ___bank_trigger_81_interact        trigger_81_interact
     0000003D  ___bank_trigger_91_interact        trigger_91_interact
     0000003D  ___bank_trigger_92_interact        trigger_92_interact
     0000003D  ___bank_trigger_9_interact         trigger_9_interact
     0000003D  b_events_init                      events
     0000003D  b_restore_sram                     flasher
     0000003D  b_restore_sram_bank                flasher
     0000003D  b_save_sram                        flasher
     0000003D  b_timers_init                      events
     0000003D  b_vm_print_detect                  vm_gbprinter
     0000003D  b_vm_print_overlay                 vm_gbprinter
     0000003D  b_vm_save_clear                    vm_load_save
     0000003D  b_vm_save_peek                     vm_load_save
     0000003D  b_vm_scene_pop                     vm_scene
     0000003D  b_vm_scene_pop_all                 vm_scene
     0000003D  b_vm_scene_push                    vm_scene
     0000003D  b_vm_scene_stack_reset             vm_scene
     0000003E  ___bank_actor_14_interact          actor_14_interact
     0000003E  ___bank_actor_1_update             actor_1_update
     0000003E  ___bank_actor_63_interact          actor_63_interact
     0000003E  ___bank_actor_9_update             actor_9_update
     0000003E  ___bank_emote_anger                emote_anger
     0000003E  ___bank_emote_love                 emote_love
     0000003E  ___bank_emote_pause                emote_pause
     0000003E  ___bank_emote_question             emote_question
     0000003E  ___bank_emote_shock                emote_shock
     0000003E  ___bank_emote_sweat                emote_sweat
     0000003E  ___bank_palette_0                  palette_0
     0000003E  ___bank_palette_1                  palette_1
     0000003E  ___bank_palette_10                 palette_10
     0000003E  ___bank_palette_11                 palette_11
     0000003E  ___bank_palette_12                 palette_12
     0000003E  ___bank_palette_13                 palette_13
     0000003E  ___bank_palette_2                  palette_2
     0000003E  ___bank_palette_3                  palette_3
     0000003E  ___bank_palette_4                  palette_4
ASxxxx Linker V03.00/V05.40 + sdld,  page 17.
Hexadecimal  [32-Bits]

Area                                    Addr        Size        Decimal Bytes (Attributes)
--------------------------------        ----        ----        ------- ----- ------------
.  .ABS.                            00000000    00000000 =           0. bytes (ABS,CON)

      Value  Global                              Global Defined In Module
      -----  --------------------------------   ------------------------
     0000003E  ___bank_palette_5                  palette_5
     0000003E  ___bank_palette_6                  palette_6
     0000003E  ___bank_palette_7                  palette_7
     0000003E  ___bank_palette_8                  palette_8
     0000003E  ___bank_palette_9                  palette_9
     0000003E  ___bank_scene_1                    scene_1
     0000003E  ___bank_scene_10                   scene_10
     0000003E  ___bank_scene_10_actors            scene_10_actors
     0000003E  ___bank_scene_11                   scene_11
     0000003E  ___bank_scene_12                   scene_12
     0000003E  ___bank_scene_12_actors            scene_12_actors
     0000003E  ___bank_scene_12_init              scene_12_init
     0000003E  ___bank_scene_13                   scene_13
     0000003E  ___bank_scene_13_actors            scene_13_actors
     0000003E  ___bank_scene_13_triggers          scene_13_triggers
     0000003E  ___bank_scene_14                   scene_14
     0000003E  ___bank_scene_14_actors            scene_14_actors
     0000003E  ___bank_scene_14_init              scene_14_init
     0000003E  ___bank_scene_15                   scene_15
     0000003E  ___bank_scene_15_actors            scene_15_actors
     0000003E  ___bank_scene_15_init              scene_15_init
     0000003E  ___bank_scene_16                   scene_16
     0000003E  ___bank_scene_16_actors            scene_16_actors
     0000003E  ___bank_scene_17                   scene_17
     0000003E  ___bank_scene_18                   scene_18
     0000003E  ___bank_scene_19                   scene_19
     0000003E  ___bank_scene_19_init              scene_19_init
     0000003E  ___bank_scene_1_init               scene_1_init
     0000003E  ___bank_scene_2                    scene_2
     0000003E  ___bank_scene_20                   scene_20
     0000003E  ___bank_scene_21                   scene_21
     0000003E  ___bank_scene_21_actors            scene_21_actors
     0000003E  ___bank_scene_21_triggers          scene_21_triggers
     0000003E  ___bank_scene_22                   scene_22
     0000003E  ___bank_scene_22_actors            scene_22_actors
     0000003E  ___bank_scene_22_init              scene_22_init
     0000003E  ___bank_scene_23                   scene_23
     0000003E  ___bank_scene_23_actors            scene_23_actors
     0000003E  ___bank_scene_23_triggers          scene_23_triggers
     0000003E  ___bank_scene_24                   scene_24
     0000003E  ___bank_scene_24_actors            scene_24_actors
     0000003E  ___bank_scene_24_init              scene_24_init
     0000003E  ___bank_scene_24_triggers          scene_24_triggers
     0000003E  ___bank_scene_25                   scene_25
     0000003E  ___bank_scene_25_actors            scene_25_actors
     0000003E  ___bank_scene_25_init              scene_25_init
     0000003E  ___bank_scene_25_triggers          scene_25_triggers
     0000003E  ___bank_scene_26                   scene_26
     0000003E  ___bank_scene_27                   scene_27
     0000003E  ___bank_scene_27_init              scene_27_init
     0000003E  ___bank_scene_28                   scene_28
ASxxxx Linker V03.00/V05.40 + sdld,  page 18.
Hexadecimal  [32-Bits]

Area                                    Addr        Size        Decimal Bytes (Attributes)
--------------------------------        ----        ----        ------- ----- ------------
.  .ABS.                            00000000    00000000 =           0. bytes (ABS,CON)

      Value  Global                              Global Defined In Module
      -----  --------------------------------   ------------------------
     0000003E  ___bank_scene_28_actors            scene_28_actors
     0000003E  ___bank_scene_28_p_hit1            scene_28_p_hit1
     0000003E  ___bank_scene_29                   scene_29
     0000003E  ___bank_scene_2_init               scene_2_init
     0000003E  ___bank_scene_3                    scene_3
     0000003E  ___bank_scene_30                   scene_30
     0000003E  ___bank_scene_30_actors            scene_30_actors
     0000003E  ___bank_scene_31                   scene_31
     0000003E  ___bank_scene_31_triggers          scene_31_triggers
     0000003E  ___bank_scene_32                   scene_32
     0000003E  ___bank_scene_32_actors            scene_32_actors
     0000003E  ___bank_scene_32_init              scene_32_init
     0000003E  ___bank_scene_32_triggers          scene_32_triggers
     0000003E  ___bank_scene_33                   scene_33
     0000003E  ___bank_scene_34                   scene_34
     0000003E  ___bank_scene_34_init              scene_34_init
     0000003E  ___bank_scene_35                   scene_35
     0000003E  ___bank_scene_35_init              scene_35_init
     0000003E  ___bank_scene_35_projectiles       scene_35_projectiles
     0000003E  ___bank_scene_35_triggers          scene_35_triggers
     0000003E  ___bank_scene_36                   scene_36
     0000003E  ___bank_scene_36_init              scene_36_init
     0000003E  ___bank_scene_36_triggers          scene_36_triggers
     0000003E  ___bank_scene_37                   scene_37
     0000003E  ___bank_scene_37_init              scene_37_init
     0000003E  ___bank_scene_38                   scene_38
     0000003E  ___bank_scene_38_actors            scene_38_actors
     0000003E  ___bank_scene_38_init              scene_38_init
     0000003E  ___bank_scene_39                   scene_39
     0000003E  ___bank_scene_3_init               scene_3_init
     0000003E  ___bank_scene_4                    scene_4
     0000003E  ___bank_scene_40                   scene_40
     0000003E  ___bank_scene_40_projectiles       scene_40_projectiles
     0000003E  ___bank_scene_41                   scene_41
     0000003E  ___bank_scene_41_actors            scene_41_actors
     0000003E  ___bank_scene_41_p_hit1            scene_41_p_hit1
     0000003E  ___bank_scene_42                   scene_42
     0000003E  ___bank_scene_42_actors            scene_42_actors
     0000003E  ___bank_scene_43                   scene_43
     0000003E  ___bank_scene_44                   scene_44
     0000003E  ___bank_scene_44_actors            scene_44_actors
     0000003E  ___bank_scene_44_init              scene_44_init
     0000003E  ___bank_scene_45                   scene_45
     0000003E  ___bank_scene_45_init              scene_45_init
     0000003E  ___bank_scene_45_projectiles       scene_45_projectiles
     0000003E  ___bank_scene_46                   scene_46
     0000003E  ___bank_scene_46_init              scene_46_init
     0000003E  ___bank_scene_47                   scene_47
     0000003E  ___bank_scene_47_init              scene_47_init
     0000003E  ___bank_scene_47_projectiles       scene_47_projectiles
     0000003E  ___bank_scene_47_triggers          scene_47_triggers
ASxxxx Linker V03.00/V05.40 + sdld,  page 19.
Hexadecimal  [32-Bits]

Area                                    Addr        Size        Decimal Bytes (Attributes)
--------------------------------        ----        ----        ------- ----- ------------
.  .ABS.                            00000000    00000000 =           0. bytes (ABS,CON)

      Value  Global                              Global Defined In Module
      -----  --------------------------------   ------------------------
     0000003E  ___bank_scene_48                   scene_48
     0000003E  ___bank_scene_48_init              scene_48_init
     0000003E  ___bank_scene_49                   scene_49
     0000003E  ___bank_scene_49_init              scene_49_init
     0000003E  ___bank_scene_49_triggers          scene_49_triggers
     0000003E  ___bank_scene_5                    scene_5
     0000003E  ___bank_scene_50                   scene_50
     0000003E  ___bank_scene_50_init              scene_50_init
     0000003E  ___bank_scene_50_triggers          scene_50_triggers
     0000003E  ___bank_scene_51                   scene_51
     0000003E  ___bank_scene_51_actors            scene_51_actors
     0000003E  ___bank_scene_51_projectiles       scene_51_projectiles
     0000003E  ___bank_scene_52                   scene_52
     0000003E  ___bank_scene_52_actors            scene_52_actors
     0000003E  ___bank_scene_53                   scene_53
     0000003E  ___bank_scene_53_actors            scene_53_actors
     0000003E  ___bank_scene_54                   scene_54
     0000003E  ___bank_scene_54_triggers          scene_54_triggers
     0000003E  ___bank_scene_55                   scene_55
     0000003E  ___bank_scene_55_actors            scene_55_actors
     0000003E  ___bank_scene_56                   scene_56
     0000003E  ___bank_scene_57                   scene_57
     0000003E  ___bank_scene_58                   scene_58
     0000003E  ___bank_scene_58_init              scene_58_init
     0000003E  ___bank_scene_59                   scene_59
     0000003E  ___bank_scene_6                    scene_6
     0000003E  ___bank_scene_7                    scene_7
     0000003E  ___bank_scene_8                    scene_8
     0000003E  ___bank_scene_8_init               scene_8_init
     0000003E  ___bank_scene_9                    scene_9
     0000003E  ___bank_scene_9_triggers           scene_9_triggers
     0000003E  ___bank_script_input_1             script_input_1
     0000003E  ___bank_script_input_11            script_input_11
     0000003E  ___bank_script_input_12            script_input_12
     0000003E  ___bank_script_input_3             script_input_3
     0000003E  ___bank_script_input_30            script_input_30
     0000003E  ___bank_script_input_33            script_input_33
     0000003E  ___bank_script_input_34            script_input_34
     0000003E  ___bank_script_input_35            script_input_35
     0000003E  ___bank_script_input_37            script_input_37
     0000003E  ___bank_script_input_4             script_input_4
     0000003E  ___bank_script_input_5             script_input_5
     0000003E  ___bank_script_input_6             script_input_6
     0000003E  ___bank_script_input_7             script_input_7
     0000003E  ___bank_script_timer_1             script_timer_1
     0000003E  ___bank_script_timer_2             script_timer_2
     0000003E  ___bank_script_timer_50            script_timer_50
     0000003E  ___bank_script_timer_51            script_timer_51
     0000003E  ___bank_script_timer_52            script_timer_52
     0000003E  ___bank_script_timer_53            script_timer_53
     0000003E  ___bank_script_timer_62            script_timer_62
ASxxxx Linker V03.00/V05.40 + sdld,  page 20.
Hexadecimal  [32-Bits]

Area                                    Addr        Size        Decimal Bytes (Attributes)
--------------------------------        ----        ----        ------- ----- ------------
.  .ABS.                            00000000    00000000 =           0. bytes (ABS,CON)

      Value  Global                              Global Defined In Module
      -----  --------------------------------   ------------------------
     0000003E  ___bank_script_timer_67            script_timer_67
     0000003E  ___bank_script_timer_68            script_timer_68
     0000003E  ___bank_script_timer_77            script_timer_77
     0000003E  ___bank_script_timer_78            script_timer_78
     0000003E  ___bank_script_timer_82            script_timer_82
     0000003E  ___bank_script_timer_83            script_timer_83
     0000003E  ___bank_sprite_bullet              sprite_bullet
     0000003E  ___bank_sprite_cedric_copy         sprite_cedric_copy
     0000003E  ___bank_sprite_cedric_dust         sprite_cedric_dust
     0000003E  ___bank_sprite_feather             sprite_feather
     0000003E  ___bank_sprite_flame_whip          sprite_flame_whip
     0000003E  ___bank_sprite_foxberry_ui         sprite_foxberry_ui
     0000003E  ___bank_sprite_jem_animated_0      sprite_jem_animated_0
     0000003E  ___bank_sprite_jem_animated_0_ba   sprite_jem_animated_0_bank2_
     0000003E  ___bank_sprite_lava                sprite_lava
     0000003E  ___bank_sprite_light_key           sprite_light_key
     0000003E  ___bank_sprite_light_key_0         sprite_light_key_0
     0000003E  ___bank_sprite_light_key_0_bank2   sprite_light_key_0_bank2_til
     0000003E  ___bank_sprite_light_key_0_tiles   sprite_light_key_0_tileset
     0000003E  ___bank_sprite_light_key_bank2_t   sprite_light_key_bank2_tiles
     0000003E  ___bank_sprite_light_key_tileset   sprite_light_key_tileset
     0000003E  ___bank_sprite_metal_walls         sprite_metal_walls
     0000003E  ___bank_sprite_music_type          sprite_music_type
     0000003E  ___bank_sprite_phoenix_cop_copy    sprite_phoenix_cop_copy
     0000003E  ___bank_sprite_poison              sprite_poison
     0000003E  ___bank_sprite_potion_ui           sprite_potion_ui
     0000003E  ___bank_sprite_swordattack         sprite_swordattack
     0000003E  ___bank_sprite_swordattack_bank2   sprite_swordattack_bank2_til
     0000003E  ___bank_sprite_swordattack_tiles   sprite_swordattack_tileset
     0000003E  ___bank_sprite_toxic               sprite_toxic
     0000003E  ___bank_sprite_unknown_key_copy    sprite_unknown_key_copy
     0000003E  ___bank_sprite_unknown_key_copy_   sprite_unknown_key_copy_2_
     0000003E  ___bank_sprite_water               sprite_water
     0000003E  ___bank_trigger_0_interact         trigger_0_interact
     0000003E  ___bank_trigger_107_interact       trigger_107_interact
     0000003E  ___bank_trigger_108_interact       trigger_108_interact
     0000003E  ___bank_trigger_111_interact       trigger_111_interact
     0000003E  ___bank_trigger_118_interact       trigger_118_interact
     0000003E  ___bank_trigger_119_interact       trigger_119_interact
     0000003E  ___bank_trigger_176_interact       trigger_176_interact
     0000003E  ___bank_trigger_178_interact       trigger_178_interact
     0000003E  ___bank_trigger_179_interact       trigger_179_interact
     0000003E  ___bank_trigger_193_interact       trigger_193_interact
     0000003E  ___bank_trigger_194_interact       trigger_194_interact
     0000003E  ___bank_trigger_19_interact        trigger_19_interact
     0000003E  ___bank_trigger_1_interact         trigger_1_interact
     0000003E  ___bank_trigger_20_interact        trigger_20_interact
     0000003E  ___bank_trigger_213_interact       trigger_213_interact
     0000003E  ___bank_trigger_219_interact       trigger_219_interact
     0000003E  ___bank_trigger_220_interact       trigger_220_interact
     0000003E  ___bank_trigger_221_interact       trigger_221_interact
ASxxxx Linker V03.00/V05.40 + sdld,  page 21.
Hexadecimal  [32-Bits]

Area                                    Addr        Size        Decimal Bytes (Attributes)
--------------------------------        ----        ----        ------- ----- ------------
.  .ABS.                            00000000    00000000 =           0. bytes (ABS,CON)

      Value  Global                              Global Defined In Module
      -----  --------------------------------   ------------------------
     0000003E  ___bank_trigger_222_interact       trigger_222_interact
     0000003E  ___bank_trigger_223_interact       trigger_223_interact
     0000003E  ___bank_trigger_224_interact       trigger_224_interact
     0000003E  ___bank_trigger_225_interact       trigger_225_interact
     0000003E  ___bank_trigger_228_interact       trigger_228_interact
     0000003E  ___bank_trigger_229_interact       trigger_229_interact
     0000003E  ___bank_trigger_22_interact        trigger_22_interact
     0000003E  ___bank_trigger_233_interact       trigger_233_interact
     0000003E  ___bank_trigger_23_interact        trigger_23_interact
     0000003E  ___bank_trigger_24_interact        trigger_24_interact
     0000003E  ___bank_trigger_25_interact        trigger_25_interact
     0000003E  ___bank_trigger_26_interact        trigger_26_interact
     0000003E  ___bank_trigger_27_interact        trigger_27_interact
     0000003E  ___bank_trigger_28_interact        trigger_28_interact
     0000003E  ___bank_trigger_29_interact        trigger_29_interact
     0000003E  ___bank_trigger_2_interact         trigger_2_interact
     0000003E  ___bank_trigger_30_interact        trigger_30_interact
     0000003E  ___bank_trigger_31_interact        trigger_31_interact
     0000003E  ___bank_trigger_32_interact        trigger_32_interact
     0000003E  ___bank_trigger_33_interact        trigger_33_interact
     0000003E  ___bank_trigger_34_interact        trigger_34_interact
     0000003E  ___bank_trigger_35_interact        trigger_35_interact
     0000003E  ___bank_trigger_36_interact        trigger_36_interact
     0000003E  ___bank_trigger_37_interact        trigger_37_interact
     0000003E  ___bank_trigger_38_interact        trigger_38_interact
     0000003E  ___bank_trigger_39_interact        trigger_39_interact
     0000003E  ___bank_trigger_40_interact        trigger_40_interact
     0000003E  ___bank_trigger_41_interact        trigger_41_interact
     0000003E  ___bank_trigger_43_interact        trigger_43_interact
     0000003E  ___bank_trigger_44_interact        trigger_44_interact
     0000003E  ___bank_trigger_46_interact        trigger_46_interact
     0000003E  ___bank_trigger_47_interact        trigger_47_interact
     0000003E  ___bank_trigger_48_interact        trigger_48_interact
     0000003E  ___bank_trigger_5_interact         trigger_5_interact
     0000003E  ___bank_trigger_68_interact        trigger_68_interact
     0000003E  ___bank_trigger_80_interact        trigger_80_interact
     0000003E  ___bank_trigger_8_interact         trigger_8_interact
     0000003E  b_CGBZeroPalette                   palette
     0000003E  b_SIO_init                         sio
     0000003E  b_input_init                       input
     0000003E  b_palette_init                     palette
     0000003E  b_scroll_rect                      
     0000003F  ___bank_actor_14_update            actor_14_update
     0000003F  ___bank_actor_15_interact          actor_15_interact
     0000003F  ___bank_actor_16_interact          actor_16_interact
     0000003F  ___bank_actor_17_interact          actor_17_interact
     0000003F  ___bank_bg_blight_s_memory_p1      bg_blight_s_memory_p1
     0000003F  ___bank_bg_earth_burnclaw_forest   bg_earth_burnclaw_forest
     0000003F  ___bank_bg_earth_burnclaw_forest   bg_earth_burnclaw_forest_ca
     0000003F  ___bank_bg_earth_burnclaw_forest   bg_earth_burnclaw_forest_cr
     0000003F  ___bank_bg_earth_distortion_moun   bg_earth_distortion_mountai
ASxxxx Linker V03.00/V05.40 + sdld,  page 22.
Hexadecimal  [32-Bits]

Area                                    Addr        Size        Decimal Bytes (Attributes)
--------------------------------        ----        ----        ------- ----- ------------
.  .ABS.                            00000000    00000000 =           0. bytes (ABS,CON)

      Value  Global                              Global Defined In Module
      -----  --------------------------------   ------------------------
     0000003F  ___bank_bg_earth_level_1_intro     bg_earth_level_1_intro
     0000003F  ___bank_bg_earth_shuttle_bay       bg_earth_shuttle_bay
     0000003F  ___bank_bg_earth_shuttle_bay_sec   bg_earth_shuttle_bay_secret
     0000003F  ___bank_bg_earth_shuttle_bay_upp   bg_earth_shuttle_bay_upper
     0000003F  ___bank_bg_earth_shuttle_bay_wat   bg_earth_shuttle_bay_water
     0000003F  ___bank_bg_game_menu               bg_game_menu
     0000003F  ___bank_bg_hud_ui                  bg_hud_ui
     0000003F  ___bank_bg_jems_background         bg_jems_background
     0000003F  ___bank_bg_level_1                 bg_level_1
     0000003F  ___bank_bg_level_2                 bg_level_2
     0000003F  ___bank_bg_luna_boss_room          bg_luna_boss_room
     0000003F  ___bank_bg_luna_peryil_s_house     bg_luna_peryil_s_house
     0000003F  ___bank_bg_luna_serenity_cave_lo   bg_luna_serenity_cave_lower
     0000003F  ___bank_bg_luna_serenity_cave_up   bg_luna_serenity_cave_upper
     0000003F  ___bank_bg_luna_serenity_forest    bg_luna_serenity_forest
     0000003F  ___bank_bg_luna_serenity_outskir   bg_luna_serenity_outskirts
     0000003F  ___bank_bg_luna_serenity_waterfr   bg_luna_serenity_waterfront
     0000003F  ___bank_bg_luna_sewer_system       bg_luna_sewer_system
     0000003F  ___bank_bg_luna_water_heater       bg_luna_water_heater
     0000003F  ___bank_bg_menu_load_background    bg_menu_load_background
     0000003F  ___bank_bg_mercury_landing_site    bg_mercury_landing_site
     0000003F  ___bank_bg_mercury_overflow_pass   bg_mercury_overflow_passage
     0000003F  ___bank_bg_mercury_poison_proces   bg_mercury_poison_processin
     0000003F  ___bank_bg_mercury_poison_storag   bg_mercury_poison_storage
     0000003F  ___bank_bg_mercury_projectile_pl   bg_mercury_projectile_platf
     0000003F  ___bank_bg_mercury_secret_area     bg_mercury_secret_area
     0000003F  ___bank_bg_mercury_throne_room     bg_mercury_throne_room
     0000003F  ___bank_bg_mercury_viewing_area    bg_mercury_viewing_area
     0000003F  ___bank_bg_placeholder             bg_placeholder
     0000003F  ___bank_bg_platformer_test01       bg_platformer_test01
     0000003F  ___bank_bg_settings                bg_settings
     0000003F  ___bank_bg_temporal_light_backgr   bg_temporal_light_backgroun
     0000003F  ___bank_bg_title                   bg_title
     0000003F  ___bank_bg_venus_ac_ventilation    bg_venus_ac_ventilation
     0000003F  ___bank_bg_venus_ac_ventilation2   bg_venus_ac_ventilation2
     0000003F  ___bank_bg_venus_defence_tunnel    bg_venus_defence_tunnel
     0000003F  ___bank_bg_venus_dropshaft_0       bg_venus_dropshaft_0
     0000003F  ___bank_bg_venus_dropshaft_1       bg_venus_dropshaft_1
     0000003F  ___bank_bg_venus_evidence_room     bg_venus_evidence_room
     0000003F  ___bank_bg_venus_landing_site      bg_venus_landing_site
     0000003F  ___bank_bg_venus_office            bg_venus_office
     0000003F  ___bank_bg_venus_office_access     bg_venus_office_access
     0000003F  ___bank_bg_venus_police_departme   bg_venus_police_department_
     0000003F  ___bank_bg_warning                 bg_warning
     0000003F  ___bank_cursor_image               cursor_image
     0000003F  ___bank_scene_10_sprites           scene_10_sprites
     0000003F  ___bank_scene_11_sprites           scene_11_sprites
     0000003F  ___bank_scene_11_triggers          scene_11_triggers
     0000003F  ___bank_scene_12_sprites           scene_12_sprites
     0000003F  ___bank_scene_12_triggers          scene_12_triggers
     0000003F  ___bank_scene_13_sprites           scene_13_sprites
ASxxxx Linker V03.00/V05.40 + sdld,  page 23.
Hexadecimal  [32-Bits]

Area                                    Addr        Size        Decimal Bytes (Attributes)
--------------------------------        ----        ----        ------- ----- ------------
.  .ABS.                            00000000    00000000 =           0. bytes (ABS,CON)

      Value  Global                              Global Defined In Module
      -----  --------------------------------   ------------------------
     0000003F  ___bank_scene_14_sprites           scene_14_sprites
     0000003F  ___bank_scene_15_sprites           scene_15_sprites
     0000003F  ___bank_scene_16_sprites           scene_16_sprites
     0000003F  ___bank_scene_19_triggers          scene_19_triggers
     0000003F  ___bank_scene_1_triggers           scene_1_triggers
     0000003F  ___bank_scene_20_triggers          scene_20_triggers
     0000003F  ___bank_scene_21_projectiles       scene_21_projectiles
     0000003F  ___bank_scene_21_sprites           scene_21_sprites
     0000003F  ___bank_scene_22_projectiles       scene_22_projectiles
     0000003F  ___bank_scene_22_sprites           scene_22_sprites
     0000003F  ___bank_scene_23_projectiles       scene_23_projectiles
     0000003F  ___bank_scene_23_sprites           scene_23_sprites
     0000003F  ___bank_scene_24_projectiles       scene_24_projectiles
     0000003F  ___bank_scene_24_sprites           scene_24_sprites
     0000003F  ___bank_scene_25_projectiles       scene_25_projectiles
     0000003F  ___bank_scene_25_sprites           scene_25_sprites
     0000003F  ___bank_scene_26_projectiles       scene_26_projectiles
     0000003F  ___bank_scene_27_projectiles       scene_27_projectiles
     0000003F  ___bank_scene_28_sprites           scene_28_sprites
     0000003F  ___bank_scene_31_projectiles       scene_31_projectiles
     0000003F  ___bank_scene_32_projectiles       scene_32_projectiles
     0000003F  ___bank_scene_32_sprites           scene_32_sprites
     0000003F  ___bank_scene_33_projectiles       scene_33_projectiles
     0000003F  ___bank_scene_33_sprites           scene_33_sprites
     0000003F  ___bank_scene_33_triggers          scene_33_triggers
     0000003F  ___bank_scene_34_projectiles       scene_34_projectiles
     0000003F  ___bank_scene_34_sprites           scene_34_sprites
     0000003F  ___bank_scene_35_p_hit1            scene_35_p_hit1
     0000003F  ___bank_scene_35_sprites           scene_35_sprites
     0000003F  ___bank_scene_36_projectiles       scene_36_projectiles
     0000003F  ___bank_scene_36_sprites           scene_36_sprites
     0000003F  ___bank_scene_37_projectiles       scene_37_projectiles
     0000003F  ___bank_scene_37_sprites           scene_37_sprites
     0000003F  ___bank_scene_37_triggers          scene_37_triggers
     0000003F  ___bank_scene_38_projectiles       scene_38_projectiles
     0000003F  ___bank_scene_38_sprites           scene_38_sprites
     0000003F  ___bank_scene_38_triggers          scene_38_triggers
     0000003F  ___bank_scene_39_sprites           scene_39_sprites
     0000003F  ___bank_scene_40_sprites           scene_40_sprites
     0000003F  ___bank_scene_41_projectiles       scene_41_projectiles
     0000003F  ___bank_scene_41_sprites           scene_41_sprites
     0000003F  ___bank_scene_42_projectiles       scene_42_projectiles
     0000003F  ___bank_scene_42_sprites           scene_42_sprites
     0000003F  ___bank_scene_42_triggers          scene_42_triggers
     0000003F  ___bank_scene_43_projectiles       scene_43_projectiles
     0000003F  ___bank_scene_44_projectiles       scene_44_projectiles
     0000003F  ___bank_scene_44_sprites           scene_44_sprites
     0000003F  ___bank_scene_44_triggers          scene_44_triggers
     0000003F  ___bank_scene_45_p_hit1            scene_45_p_hit1
     0000003F  ___bank_scene_45_sprites           scene_45_sprites
     0000003F  ___bank_scene_45_triggers          scene_45_triggers
ASxxxx Linker V03.00/V05.40 + sdld,  page 24.
Hexadecimal  [32-Bits]

Area                                    Addr        Size        Decimal Bytes (Attributes)
--------------------------------        ----        ----        ------- ----- ------------
.  .ABS.                            00000000    00000000 =           0. bytes (ABS,CON)

      Value  Global                              Global Defined In Module
      -----  --------------------------------   ------------------------
     0000003F  ___bank_scene_46_projectiles       scene_46_projectiles
     0000003F  ___bank_scene_46_sprites           scene_46_sprites
     0000003F  ___bank_scene_46_triggers          scene_46_triggers
     0000003F  ___bank_scene_47_p_hit1            scene_47_p_hit1
     0000003F  ___bank_scene_48_projectiles       scene_48_projectiles
     0000003F  ___bank_scene_48_sprites           scene_48_sprites
     0000003F  ___bank_scene_48_triggers          scene_48_triggers
     0000003F  ___bank_scene_49_projectiles       scene_49_projectiles
     0000003F  ___bank_scene_49_sprites           scene_49_sprites
     0000003F  ___bank_scene_50_projectiles       scene_50_projectiles
     0000003F  ___bank_scene_50_sprites           scene_50_sprites
     0000003F  ___bank_scene_51_p_hit1            scene_51_p_hit1
     0000003F  ___bank_scene_51_sprites           scene_51_sprites
     0000003F  ___bank_scene_52_sprites           scene_52_sprites
     0000003F  ___bank_scene_53_sprites           scene_53_sprites
     0000003F  ___bank_scene_54_projectiles       scene_54_projectiles
     0000003F  ___bank_scene_55_projectiles       scene_55_projectiles
     0000003F  ___bank_scene_55_sprites           scene_55_sprites
     0000003F  ___bank_scene_55_triggers          scene_55_triggers
     0000003F  ___bank_scene_56_init              scene_56_init
     0000003F  ___bank_scene_57_init              scene_57_init
     0000003F  ___bank_scene_59_sprites           scene_59_sprites
     0000003F  ___bank_scene_7_init               scene_7_init
     0000003F  ___bank_scene_8_projectiles        scene_8_projectiles
     0000003F  ___bank_scene_8_sprites            scene_8_sprites
     0000003F  ___bank_scene_8_triggers           scene_8_triggers
     0000003F  ___bank_scene_9_projectiles        scene_9_projectiles
     0000003F  ___bank_scene_9_sprites            scene_9_sprites
     0000003F  ___bank_script_12                  script_12
     0000003F  ___bank_script_14                  script_14
     0000003F  ___bank_script_5                   script_5
     0000003F  ___bank_script_6                   script_6
     0000003F  ___bank_script_input_36            script_input_36
     0000003F  ___bank_script_input_38            script_input_38
     0000003F  ___bank_script_input_8             script_input_8
     0000003F  ___bank_script_timer_10            script_timer_10
     0000003F  ___bank_script_timer_11            script_timer_11
     0000003F  ___bank_script_timer_12            script_timer_12
     0000003F  ___bank_script_timer_13            script_timer_13
     0000003F  ___bank_script_timer_14            script_timer_14
     0000003F  ___bank_script_timer_15            script_timer_15
     0000003F  ___bank_script_timer_16            script_timer_16
     0000003F  ___bank_script_timer_17            script_timer_17
     0000003F  ___bank_script_timer_18            script_timer_18
     0000003F  ___bank_script_timer_19            script_timer_19
     0000003F  ___bank_script_timer_20            script_timer_20
     0000003F  ___bank_script_timer_21            script_timer_21
     0000003F  ___bank_script_timer_22            script_timer_22
     0000003F  ___bank_script_timer_23            script_timer_23
     0000003F  ___bank_script_timer_24            script_timer_24
     0000003F  ___bank_script_timer_25            script_timer_25
ASxxxx Linker V03.00/V05.40 + sdld,  page 25.
Hexadecimal  [32-Bits]

Area                                    Addr        Size        Decimal Bytes (Attributes)
--------------------------------        ----        ----        ------- ----- ------------
.  .ABS.                            00000000    00000000 =           0. bytes (ABS,CON)

      Value  Global                              Global Defined In Module
      -----  --------------------------------   ------------------------
     0000003F  ___bank_script_timer_26            script_timer_26
     0000003F  ___bank_script_timer_27            script_timer_27
     0000003F  ___bank_script_timer_28            script_timer_28
     0000003F  ___bank_script_timer_29            script_timer_29
     0000003F  ___bank_script_timer_3             script_timer_3
     0000003F  ___bank_script_timer_30            script_timer_30
     0000003F  ___bank_script_timer_31            script_timer_31
     0000003F  ___bank_script_timer_32            script_timer_32
     0000003F  ___bank_script_timer_33            script_timer_33
     0000003F  ___bank_script_timer_34            script_timer_34
     0000003F  ___bank_script_timer_35            script_timer_35
     0000003F  ___bank_script_timer_36            script_timer_36
     0000003F  ___bank_script_timer_37            script_timer_37
     0000003F  ___bank_script_timer_38            script_timer_38
     0000003F  ___bank_script_timer_39            script_timer_39
     0000003F  ___bank_script_timer_4             script_timer_4
     0000003F  ___bank_script_timer_40            script_timer_40
     0000003F  ___bank_script_timer_41            script_timer_41
     0000003F  ___bank_script_timer_42            script_timer_42
     0000003F  ___bank_script_timer_43            script_timer_43
     0000003F  ___bank_script_timer_44            script_timer_44
     0000003F  ___bank_script_timer_45            script_timer_45
     0000003F  ___bank_script_timer_46            script_timer_46
     0000003F  ___bank_script_timer_47            script_timer_47
     0000003F  ___bank_script_timer_48            script_timer_48
     0000003F  ___bank_script_timer_49            script_timer_49
     0000003F  ___bank_script_timer_5             script_timer_5
     0000003F  ___bank_script_timer_54            script_timer_54
     0000003F  ___bank_script_timer_55            script_timer_55
     0000003F  ___bank_script_timer_56            script_timer_56
     0000003F  ___bank_script_timer_57            script_timer_57
     0000003F  ___bank_script_timer_58            script_timer_58
     0000003F  ___bank_script_timer_59            script_timer_59
     0000003F  ___bank_script_timer_6             script_timer_6
     0000003F  ___bank_script_timer_60            script_timer_60
     0000003F  ___bank_script_timer_61            script_timer_61
     0000003F  ___bank_script_timer_63            script_timer_63
     0000003F  ___bank_script_timer_64            script_timer_64
     0000003F  ___bank_script_timer_65            script_timer_65
     0000003F  ___bank_script_timer_66            script_timer_66
     0000003F  ___bank_script_timer_69            script_timer_69
     0000003F  ___bank_script_timer_7             script_timer_7
     0000003F  ___bank_script_timer_70            script_timer_70
     0000003F  ___bank_script_timer_71            script_timer_71
     0000003F  ___bank_script_timer_72            script_timer_72
     0000003F  ___bank_script_timer_73            script_timer_73
     0000003F  ___bank_script_timer_74            script_timer_74
     0000003F  ___bank_script_timer_75            script_timer_75
     0000003F  ___bank_script_timer_76            script_timer_76
     0000003F  ___bank_script_timer_79            script_timer_79
     0000003F  ___bank_script_timer_8             script_timer_8
ASxxxx Linker V03.00/V05.40 + sdld,  page 26.
Hexadecimal  [32-Bits]

Area                                    Addr        Size        Decimal Bytes (Attributes)
--------------------------------        ----        ----        ------- ----- ------------
.  .ABS.                            00000000    00000000 =           0. bytes (ABS,CON)

      Value  Global                              Global Defined In Module
      -----  --------------------------------   ------------------------
     0000003F  ___bank_script_timer_80            script_timer_80
     0000003F  ___bank_script_timer_81            script_timer_81
     0000003F  ___bank_script_timer_84            script_timer_84
     0000003F  ___bank_script_timer_85            script_timer_85
     0000003F  ___bank_script_timer_86            script_timer_86
     0000003F  ___bank_script_timer_87            script_timer_87
     0000003F  ___bank_script_timer_88            script_timer_88
     0000003F  ___bank_script_timer_89            script_timer_89
     0000003F  ___bank_script_timer_9             script_timer_9
     0000003F  ___bank_script_timer_91            script_timer_91
     0000003F  ___bank_script_timer_92            script_timer_92
     0000003F  ___bank_script_timer_93            script_timer_93
     0000003F  ___bank_script_timer_94            script_timer_94
     0000003F  ___bank_script_timer_95            script_timer_95
     0000003F  ___bank_script_timer_96            script_timer_96
     0000003F  ___bank_script_timer_97            script_timer_97
     0000003F  ___bank_sprite_cedric_dust_bank2   sprite_cedric_dust_bank2_til
     0000003F  ___bank_sprite_cedric_dust_tiles   sprite_cedric_dust_tileset
     0000003F  ___bank_sprite_feather_bank2_til   sprite_feather_bank2_tileset
     0000003F  ___bank_sprite_feather_tileset     sprite_feather_tileset
     0000003F  ___bank_sprite_flame_whip_bank2_   sprite_flame_whip_bank2_tile
     0000003F  ___bank_sprite_foxberry_ui_bank2   sprite_foxberry_ui_bank2_til
     0000003F  ___bank_sprite_foxberry_ui_tiles   sprite_foxberry_ui_tileset
     0000003F  ___bank_sprite_lava_tileset        sprite_lava_tileset
     0000003F  ___bank_sprite_metal_walls_bank2   sprite_metal_walls_bank2_til
     0000003F  ___bank_sprite_metal_walls_tiles   sprite_metal_walls_tileset
     0000003F  ___bank_sprite_poison_bank2_tile   sprite_poison_bank2_tileset
     0000003F  ___bank_sprite_poison_tileset      sprite_poison_tileset
     0000003F  ___bank_sprite_potion_ui_bank2_t   sprite_potion_ui_bank2_tiles
     0000003F  ___bank_sprite_potion_ui_tileset   sprite_potion_ui_tileset
     0000003F  ___bank_sprite_toxic_tileset       sprite_toxic_tileset
     0000003F  ___bank_sprite_unknown_key_copy_   sprite_unknown_key_copy_2__b
     0000003F  ___bank_sprite_unknown_key_copy_   sprite_unknown_key_copy_2__t
     0000003F  ___bank_sprite_unknown_key_copy_   sprite_unknown_key_copy_bank
     0000003F  ___bank_sprite_unknown_key_copy_   sprite_unknown_key_copy_tile
     0000003F  ___bank_sprite_water_tileset       sprite_water_tileset
     0000003F  ___bank_spritesheet_none           spritesheet_none
     0000003F  ___bank_trigger_100_interact       trigger_100_interact
     0000003F  ___bank_trigger_101_interact       trigger_101_interact
     0000003F  ___bank_trigger_102_interact       trigger_102_interact
     0000003F  ___bank_trigger_11_interact        trigger_11_interact
     0000003F  ___bank_trigger_125_interact       trigger_125_interact
     0000003F  ___bank_trigger_126_interact       trigger_126_interact
     0000003F  ___bank_trigger_127_interact       trigger_127_interact
     0000003F  ___bank_trigger_128_interact       trigger_128_interact
     0000003F  ___bank_trigger_129_interact       trigger_129_interact
     0000003F  ___bank_trigger_12_interact        trigger_12_interact
     0000003F  ___bank_trigger_130_interact       trigger_130_interact
     0000003F  ___bank_trigger_131_interact       trigger_131_interact
     0000003F  ___bank_trigger_132_interact       trigger_132_interact
     0000003F  ___bank_trigger_133_interact       trigger_133_interact
ASxxxx Linker V03.00/V05.40 + sdld,  page 27.
Hexadecimal  [32-Bits]

Area                                    Addr        Size        Decimal Bytes (Attributes)
--------------------------------        ----        ----        ------- ----- ------------
.  .ABS.                            00000000    00000000 =           0. bytes (ABS,CON)

      Value  Global                              Global Defined In Module
      -----  --------------------------------   ------------------------
     0000003F  ___bank_trigger_134_interact       trigger_134_interact
     0000003F  ___bank_trigger_135_interact       trigger_135_interact
     0000003F  ___bank_trigger_136_interact       trigger_136_interact
     0000003F  ___bank_trigger_137_interact       trigger_137_interact
     0000003F  ___bank_trigger_138_interact       trigger_138_interact
     0000003F  ___bank_trigger_139_interact       trigger_139_interact
     0000003F  ___bank_trigger_13_interact        trigger_13_interact
     0000003F  ___bank_trigger_140_interact       trigger_140_interact
     0000003F  ___bank_trigger_141_interact       trigger_141_interact
     0000003F  ___bank_trigger_142_interact       trigger_142_interact
     0000003F  ___bank_trigger_143_interact       trigger_143_interact
     0000003F  ___bank_trigger_144_interact       trigger_144_interact
     0000003F  ___bank_trigger_145_interact       trigger_145_interact
     0000003F  ___bank_trigger_146_interact       trigger_146_interact
     0000003F  ___bank_trigger_147_interact       trigger_147_interact
     0000003F  ___bank_trigger_148_interact       trigger_148_interact
     0000003F  ___bank_trigger_149_interact       trigger_149_interact
     0000003F  ___bank_trigger_14_interact        trigger_14_interact
     0000003F  ___bank_trigger_150_interact       trigger_150_interact
     0000003F  ___bank_trigger_151_interact       trigger_151_interact
     0000003F  ___bank_trigger_152_interact       trigger_152_interact
     0000003F  ___bank_trigger_153_interact       trigger_153_interact
     0000003F  ___bank_trigger_154_interact       trigger_154_interact
     0000003F  ___bank_trigger_155_interact       trigger_155_interact
     0000003F  ___bank_trigger_156_interact       trigger_156_interact
     0000003F  ___bank_trigger_157_interact       trigger_157_interact
     0000003F  ___bank_trigger_158_interact       trigger_158_interact
     0000003F  ___bank_trigger_159_interact       trigger_159_interact
     0000003F  ___bank_trigger_15_interact        trigger_15_interact
     0000003F  ___bank_trigger_161_interact       trigger_161_interact
     0000003F  ___bank_trigger_162_interact       trigger_162_interact
     0000003F  ___bank_trigger_164_interact       trigger_164_interact
     0000003F  ___bank_trigger_165_interact       trigger_165_interact
     0000003F  ___bank_trigger_166_interact       trigger_166_interact
     0000003F  ___bank_trigger_167_interact       trigger_167_interact
     0000003F  ___bank_trigger_168_interact       trigger_168_interact
     0000003F  ___bank_trigger_169_interact       trigger_169_interact
     0000003F  ___bank_trigger_16_interact        trigger_16_interact
     0000003F  ___bank_trigger_170_interact       trigger_170_interact
     0000003F  ___bank_trigger_171_interact       trigger_171_interact
     0000003F  ___bank_trigger_172_interact       trigger_172_interact
     0000003F  ___bank_trigger_173_interact       trigger_173_interact
     0000003F  ___bank_trigger_17_interact        trigger_17_interact
     0000003F  ___bank_trigger_187_interact       trigger_187_interact
     0000003F  ___bank_trigger_188_interact       trigger_188_interact
     0000003F  ___bank_trigger_18_interact        trigger_18_interact
     0000003F  ___bank_trigger_195_interact       trigger_195_interact
     0000003F  ___bank_trigger_196_interact       trigger_196_interact
     0000003F  ___bank_trigger_197_interact       trigger_197_interact
     0000003F  ___bank_trigger_198_interact       trigger_198_interact
     0000003F  ___bank_trigger_199_interact       trigger_199_interact
ASxxxx Linker V03.00/V05.40 + sdld,  page 28.
Hexadecimal  [32-Bits]

Area                                    Addr        Size        Decimal Bytes (Attributes)
--------------------------------        ----        ----        ------- ----- ------------
.  .ABS.                            00000000    00000000 =           0. bytes (ABS,CON)

      Value  Global                              Global Defined In Module
      -----  --------------------------------   ------------------------
     0000003F  ___bank_trigger_200_interact       trigger_200_interact
     0000003F  ___bank_trigger_201_interact       trigger_201_interact
     0000003F  ___bank_trigger_202_interact       trigger_202_interact
     0000003F  ___bank_trigger_203_interact       trigger_203_interact
     0000003F  ___bank_trigger_204_interact       trigger_204_interact
     0000003F  ___bank_trigger_205_interact       trigger_205_interact
     0000003F  ___bank_trigger_206_interact       trigger_206_interact
     0000003F  ___bank_trigger_207_interact       trigger_207_interact
     0000003F  ___bank_trigger_208_interact       trigger_208_interact
     0000003F  ___bank_trigger_209_interact       trigger_209_interact
     0000003F  ___bank_trigger_210_interact       trigger_210_interact
     0000003F  ___bank_trigger_211_interact       trigger_211_interact
     0000003F  ___bank_trigger_212_interact       trigger_212_interact
     0000003F  ___bank_trigger_214_interact       trigger_214_interact
     0000003F  ___bank_trigger_216_interact       trigger_216_interact
     0000003F  ___bank_trigger_217_interact       trigger_217_interact
     0000003F  ___bank_trigger_218_interact       trigger_218_interact
     0000003F  ___bank_trigger_227_interact       trigger_227_interact
     0000003F  ___bank_trigger_231_interact       trigger_231_interact
     0000003F  ___bank_trigger_232_interact       trigger_232_interact
     0000003F  ___bank_trigger_3_interact         trigger_3_interact
     0000003F  ___bank_trigger_49_interact        trigger_49_interact
     0000003F  ___bank_trigger_50_interact        trigger_50_interact
     0000003F  ___bank_trigger_51_interact        trigger_51_interact
     0000003F  ___bank_trigger_52_interact        trigger_52_interact
     0000003F  ___bank_trigger_53_interact        trigger_53_interact
     0000003F  ___bank_trigger_54_interact        trigger_54_interact
     0000003F  ___bank_trigger_55_interact        trigger_55_interact
     0000003F  ___bank_trigger_56_interact        trigger_56_interact
     0000003F  ___bank_trigger_57_interact        trigger_57_interact
     0000003F  ___bank_trigger_58_interact        trigger_58_interact
     0000003F  ___bank_trigger_59_interact        trigger_59_interact
     0000003F  ___bank_trigger_60_interact        trigger_60_interact
     0000003F  ___bank_trigger_61_interact        trigger_61_interact
     0000003F  ___bank_trigger_62_interact        trigger_62_interact
     0000003F  ___bank_trigger_63_interact        trigger_63_interact
     0000003F  ___bank_trigger_64_interact        trigger_64_interact
     0000003F  ___bank_trigger_65_interact        trigger_65_interact
     0000003F  ___bank_trigger_66_interact        trigger_66_interact
     0000003F  ___bank_trigger_67_interact        trigger_67_interact
     0000003F  ___bank_trigger_70_interact        trigger_70_interact
     0000003F  ___bank_trigger_71_interact        trigger_71_interact
     0000003F  ___bank_trigger_72_interact        trigger_72_interact
     0000003F  ___bank_trigger_73_interact        trigger_73_interact
     0000003F  ___bank_trigger_74_interact        trigger_74_interact
     0000003F  ___bank_trigger_75_interact        trigger_75_interact
     0000003F  ___bank_trigger_76_interact        trigger_76_interact
     0000003F  ___bank_trigger_77_interact        trigger_77_interact
     0000003F  ___bank_trigger_78_interact        trigger_78_interact
     0000003F  ___bank_trigger_79_interact        trigger_79_interact
     0000003F  ___bank_trigger_82_interact        trigger_82_interact
ASxxxx Linker V03.00/V05.40 + sdld,  page 29.
Hexadecimal  [32-Bits]

Area                                    Addr        Size        Decimal Bytes (Attributes)
--------------------------------        ----        ----        ------- ----- ------------
.  .ABS.                            00000000    00000000 =           0. bytes (ABS,CON)

      Value  Global                              Global Defined In Module
      -----  --------------------------------   ------------------------
     0000003F  ___bank_trigger_83_interact        trigger_83_interact
     0000003F  ___bank_trigger_84_interact        trigger_84_interact
     0000003F  ___bank_trigger_85_interact        trigger_85_interact
     0000003F  ___bank_trigger_86_interact        trigger_86_interact
     0000003F  ___bank_trigger_87_interact        trigger_87_interact
     0000003F  ___bank_trigger_88_interact        trigger_88_interact
     0000003F  ___bank_trigger_89_interact        trigger_89_interact
     0000003F  ___bank_trigger_90_interact        trigger_90_interact
     0000003F  ___bank_trigger_93_interact        trigger_93_interact
     0000003F  ___bank_trigger_94_interact        trigger_94_interact
     0000003F  ___bank_trigger_95_interact        trigger_95_interact
     0000003F  ___bank_trigger_96_interact        trigger_96_interact
     0000003F  ___bank_trigger_97_interact        trigger_97_interact
     0000003F  ___bank_trigger_98_interact        trigger_98_interact
     0000003F  ___bank_trigger_99_interact        trigger_99_interact
     0000003F  b_logo_init                        logo
     0000003F  b_logo_update                      logo
     0000003F  b_parallax_init                    parallax
     0000003F  b_remove_LCD_ISRs                  interrupts
     00000060  l__HEADER4                      
     000000AB  l__HEADER11                     
     000001CB  l__CRASH_SCRATCH2               
     00000200  s__CODE                         
     00000ED4  l__CODE                         
     000010D4  s__HOME                         
     000017FB  l__CODE_63                      
     00001994  l__DATA                         
     00002000  _rROMB0                            
     00002D55  l__HOME                         
     00003000  _rROMB1                            
     00003E29  s__BASE                         
     00003E29  s__CODE_0                       
     00003E29  s__INITIALIZER                  
     00003E29  s__LIT                          
     00003E43  s__GSINIT                       
     00003E6A  s__GSFINAL                      
     00003FFE  l__CODE_37                      
     00003FFE  l__CODE_50                      
     00003FFE  l__CODE_57                      
     00003FFE  l__CODE_6                       
     00003FFF  l__CODE_1                       
     00003FFF  l__CODE_13                      
     00003FFF  l__CODE_2                       
     00003FFF  l__CODE_23                      
     00003FFF  l__CODE_24                      
     00003FFF  l__CODE_28                      
     00003FFF  l__CODE_3                       
     00003FFF  l__CODE_30                      
     00003FFF  l__CODE_32                      
     00003FFF  l__CODE_33                      
     00003FFF  l__CODE_4                       
ASxxxx Linker V03.00/V05.40 + sdld,  page 30.
Hexadecimal  [32-Bits]

Area                                    Addr        Size        Decimal Bytes (Attributes)
--------------------------------        ----        ----        ------- ----- ------------
.  .ABS.                            00000000    00000000 =           0. bytes (ABS,CON)

      Value  Global                              Global Defined In Module
      -----  --------------------------------   ------------------------
     00003FFF  l__CODE_40                      
     00003FFF  l__CODE_41                      
     00003FFF  l__CODE_42                      
     00003FFF  l__CODE_43                      
     00003FFF  l__CODE_44                      
     00003FFF  l__CODE_45                      
     00003FFF  l__CODE_46                      
     00003FFF  l__CODE_49                      
     00003FFF  l__CODE_51                      
     00003FFF  l__CODE_52                      
     00003FFF  l__CODE_56                      
     00003FFF  l__CODE_58                      
     00003FFF  l__CODE_62                      
     00003FFF  l__CODE_7                       
     00004000  _RTC_SELECT_REG                    vm_rtc
     00004000  _rRAMB                             
     00004000  l__CODE_10                      
     00004000  l__CODE_11                      
     00004000  l__CODE_12                      
     00004000  l__CODE_14                      
     00004000  l__CODE_15                      
     00004000  l__CODE_16                      
     00004000  l__CODE_17                      
     00004000  l__CODE_18                      
     00004000  l__CODE_19                      
     00004000  l__CODE_20                      
     00004000  l__CODE_21                      
     00004000  l__CODE_22                      
     00004000  l__CODE_25                      
     00004000  l__CODE_26                      
     00004000  l__CODE_27                      
     00004000  l__CODE_29                      
     00004000  l__CODE_31                      
     00004000  l__CODE_34                      
     00004000  l__CODE_35                      
     00004000  l__CODE_36                      
     00004000  l__CODE_38                      
     00004000  l__CODE_39                      
     00004000  l__CODE_47                      
     00004000  l__CODE_48                      
     00004000  l__CODE_5                       
     00004000  l__CODE_53                      
     00004000  l__CODE_54                      
     00004000  l__CODE_55                      
     00004000  l__CODE_59                      
     00004000  l__CODE_60                      
     00004000  l__CODE_61                      
     00004000  l__CODE_8                       
     00004000  l__CODE_9                       
     00006000  _RTC_LATCH_REG                     vm_rtc
     00008000  __VRAM                             
ASxxxx Linker V03.00/V05.40 + sdld,  page 31.
Hexadecimal  [32-Bits]

Area                                    Addr        Size        Decimal Bytes (Attributes)
--------------------------------        ----        ----        ------- ----- ------------
.  .ABS.                            00000000    00000000 =           0. bytes (ABS,CON)

      Value  Global                              Global Defined In Module
      -----  --------------------------------   ------------------------
     00008000  __VRAM8000                         
     00008800  __VRAM8800                         
     00009000  __VRAM9000                         
     00009800  __SCRN0                            
     00009C00  __SCRN1                            
     0000A000  _RTC_VALUE_REG                     vm_rtc
     0000A000  __SRAM                             
     0000C000  __RAM                              
     0000C000  _shadow_OAM                     
     0000C0A0  s__DATA                         
     0000D000  __RAMBANK                          
     0000DA34  s__BSS                          
     0000DA34  s__INITIALIZED                  
     0000DA4E  s__HEAP                         
     0000DA4E  s__HEAP_END                     
     0000DF00  .STACK                          
     0000DF00  _shadow_OAM2                       absolute
     0000DFA0  _BkgPalette                        absolute
     0000DFE0  _vwf_tile_data                     absolute
     0000FE00  __OAMRAM                           
     0000FF00  _P1_REG                            
     0000FF00  __IO                               
     0000FF01  _SB_REG                            
     0000FF02  _SC_REG                            
     0000FF04  _DIV_REG                           
     0000FF05  _TIMA_REG                          
     0000FF06  _TMA_REG                           
     0000FF07  _TAC_REG                           
     0000FF0F  _IF_REG                            
     0000FF10  _NR10_REG                          
     0000FF11  _NR11_REG                          
     0000FF12  _NR12_REG                          
     0000FF13  _NR13_REG                          
     0000FF14  _NR14_REG                          
     0000FF16  _NR21_REG                          
     0000FF17  _NR22_REG                          
     0000FF18  _NR23_REG                          
     0000FF19  _NR24_REG                          
     0000FF1A  _NR30_REG                          
     0000FF1B  _NR31_REG                          
     0000FF1C  _NR32_REG                          
     0000FF1D  _NR33_REG                          
     0000FF1E  _NR34_REG                          
     0000FF20  _NR41_REG                          
     0000FF21  _NR42_REG                          
     0000FF22  _NR43_REG                          
     0000FF23  _NR44_REG                          
     0000FF24  _NR50_REG                          
     0000FF25  _NR51_REG                          
     0000FF26  _NR52_REG                          
     0000FF30  _AUD3WAVE                          
ASxxxx Linker V03.00/V05.40 + sdld,  page 32.
Hexadecimal  [32-Bits]

Area                                    Addr        Size        Decimal Bytes (Attributes)
--------------------------------        ----        ----        ------- ----- ------------
.  .ABS.                            00000000    00000000 =           0. bytes (ABS,CON)

      Value  Global                              Global Defined In Module
      -----  --------------------------------   ------------------------
     0000FF30  _PCM_SAMPLE                        
     0000FF30  __AUD3WAVERAM                      
     0000FF40  _LCDC_REG                          
     0000FF41  _STAT_REG                          
     0000FF42  _SCY_REG                           
     0000FF43  _SCX_REG                           
     0000FF44  _LY_REG                            
     0000FF45  _LYC_REG                           
     0000FF46  _DMA_REG                           
     0000FF47  _BGP_REG                           
     0000FF48  _OBP0_REG                          
     0000FF49  _OBP1_REG                          
     0000FF4A  _WY_REG                            
     0000FF4B  _WX_REG                            
     0000FF4D  _KEY1_REG                          
     0000FF4F  _VBK_REG                           
     0000FF51  _HDMA1_REG                         
     0000FF52  _HDMA2_REG                         
     0000FF53  _HDMA3_REG                         
     0000FF54  _HDMA4_REG                         
     0000FF55  _HDMA5_REG                         
     0000FF56  _RP_REG                            
     0000FF68  _BCPS_REG                          
     0000FF69  _BCPD_REG                          
     0000FF6A  _OCPS_REG                          
     0000FF6B  _OCPD_REG                          
     0000FF70  _SVBK_REG                          
     0000FF76  _PCM12_REG                         
     0000FF77  _PCM34_REG                         
     0000FF80  .refresh_OAM                    
     0000FF80  __HRAM                             
     0000FFFF  _IE_REG                            
     00014000  s__CODE_1                       
     00024000  s__CODE_2                       
     00034000  s__CODE_3                       
     00044000  s__CODE_4                       
     00054000  s__CODE_5                       
     00064000  s__CODE_6                       
     00074000  s__CODE_7                       
     00084000  s__CODE_8                       
     00094000  s__CODE_9                       
     000A4000  s__CODE_10                      
     000B4000  s__CODE_11                      
     000C4000  s__CODE_12                      
     000D4000  s__CODE_13                      
     000E4000  s__CODE_14                      
     000F4000  s__CODE_15                      
     00104000  s__CODE_16                      
     00114000  s__CODE_17                      
     00124000  s__CODE_18                      
     00134000  s__CODE_19                      
ASxxxx Linker V03.00/V05.40 + sdld,  page 33.
Hexadecimal  [32-Bits]

Area                                    Addr        Size        Decimal Bytes (Attributes)
--------------------------------        ----        ----        ------- ----- ------------
.  .ABS.                            00000000    00000000 =           0. bytes (ABS,CON)

      Value  Global                              Global Defined In Module
      -----  --------------------------------   ------------------------
     00144000  s__CODE_20                      
     00154000  s__CODE_21                      
     00164000  s__CODE_22                      
     00174000  s__CODE_23                      
     00184000  s__CODE_24                      
     00194000  s__CODE_25                      
     001A4000  s__CODE_26                      
     001B4000  s__CODE_27                      
     001C4000  s__CODE_28                      
     001D4000  s__CODE_29                      
     001E4000  s__CODE_30                      
     001F4000  s__CODE_31                      
     00204000  s__CODE_32                      
     00214000  s__CODE_33                      
     00224000  s__CODE_34                      
     00234000  s__CODE_35                      
     00244000  s__CODE_36                      
     00254000  s__CODE_37                      
     00264000  s__CODE_38                      
     00274000  s__CODE_39                      
     00284000  s__CODE_40                      
     00294000  s__CODE_41                      
     002A4000  s__CODE_42                      
     002B4000  s__CODE_43                      
     002C4000  s__CODE_44                      
     002D4000  s__CODE_45                      
     002E4000  s__CODE_46                      
     002F4000  s__CODE_47                      
     00304000  s__CODE_48                      
     00314000  s__CODE_49                      
     00324000  s__CODE_50                      
     00334000  s__CODE_51                      
     00344000  s__CODE_52                      
     00354000  s__CODE_53                      
     00364000  s__CODE_54                      
     00374000  s__CODE_55                      
     00384000  s__CODE_56                      
     00394000  s__CODE_57                      
     003A4000  s__CODE_58                      
     003B4000  s__CODE_59                      
     003C4000  s__CODE_60                      
     003D4000  s__CODE_61                      
     003E4000  s__CODE_62                      
     003F4000  s__CODE_63                      

ASxxxx Linker V03.00/V05.40 + sdld,  page 34.
Hexadecimal  [32-Bits]

Area                                    Addr        Size        Decimal Bytes (Attributes)
--------------------------------        ----        ----        ------- ----- ------------
_CODE                               00000200    00000ED4 =        3796. bytes (REL,CON)

      Value  Global                              Global Defined In Module
      -----  --------------------------------   ------------------------
     00000200  ___HandleCrash                     
     0000020A  _SIO_send_byte                     
     0000021D  _SIO_receive                       
     0000022E  _GetWinAddr                        
     00000236  _GetBkgAddr                        
     00000244  _state_init                        
     00000249  _state_update                      
     0000026B  _ui_time_masks                     
     00000273  _ui_print_shift_char               
     000002F6  _ui_draw_frame_row                 
     000002FF  .ui_draw_frame_row                 
     00000328  _script_cmds                       vm_instructions
     00000560  _save_signature                    game_signature
     00000564  _start_scene_x                     
     00000566  _start_scene_y                     
     00000568  _start_scene_dir                   
     00000569  _start_scene                       
     0000056C  _start_player_move_speed           
     0000056D  _start_player_anim_tick            
     0000056E  _ui_fonts                          
     00000574  _core_reset_hook                   main
     0000057C  _main                              main
     00000584  _state_start_fns                   
     00000596  _state_update_fns                  
     000005A8  _hUGE_init                         hUGEDriver_obj
     000005AA  hUGE_init                          hUGEDriver_obj
     00000600  _hUGE_mute_channel                 hUGEDriver_obj
     00000602  hUGE_mute_channel                  hUGEDriver_obj
     00000850  _hUGE_set_position                 hUGEDriver_obj
     00000852  hUGE_set_position                  hUGEDriver_obj
     00000A17  _hUGE_dosound                      hUGEDriver_obj
     00000A17  hUGE_dosound                       hUGEDriver_obj
     00000D43  _get_vram_byte                     
     00000D4B  _get_win_tile_xy                   
     00000D53  _get_bkg_tile_xy                   
     00000D7A  _set_sprite_palette                CGB
     00000D7F  _set_bkg_palette                   CGB
     00000D82  .set_palette                       CGB
     00000DA1  _set_sprite_palette_entry          CGB
     00000DA6  _set_bkg_palette_entry             CGB
     00000DA9  .set_palette_entry                 CGB
     00000DC5  _hide_sprites_range                Metasprites
     00000DF4  __mulsuchar                        mul
     00000DF7  __muluschar                        mul
     00000E00  __mulschar                         mul
     00000E08  __mulint                           mul
     00000E27  __muluchar                         mul
     00000E39  _set_vram_byte                     
     00000E42  _set_win_tile_xy                   
     00000E4B  _set_bkg_tile_xy                   
ASxxxx Linker V03.00/V05.40 + sdld,  page 35.
Hexadecimal  [32-Bits]

Area                                    Addr        Size        Decimal Bytes (Attributes)
--------------------------------        ----        ----        ------- ----- ------------
_CODE                               00000200    00000ED4 =        3796. bytes (REL,CON)

      Value  Global                              Global Defined In Module
      -----  --------------------------------   ------------------------
     00000E7A  .sgb_check                         
     00000E7A  _sgb_check                         
     00000EC2  _sgb_transfer                      
     00000EC7  .sgb_transfer                      
     00000F08  .copy_vram                         
     00000F0E  _get_data                          
     00000F0E  _set_data                          
     00000F0E  _vmemcpy                           
     00000F5C  ___move_metasprite                 Metasprites
     00000F99  ___memcpy                          
     00000F99  _memcpy                            
     00000FCB  _cpu_slow                          CGB
     00000FE6  _cpu_fast                          CGB
     00000FED  __divsuchar                        divmod
     00000FF3  __modsuchar                        divmod
     00000FFC  __divuschar                        divmod
     00001005  __moduschar                        divmod
     00001011  __divschar                         divmod
     00001016  __modschar                         divmod
     0000101D  __divsint                          divmod
     00001026  __modsint                          divmod
     00001032  __divuchar                         divmod
     00001037  __moduchar                         divmod
     0000103E  __divuint                          divmod
     00001047  __moduint                          divmod
     00001053  .div8                              divmod
     00001053  .mod8                              divmod
     0000105B  .div16                             divmod
     0000105B  .mod16                             divmod
     00001091  .divu8                             divmod
     00001091  .modu8                             divmod
     00001094  .divu16                            divmod
     00001094  .modu16                            divmod

ASxxxx Linker V03.00/V05.40 + sdld,  page 36.
Hexadecimal  [32-Bits]

Area                                    Addr        Size        Decimal Bytes (Attributes)
--------------------------------        ----        ----        ------- ----- ------------
_HEADER0                            00000000    00000001 =           1. bytes (ABS,CON)

      Value  Global                              Global Defined In Module
      -----  --------------------------------   ------------------------
     00000020  .call_hl                           Runtime

ASxxxx Linker V03.00/V05.40 + sdld,  page 37.
Hexadecimal  [32-Bits]

Area                                    Addr        Size        Decimal Bytes (Attributes)
--------------------------------        ----        ----        ------- ----- ------------
_HEADER1                            00000000    00000005 =           5. bytes (ABS,CON)

      Value  Global                              Global Defined In Module
      -----  --------------------------------   ------------------------
     00000028  .MemsetSmall                       Runtime

ASxxxx Linker V03.00/V05.40 + sdld,  page 38.
Hexadecimal  [32-Bits]

Area                                    Addr        Size        Decimal Bytes (Attributes)
--------------------------------        ----        ----        ------- ----- ------------
_HEADER2                            00000000    00000007 =           7. bytes (ABS,CON)

      Value  Global                              Global Defined In Module
      -----  --------------------------------   ------------------------
     00000030  .MemcpySmall                       Runtime

ASxxxx Linker V03.00/V05.40 + sdld,  page 39.
Hexadecimal  [32-Bits]

Area                                    Addr        Size        Decimal Bytes (Attributes)
--------------------------------        ----        ----        ------- ----- ------------
_HEADER3                            00000000    00000008 =           8. bytes (ABS,CON)

      Value  Global                              Global Defined In Module
      -----  --------------------------------   ------------------------
ASxxxx Linker V03.00/V05.40 + sdld,  page 40.
Hexadecimal  [32-Bits]

Area                                    Addr        Size        Decimal Bytes (Attributes)
--------------------------------        ----        ----        ------- ----- ------------
_HEADER4                            00000000    00000060 =          96. bytes (ABS,CON)

      Value  Global                              Global Defined In Module
      -----  --------------------------------   ------------------------
     00000080  .int                               Runtime
     0000008F  _wait_int_handler                  Runtime
     0000009C  __standard_VBL_handler             Runtime
     000000AB  _refresh_OAM                       Runtime
     000000CC  _set_interrupts                    Runtime

ASxxxx Linker V03.00/V05.40 + sdld,  page 41.
Hexadecimal  [32-Bits]

Area                                    Addr        Size        Decimal Bytes (Attributes)
--------------------------------        ----        ----        ------- ----- ------------
_HEADER5                            00000000    00000001 =           1. bytes (ABS,CON)

      Value  Global                              Global Defined In Module
      -----  --------------------------------   ------------------------
ASxxxx Linker V03.00/V05.40 + sdld,  page 42.
Hexadecimal  [32-Bits]

Area                                    Addr        Size        Decimal Bytes (Attributes)
--------------------------------        ----        ----        ------- ----- ------------
_HEADER6                            00000000    00000002 =           2. bytes (ABS,CON)

      Value  Global                              Global Defined In Module
      -----  --------------------------------   ------------------------
ASxxxx Linker V03.00/V05.40 + sdld,  page 43.
Hexadecimal  [32-Bits]

Area                                    Addr        Size        Decimal Bytes (Attributes)
--------------------------------        ----        ----        ------- ----- ------------
_HEADER7                            00000000    00000030 =          48. bytes (ABS,CON)

      Value  Global                              Global Defined In Module
      -----  --------------------------------   ------------------------
ASxxxx Linker V03.00/V05.40 + sdld,  page 44.
Hexadecimal  [32-Bits]

Area                                    Addr        Size        Decimal Bytes (Attributes)
--------------------------------        ----        ----        ------- ----- ------------
_HEADER8                            00000000    00000006 =           6. bytes (ABS,CON)

      Value  Global                              Global Defined In Module
      -----  --------------------------------   ------------------------
ASxxxx Linker V03.00/V05.40 + sdld,  page 45.
Hexadecimal  [32-Bits]

Area                                    Addr        Size        Decimal Bytes (Attributes)
--------------------------------        ----        ----        ------- ----- ------------
_HEADER9                            00000000    00000003 =           3. bytes (ABS,CON)

      Value  Global                              Global Defined In Module
      -----  --------------------------------   ------------------------
ASxxxx Linker V03.00/V05.40 + sdld,  page 46.
Hexadecimal  [32-Bits]

Area                                    Addr        Size        Decimal Bytes (Attributes)
--------------------------------        ----        ----        ------- ----- ------------
_HEADERa                            00000000    00000001 =           1. bytes (ABS,CON)

      Value  Global                              Global Defined In Module
      -----  --------------------------------   ------------------------
ASxxxx Linker V03.00/V05.40 + sdld,  page 47.
Hexadecimal  [32-Bits]

Area                                    Addr        Size        Decimal Bytes (Attributes)
--------------------------------        ----        ----        ------- ----- ------------
_HEADERb                            00000000    00000001 =           1. bytes (ABS,CON)

      Value  Global                              Global Defined In Module
      -----  --------------------------------   ------------------------
ASxxxx Linker V03.00/V05.40 + sdld,  page 48.
Hexadecimal  [32-Bits]

Area                                    Addr        Size        Decimal Bytes (Attributes)
--------------------------------        ----        ----        ------- ----- ------------
_HEADERc                            00000000    00000001 =           1. bytes (ABS,CON)

      Value  Global                              Global Defined In Module
      -----  --------------------------------   ------------------------
ASxxxx Linker V03.00/V05.40 + sdld,  page 49.
Hexadecimal  [32-Bits]

Area                                    Addr        Size        Decimal Bytes (Attributes)
--------------------------------        ----        ----        ------- ----- ------------
_HEADERd                            00000000    00000002 =           2. bytes (ABS,CON)

      Value  Global                              Global Defined In Module
      -----  --------------------------------   ------------------------
ASxxxx Linker V03.00/V05.40 + sdld,  page 50.
Hexadecimal  [32-Bits]

Area                                    Addr        Size        Decimal Bytes (Attributes)
--------------------------------        ----        ----        ------- ----- ------------
_HEADERe                            00000000    00000001 =           1. bytes (ABS,CON)

      Value  Global                              Global Defined In Module
      -----  --------------------------------   ------------------------
ASxxxx Linker V03.00/V05.40 + sdld,  page 51.
Hexadecimal  [32-Bits]

Area                                    Addr        Size        Decimal Bytes (Attributes)
--------------------------------        ----        ----        ------- ----- ------------
_HEADERf                            00000000    00000001 =           1. bytes (ABS,CON)

      Value  Global                              Global Defined In Module
      -----  --------------------------------   ------------------------
ASxxxx Linker V03.00/V05.40 + sdld,  page 52.
Hexadecimal  [32-Bits]

Area                                    Addr        Size        Decimal Bytes (Attributes)
--------------------------------        ----        ----        ------- ----- ------------
_HEADER10                           00000000    00000002 =           2. bytes (ABS,CON)

      Value  Global                              Global Defined In Module
      -----  --------------------------------   ------------------------
ASxxxx Linker V03.00/V05.40 + sdld,  page 53.
Hexadecimal  [32-Bits]

Area                                    Addr        Size        Decimal Bytes (Attributes)
--------------------------------        ----        ----        ------- ----- ------------
_HEADER11                           00000000    000000AB =         171. bytes (ABS,CON)

      Value  Global                              Global Defined In Module
      -----  --------------------------------   ------------------------
     00000150  .reset                             Runtime
     00000150  _reset                             Runtime
     00000157  .code_start                        Runtime
     000001B9  _exit                              Runtime
     000001BD  .wait_vbl_done                     Runtime
     000001BD  _vsync                             Runtime
     000001BD  _wait_vbl_done                     Runtime
     000001CD  .remove_VBL                        Runtime
     000001CD  _remove_VBL                        Runtime
     000001D0  .remove_int                        Runtime
     000001ED  .add_VBL                           Runtime
     000001ED  _add_VBL                           Runtime
     000001F0  .add_int                           Runtime

ASxxxx Linker V03.00/V05.40 + sdld,  page 54.
Hexadecimal  [32-Bits]

Area                                    Addr        Size        Decimal Bytes (Attributes)
--------------------------------        ----        ----        ------- ----- ------------
_HOME                               000010D4    00002D55 =       11605. bytes (REL,CON)

      Value  Global                              Global Defined In Module
      -----  --------------------------------   ------------------------
     000010D4  .memset_simple                     Runtime
     000010DD  .memcpy_simple                     Runtime
     000010FA  .display_off                       Runtime
     000010FA  _display_off                       Runtime
     00001112  _actors_update                     actor
     0000157A  _SetBankedBkgData                  bankdata
     00001596  _SetBankedSpriteData               bankdata
     000015B2  _SetBankedBkgTiles                 bankdata
     000015CE  _SetBankedWinTiles                 bankdata
     000015EA  _ReadBankedFarPtr                  bankdata
     0000160C  _ReadBankedUWORD                   bankdata
     00001626  _MemcpyBanked                      bankdata
     00001648  _MemcpyVRAMBanked                  bankdata
     00001677  _IndexOfFarPtr                     bankdata
     000016FC  _camera_update                     camera
     0000182F  _load_animations                   data_manager
     00001888  _events_update                     events
     0000195B  _timers_update                     events
     000019E4  _input_update                      input
     00001A07  .sio_ISR                           
     00001A61  .timer_ISR                         
     00001A76  _simple_LCD_isr                    interrupts
     00001AF5  _fullscreen_LCD_isr                interrupts
     00001B21  _VBL_isr                           interrupts
     00001B6B  _isqrt                             math
     00001BC8  _sine_wave                         math
     00001CC8  _dir_lookup                        math
     00001CD0  _dir_angle_lookup                  math
     00001CD4  _hUGETrackerRoutine                music_manager
     00001CFB  _music_events_update               music_manager
     00001D7D  _music_play_isr                    music_manager
     00001E1E  _parallax_LCD_isr                  parallax
     00001E5B  _projectiles_update                projectiles
     000022DC  _projectiles_render                projectiles
     00002431  _scroll_load_pending_row           scroll
     000024B7  _scroll_load_row                   scroll
     0000252C  _scroll_load_col                   scroll
     00002595  _scroll_load_pending_col           scroll
     0000261D  _set_bkg_submap                    
     00002660  _set_xy_win_submap                 
     0000268D  .set_xy_win_submap                 
     00002696  .set_xy_bkg_submap                 
     000026A5  .set_xy_submap                     
     000026F1  _sfx_play_isr                      sfx_player
     000027CA  _on_SIO_receive                    sio
     0000280B  _SIO_update                        sio
     00002872  _ui_update                         ui
     000029AA  _vm_sgb_transfer                   vm_sgb
     000029F7  _vm_load_text                      vm_ui
     00002C4D  _vm_switch                         vm
ASxxxx Linker V03.00/V05.40 + sdld,  page 55.
Hexadecimal  [32-Bits]

Area                                    Addr        Size        Decimal Bytes (Attributes)
--------------------------------        ----        ----        ------- ----- ------------
_HOME                               000010D4    00002D55 =       11605. bytes (REL,CON)

      Value  Global                              Global Defined In Module
      -----  --------------------------------   ------------------------
     00002D7E  _vm_beginthread                    vm
     00002EA2  _vm_rpn                            vm
     000038BA  _vm_get_far                        vm
     00003928  _vm_call_native                    vm
     0000393B  _VM_STEP                           vm
     000039A5  _script_runner_update              vm
     00003B0A  _fill_win_rect                     
     00003B1C  _rand                              
     00003B1C  _randw                             
     00003B47  _initrand                          
     00003B49  .initrand                          
     00003B52  _get_bkg_data                      
     00003B52  _get_win_data                      
     00003B9F  _get_sprite_data                   
     00003BD2  _abs                               abs
     00003BDF  _set_win_tiles                     
     00003BF3  _set_tile_data                     
     00003BF8  _set_bkg_data                      
     00003BF8  _set_win_data                      
     00003C00  _set_sprite_data                   
     00003C30  _reverse                           reverse
     00003C64  ___call__banked                    far_ptr
     00003C81  _to_far_ptr                        far_ptr
     00003CB7  .add_LCD                           
     00003CB7  _add_LCD                           
     00003CBD  .remove_LCD                        
     00003CBD  _remove_LCD                        
     00003CC3  .fill_rect_wtt                     
     00003CCC  .fill_rect_btt                     
     00003D19  _fill_bkg_rect                     
     00003D2B  .padup                             
     00003D2B  _waitpadup                         
     00003D3B  .jpad                              
     00003D3B  _joypad                            
     00003D63  _waitpad                           
     00003D64  .wait_pad                          
     00003D6B  ___sdcc_call_hl                    call_hl
     00003D6C  _memset                            memset
     00003D9F  .set_xy_wtt                        SetTileMap
     00003DA8  .set_xy_btt                        SetTileMap
     00003DB7  .set_xy_tt                         SetTileMap
     00003DFB  ___sdcc_bcall_ehl                  
     00003E15  _set_bkg_tiles                     
ASxxxx Linker V03.00/V05.40 + sdld,  page 56.
Hexadecimal  [32-Bits]

Area                                    Addr        Size        Decimal Bytes (Attributes)
--------------------------------        ----        ----        ------- ----- ------------
_INITIALIZER                        00003E29    0000001A =          26. bytes (REL,CON)

      Value  Global                              Global Defined In Module
      -----  --------------------------------   ------------------------
ASxxxx Linker V03.00/V05.40 + sdld,  page 57.
Hexadecimal  [32-Bits]

Area                                    Addr        Size        Decimal Bytes (Attributes)
--------------------------------        ----        ----        ------- ----- ------------
_GSINIT                             00003E43    00000027 =          39. bytes (REL,CON)

      Value  Global                              Global Defined In Module
      -----  --------------------------------   ------------------------
     00003E43  gsinit                             Runtime

ASxxxx Linker V03.00/V05.40 + sdld,  page 58.
Hexadecimal  [32-Bits]

Area                                    Addr        Size        Decimal Bytes (Attributes)
--------------------------------        ----        ----        ------- ----- ------------
_GSFINAL                            00003E6A    00000001 =           1. bytes (REL,CON)

      Value  Global                              Global Defined In Module
      -----  --------------------------------   ------------------------
ASxxxx Linker V03.00/V05.40 + sdld,  page 59.
Hexadecimal  [32-Bits]

Area                                    Addr        Size        Decimal Bytes (Attributes)
--------------------------------        ----        ----        ------- ----- ------------
_DATA                               0000C0A0    00001994 =        6548. bytes (REL,CON)

      Value  Global                              Global Defined In Module
      -----  --------------------------------   ------------------------
     0000C0A0  __cpu                              Runtime
     0000C0A1  __is_GBA                           Runtime
     0000C0A2  .mode                              Runtime
     0000C0A3  .sys_time                          Runtime
     0000C0A3  _sys_time                          Runtime
     0000C0A5  .int_0x40                          Runtime
     0000C0B1  _actors                            actor
     0000C4F5  _actors_active_head                actor
     0000C4F7  _actors_active_tail                actor
     0000C4F9  _actors_inactive_head              actor
     0000C4FB  _screen_x                          actor
     0000C4FC  _screen_y                          actor
     0000C4FD  _invalid                           actor
     0000C4FF  _player_moving                     actor
     0000C500  _player_iframes                    actor
     0000C501  _player_collision_actor            actor
     0000C503  _emote_actor                       actor
     0000C505  _emote_timer                       actor
     0000C506  _allocated_sprite_tiles            actor
     0000C507  _allocated_hardware_sprites        actor
     0000C514  _camera_x                          camera
     0000C516  _camera_y                          camera
     0000C518  _camera_offset_x                   camera
     0000C519  _camera_offset_y                   camera
     0000C51A  _camera_deadzone_x                 camera
     0000C51B  _camera_deadzone_y                 camera
     0000C51C  _camera_settings                   camera
     0000C520  _current_scene                     data_manager
     0000C523  _image_bank                        data_manager
     0000C524  _image_ptr                         data_manager
     0000C526  _image_attr_bank                   data_manager
     0000C527  _image_attr_ptr                    data_manager
     0000C529  _collision_bank                    data_manager
     0000C52A  _collision_ptr                     data_manager
     0000C52C  _image_tile_width                  data_manager
     0000C52D  _image_tile_height                 data_manager
     0000C52E  _image_width                       data_manager
     0000C530  _image_height                      data_manager
     0000C532  _sprites_len                       data_manager
     0000C533  _actors_len                        data_manager
     0000C534  _projectiles_len                   data_manager
     0000C535  _player_sprite_len                 data_manager
     0000C536  _scene_type                        data_manager
     0000C537  _scene_LCD_type                    data_manager
     0000C538  _scene_stack                       data_manager
     0000C578  _scene_stack_ptr                   data_manager
     0000C57A  _scene_sprites_base_tiles          data_manager
     0000C5BA  _input_events                      events
     0000C5E2  _input_slots                       events
     0000C5EA  _timer_events                      events
ASxxxx Linker V03.00/V05.40 + sdld,  page 60.
Hexadecimal  [32-Bits]

Area                                    Addr        Size        Decimal Bytes (Attributes)
--------------------------------        ----        ----        ------- ----- ------------
_DATA                               0000C0A0    00001994 =        6548. bytes (REL,CON)

      Value  Global                              Global Defined In Module
      -----  --------------------------------   ------------------------
     0000C5FE  _timer_values                      events
     0000C606  _fade_running                      fade_manager
     0000C607  _fade_frames_per_step              fade_manager
     0000C608  _fade_timer                        fade_manager
     0000C610  _joypads                           input
     0000C615  _frame_joy                         input
     0000C616  _last_joy                          input
     0000C617  _recent_joy                        input
     0000C618  _SIO_status                        
     0000C619  _link_byte_sent                    
     0000C61A  _link_next_mode                    
     0000C61B  _save_blob_size                    load_save
     0000C61D  _routine_queue                     music_manager
     0000C621  _routine_queue_head                music_manager
     0000C622  _routine_queue_tail                music_manager
     0000C623  _music_events                      music_manager
     0000C637  _music_current_track_bank          music_manager
     0000C638  _music_mute_mask                   music_manager
     0000C639  _music_effective_mute              music_manager
     0000C63A  _music_next_track                  music_manager
     0000C63C  _music_current_track               music_manager
     0000C63E  _music_play_isr_counter            music_manager
     0000C63F  _music_play_isr_pause              music_manager
     0000C640  _music_global_mute_mask            music_manager
     0000C641  _music_sfx_priority                music_manager
     0000C642  _DMG_palette                       palette
     0000C645  _SprPalette                        palette
     0000C685  _parallax_rows                     parallax
     0000C697  _parallax_row                      parallax
     0000C699  _projectiles                       projectiles
     0000C752  _projectile_defs                   projectiles
     0000C7C5  _projectiles_active_head           projectiles
     0000C7C7  _projectiles_inactive_head         projectiles
     0000C7CE  _scroll_x                          scroll
     0000C7D0  _scroll_y                          scroll
     0000C7D2  _draw_scroll_x                     scroll
     0000C7D4  _draw_scroll_y                     scroll
     0000C7D6  _scroll_x_max                      scroll
     0000C7D8  _scroll_y_max                      scroll
     0000C7DA  _scroll_offset_x                   scroll
     0000C7DB  _scroll_offset_y                   scroll
     0000C7DC  _pending_h_x                       scroll
     0000C7DD  _pending_h_y                       scroll
     0000C7DE  _pending_h_i                       scroll
     0000C7DF  _pending_w_x                       scroll
     0000C7E0  _pending_w_y                       scroll
     0000C7E1  _pending_w_i                       scroll
     0000C7E2  _current_row                       scroll
     0000C7E4  _new_row                           scroll
     0000C7E6  _current_col                       scroll
     0000C7E8  _new_col                           scroll
ASxxxx Linker V03.00/V05.40 + sdld,  page 61.
Hexadecimal  [32-Bits]

Area                                    Addr        Size        Decimal Bytes (Attributes)
--------------------------------        ----        ----        ------- ----- ------------
_DATA                               0000C0A0    00001994 =        6548. bytes (REL,CON)

      Value  Global                              Global Defined In Module
      -----  --------------------------------   ------------------------
     0000C7EA  .image_tile_width                  
     0000C7EB  _sfx_play_bank                     sfx_player
     0000C7EC  _sfx_play_sample                   sfx_player
     0000C7EE  _sfx_frame_skip                    sfx_player
     0000C7EF  _link_operation_mode               sio
     0000C7F0  _link_packet                       sio
     0000C810  _link_packet_len                   sio
     0000C811  _link_packet_ptr                   sio
     0000C813  _link_packet_received              sio
     0000C814  _link_packet_snd_len               sio
     0000C815  _link_packet_snd_ptr               sio
     0000C817  _link_packet_sent                  sio
     0000C818  __is_CGB                           system
     0000C819  __is_SGB                           system
     0000C81A  __current_ram_bank                 system
     0000C81B  _triggers                          trigger
     0000C913  _last_trigger_tx                   trigger
     0000C914  _last_trigger_ty                   trigger
     0000C915  _last_trigger                      trigger
     0000C916  _win_pos_x                         ui
     0000C917  _win_dest_pos_x                    ui
     0000C918  _win_pos_y                         ui
     0000C919  _win_dest_pos_y                    ui
     0000C91A  _win_speed                         ui
     0000C91B  _text_drawn                        ui
     0000C91C  _current_text_speed                ui
     0000C91D  _text_wait                         ui
     0000C91E  _text_options                      ui
     0000C91F  _text_in_speed                     ui
     0000C920  _text_out_speed                    ui
     0000C921  _text_draw_speed                   ui
     0000C922  _text_ff_joypad                    ui
     0000C923  _text_ff                           ui
     0000C924  _text_bkg_fill                     ui
     0000C925  _ui_text_data                      ui
     0000CA2F  _vwf_current_mask                  ui
     0000CA30  _vwf_current_rotate                ui
     0000CA31  _vwf_inverse_map                   ui
     0000CA32  _vwf_direction                     ui
     0000CA33  _vwf_current_font_desc             ui
     0000CA3B  _vwf_current_font_bank             ui
     0000CA3C  _vwf_current_font_idx              ui
     0000CA3D  _text_render_base_addr             ui
     0000CA3F  _text_scroll_addr                  ui
     0000CA41  _text_scroll_width                 ui
     0000CA42  _text_scroll_height                ui
     0000CA43  _text_scroll_fill                  ui
     0000CA44  _text_sound_mask                   ui
     0000CA45  _text_sound_bank                   ui
     0000CA46  _text_sound_data                   ui
     0000CA48  _overlay_priority                  ui
ASxxxx Linker V03.00/V05.40 + sdld,  page 62.
Hexadecimal  [32-Bits]

Area                                    Addr        Size        Decimal Bytes (Attributes)
--------------------------------        ----        ----        ------- ----- ------------
_DATA                               0000C0A0    00001994 =        6548. bytes (REL,CON)

      Value  Global                              Global Defined In Module
      -----  --------------------------------   ------------------------
     0000CA49  _text_palette                      ui
     0000CA50  __itoa_fmt_len                     vm_ui_a
     0000CA51  .itoa_fmt_buf                      vm_ui_a
     0000CA54  _CTXS                              vm
     0000CB84  _first_ctx                         vm
     0000CB86  _free_ctxs                         vm
     0000CB88  _old_executing_ctx                 vm
     0000CB8A  _executing_ctx                     vm
     0000CB8C  _vm_lock_state                     vm
     0000CB8D  _vm_loaded_state                   vm
     0000CB8E  _vm_exception_code                 vm
     0000CB8F  _vm_exception_params_length        vm
     0000CB90  _vm_exception_params_bank          vm
     0000CB91  _vm_exception_params_offset        vm
     0000CB95  _script_memory                     vm
     0000D99B  _grounded                          platform
     0000D99C  _on_slope                          platform
     0000D99D  _slope_y                           platform
     0000D99E  _on_ladder                         platform
     0000D99F  _pl_vel_x                          platform
     0000D9A1  _pl_vel_y                          platform
     0000D9A3  _plat_min_vel                      platform
     0000D9A5  _plat_walk_vel                     platform
     0000D9A7  _plat_climb_vel                    platform
     0000D9A9  _plat_run_vel                      platform
     0000D9AB  _plat_walk_acc                     platform
     0000D9AD  _plat_run_acc                      platform
     0000D9AF  _plat_dec                          platform
     0000D9B1  _plat_jump_vel                     platform
     0000D9B3  _plat_grav                         platform
     0000D9B5  _plat_hold_grav                    platform
     0000D9B7  _plat_max_fall_vel                 platform
     0000D9B9  _shooter_reached_end               shmup
     0000D9BA  _shooter_dest                      shmup
     0000D9BC  _shooter_direction                 shmup
     0000D9BD  _topdown_grid                      topdown
     0000D9BE  ___rand_seed                       
     0000D9DC  _hUGE_current_wave                 hUGEDriver_obj
     0000D9DC  hUGE_current_wave                  hUGEDriver_obj
     0000D9DD  _hUGE_mute_mask                    hUGEDriver_obj
     0000DA24  ___call_banked_addr                far_ptr
     0000DA24  ___call_banked_ptr                 far_ptr
     0000DA26  ___call_banked_bank                far_ptr
     0000DA28  .int_0x48                          
     0000DA30  ___current_metasprite              Metasprites
     0000DA32  ___current_base_tile               Metasprites
     0000DA33  ___current_base_prop               Metasprites

ASxxxx Linker V03.00/V05.40 + sdld,  page 63.
Hexadecimal  [32-Bits]

Area                                    Addr        Size        Decimal Bytes (Attributes)
--------------------------------        ----        ----        ------- ----- ------------
_INITIALIZED                        0000DA34    0000001A =          26. bytes (REL,CON)

      Value  Global                              Global Defined In Module
      -----  --------------------------------   ------------------------
     0000DA34  _fade_style                        fade_manager
     0000DA35  _game_time                         game_time
     0000DA36  _PRN_PKT_START                     gbprinter
     0000DA44  _hide_sprites                      interrupts
     0000DA45  _show_actors_on_overlay            interrupts
     0000DA46  _overlay_cut_scanline              interrupts
     0000DA47  __submap_tile_offset               
     0000DA48  _triggers_len                      trigger
     0000DA49  _exchange_state                    vm_sio
     0000DA4A  _last_hit_trigger                  pointnclick
     0000DA4B  _shooter_scroll_speed              shmup
     0000DA4C  ___render_shadow_OAM               Metasprites
     0000DA4D  __map_tile_offset                  SetTileMap

ASxxxx Linker V03.00/V05.40 + sdld,  page 64.
Hexadecimal  [32-Bits]

Area                                    Addr        Size        Decimal Bytes (Attributes)
--------------------------------        ----        ----        ------- ----- ------------
_HRAM12                             00000000    00000003 =           3. bytes (ABS,CON)

      Value  Global                              Global Defined In Module
      -----  --------------------------------   ------------------------
     0000FF90  __current_bank                     Runtime
     0000FF92  __shadow_OAM_base                  Runtime

ASxxxx Linker V03.00/V05.40 + sdld,  page 65.
Hexadecimal  [32-Bits]

Area                                    Addr        Size        Decimal Bytes (Attributes)
--------------------------------        ----        ----        ------- ----- ------------
_CODE_10                            000A4000    00004000 =       16384. bytes (REL,CON)

      Value  Global                              Global Defined In Module
      -----  --------------------------------   ------------------------
     000A4000  ___func_ACTOR                      actor
     000A4000  _actors_init                       actor
     000A403A  _emote_offsets                     actor
     000A4049  _emote_metasprite                  actor
     000A4055  _player_init                       actor
     000A406A  _deactivate_actor                  actor
     000A41CB  _activate_actor                    actor
     000A430A  _activate_actors_in_row            actor
     000A4401  _activate_actors_in_col            actor
     000A4552  _actor_set_frames                  actor
     000A45A8  _actor_set_frame_offset            actor
     000A45E3  _actor_get_frame_offset            actor
     000A45F5  _actor_set_anim_idle               actor
     000A4623  _actor_set_anim_moving             actor
     000A4654  _actor_set_dir                     actor
     000A46B9  _actor_at_tile                     actor
     000A478D  _actor_in_front_of_player          actor
     000A4841  _actor_overlapping_player          actor
     000A4ADA  _actor_overlapping_bb              actor
     000A4CF9  _actors_handle_player_collision    actor
     000A4D85  _check_collision_in_direction      actor
     000A55A3  ___func_bg_earth_shuttle_bay_upp   bg_earth_shuttle_bay_upper_t
     000A55A3  _bg_earth_shuttle_bay_upper_tile   bg_earth_shuttle_bay_upper_t
     000A7D7B  ___func_bg_luna_water_heater_til   bg_luna_water_heater_tileset
     000A7D7B  _bg_luna_water_heater_tileset      bg_luna_water_heater_tileset
     000A7FFD  ___func_scene_26_sprites           scene_26_sprites
     000A7FFD  _scene_26_sprites                  scene_26_sprites
ASxxxx Linker V03.00/V05.40 + sdld,  page 66.
Hexadecimal  [32-Bits]

Area                                    Addr        Size        Decimal Bytes (Attributes)
--------------------------------        ----        ----        ------- ----- ------------
_CODE_49                            00314000    00003FFF =       16383. bytes (REL,CON)

      Value  Global                              Global Defined In Module
      -----  --------------------------------   ------------------------
     00314000  _bootstrap_script                  
     0031400B  ___func_VM_MAIN                    vm
     0031400B  _vm_call                           vm
     0031404D  _vm_ret                            vm
     003140AD  _vm_call_far                       vm
     0031412C  _vm_ret_far                        vm
     003141A4  _vm_push                           vm
     003141CF  _vm_pop                            vm
     0031420A  _vm_loop                           vm
     00314295  _vm_jump                           vm
     003142A1  _wait_frames                       vm
     00314317  _vm_invoke                         vm
     00314444  _vm_join                           vm
     003144A6  _vm_terminate                      vm
     003144D3  _vm_if                             vm
     00314618  _vm_if_const                       vm
     0031472D  _vm_push_value                     vm
     0031477F  _vm_push_value_ind                 vm
     003147F4  _vm_push_reference                 vm
     0031484B  _vm_reserve                        vm
     00314879  _vm_set                            vm
     003148DA  _vm_set_const                      vm
     00314906  _vm_get_tlocal                     vm
     00314993  _vm_test_terminate                 vm
     0031499E  _vm_idle                           vm
     003149AA  _vm_init_rng                       vm
     003149D6  _vm_rand                           vm
     00314A18  _vm_lock                           vm
     00314A27  _vm_unlock                         vm
     00314A3A  _vm_raise                          vm
     00314A7C  _vm_set_indirect                   vm
     00314AF7  _vm_get_indirect                   vm
     00314B72  _vm_poll_loaded                    vm
     00314BA2  _vm_memset                         vm
     00314BDC  _vm_memcpy                         vm
     00314C59  _script_runner_init                vm
     00314D10  _script_execute                    vm
     00314E76  _script_terminate                  vm
     00314EDB  _script_detach_hthread             vm
     00314F17  ___func_font_gbs_mono              font_gbs_mono
     00315CD7  _font_gbs_mono                     font_gbs_mono
     00316A8E  _song_taking_flight_0_Data         song_taking_flight_0_Data
     003179BA  _song_uncertain_wilds_copy_Data    song_uncertain_wilds_copy_Da
     003179CF  _script_timer_98                   script_timer_98
     003179D1  GBVM$script_timer_98$bee16f56_28   script_timer_98
     003179E3  GBVM$script_timer_98$f82f7ab0_db   script_timer_98
     003179F5  GBVM$script_timer_98$26a170d7_10   script_timer_98
     003179F5  GBVM$script_timer_98$b5d935f9_43   script_timer_98
     00317A05  GBVM$script_timer_98$a0b26fc0_81   script_timer_98
     00317A15  GBVM$script_timer_98$044b6508_75   script_timer_98
ASxxxx Linker V03.00/V05.40 + sdld,  page 67.
Hexadecimal  [32-Bits]

Area                                    Addr        Size        Decimal Bytes (Attributes)
--------------------------------        ----        ----        ------- ----- ------------
_CODE_49                            00314000    00003FFF =       16383. bytes (REL,CON)

      Value  Global                              Global Defined In Module
      -----  --------------------------------   ------------------------
     00317A25  GBVM$script_timer_98$0cc36d11_ee   script_timer_98
     00317A35  GBVM$script_timer_98$f1c9a4eb_7c   script_timer_98
     00317A45  GBVM$script_timer_98$cf502403_93   script_timer_98
     00317A55  GBVM$script_timer_98$5e293bf0_ce   script_timer_98
     00317A65  GBVM$script_timer_98$fba5a7fb_b9   script_timer_98
     00317A75  GBVM_END$script_timer_98$b5d935f   script_timer_98
     00317A78  GBVM$script_timer_98$d0eaa83b_87   script_timer_98
     00317A7D  GBVM$script_timer_98$401aec7a_d8   script_timer_98
     00317A7D  GBVM$script_timer_98$e32180f7_ed   script_timer_98
     00317A8D  GBVM$script_timer_98$ad94c545_68   script_timer_98
     00317A9D  GBVM$script_timer_98$48920258_32   script_timer_98
     00317AAD  GBVM$script_timer_98$77d87b17_bf   script_timer_98
     00317ABD  GBVM$script_timer_98$55bbb27b_9e   script_timer_98
     00317ACD  GBVM$script_timer_98$11d8f455_9f   script_timer_98
     00317ADD  GBVM$script_timer_98$e42acee5_46   script_timer_98
     00317AED  GBVM$script_timer_98$e962dac1_a2   script_timer_98
     00317AFD  GBVM$script_timer_98$0741ab11_93   script_timer_98
     00317AFD  GBVM$script_timer_98$638736fe_22   script_timer_98
     00317AFD  GBVM_END$script_timer_98$e32180f   script_timer_98
     00317AFD  GBVM_END$script_timer_98$f82f7ab   script_timer_98
     00317B0D  GBVM$script_timer_98$6955f84e_75   script_timer_98
     00317B1D  GBVM$script_timer_98$08f10c7e_57   script_timer_98
     00317B2D  GBVM$script_timer_98$56ba2fcc_a3   script_timer_98
     00317B3D  GBVM$script_timer_98$98b9c4e1_b4   script_timer_98
     00317B4D  GBVM$script_timer_98$d2eb1e6c_35   script_timer_98
     00317B5D  GBVM$script_timer_98$e0a438cb_5a   script_timer_98
     00317B6D  GBVM$script_timer_98$1b0d6306_ed   script_timer_98
     00317B7D  GBVM$script_timer_98$79e9caff_36   script_timer_98
     00317B7D  GBVM$script_timer_98$c623c8d3_af   script_timer_98
     00317B7D  GBVM_END$script_timer_98$638736f   script_timer_98
     00317B8D  GBVM$script_timer_98$dd7bbed0_17   script_timer_98
     00317B9D  GBVM$script_timer_98$d4a15347_3b   script_timer_98
     00317BAD  GBVM$script_timer_98$c7191ced_ad   script_timer_98
     00317BBD  GBVM$script_timer_98$b6cd8623_d5   script_timer_98
     00317BCD  GBVM$script_timer_98$3146bd0e_82   script_timer_98
     00317BDD  GBVM$script_timer_98$68d10666_08   script_timer_98
     00317BED  GBVM$script_timer_98$a4b7d284_e3   script_timer_98
     00317BFD  GBVM$script_timer_98$123a8335_bc   script_timer_98
     00317BFD  GBVM_END$script_timer_98$c623c8d   script_timer_98
     00317C1E  GBVM$script_timer_98$6888b495_9e   script_timer_98
     00317C2E  GBVM$script_timer_98$b0d9bc99_e4   script_timer_98
     00317C3E  GBVM$script_timer_98$bcd80063_da   script_timer_98
     00317C4E  GBVM$script_timer_98$2dc014de_67   script_timer_98
     00317C61  GBVM$script_timer_98$6a760a55_7f   script_timer_98
     00317C61  GBVM$script_timer_98$73ec5761_94   script_timer_98
     00317C71  GBVM$script_timer_98$d229d079_2e   script_timer_98
     00317C81  GBVM$script_timer_98$27967d50_aa   script_timer_98
     00317C91  GBVM$script_timer_98$f1721077_34   script_timer_98
     00317CA1  GBVM_END$script_timer_98$6a760a5   script_timer_98
     00317CA4  GBVM$script_timer_98$0fb26a23_d9   script_timer_98
     00317CA4  GBVM$script_timer_98$a6309a59_d0   script_timer_98
ASxxxx Linker V03.00/V05.40 + sdld,  page 68.
Hexadecimal  [32-Bits]

Area                                    Addr        Size        Decimal Bytes (Attributes)
--------------------------------        ----        ----        ------- ----- ------------
_CODE_49                            00314000    00003FFF =       16383. bytes (REL,CON)

      Value  Global                              Global Defined In Module
      -----  --------------------------------   ------------------------
     00317CB4  GBVM$script_timer_98$8eac377e_43   script_timer_98
     00317CC4  GBVM$script_timer_98$974075ba_be   script_timer_98
     00317CD4  GBVM$script_timer_98$9ca0a752_0b   script_timer_98
     00317CE4  GBVM_END$script_timer_98$0fb26a2   script_timer_98
     00317CE7  GBVM$script_timer_98$9fe331b2_29   script_timer_98
     00317CE7  GBVM$script_timer_98$fc690030_33   script_timer_98
     00317CF7  GBVM$script_timer_98$a4bcd195_31   script_timer_98
     00317D07  GBVM$script_timer_98$ca626941_da   script_timer_98
     00317D17  GBVM$script_timer_98$a61cca29_9a   script_timer_98
     00317D27  GBVM_END$script_timer_98$fc69003   script_timer_98
     00317D2A  GBVM$script_timer_98$19a80bf8_0f   script_timer_98
     00317D2A  GBVM$script_timer_98$82cd0e9d_1c   script_timer_98
     00317D3A  GBVM$script_timer_98$38b5ccc4_ba   script_timer_98
     00317D4A  GBVM$script_timer_98$cf479d43_e3   script_timer_98
     00317D5A  GBVM$script_timer_98$8ab118d1_2b   script_timer_98
     00317D6A  GBVM_END$script_timer_98$19a80bf   script_timer_98
     00317D6D  GBVM$script_timer_98$80ad502b_77   script_timer_98
     00317D6D  GBVM$script_timer_98$832fd84d_92   script_timer_98
     00317D7D  GBVM$script_timer_98$c94abe9c_40   script_timer_98
     00317D8D  GBVM$script_timer_98$c0df916b_b8   script_timer_98
     00317D9D  GBVM$script_timer_98$4b3408f1_62   script_timer_98
     00317DAD  GBVM_END$script_timer_98$80ad502   script_timer_98
     00317DB0  GBVM$script_timer_98$41885efd_5c   script_timer_98
     00317DB0  GBVM$script_timer_98$a8ccdda1_f1   script_timer_98
     00317DC0  GBVM$script_timer_98$58bd3bda_64   script_timer_98
     00317DD0  GBVM$script_timer_98$117149df_99   script_timer_98
     00317DE0  GBVM$script_timer_98$d41c738b_37   script_timer_98
     00317DF0  GBVM_END$script_timer_98$41885ef   script_timer_98
     00317DF3  GBVM$script_timer_98$5521250c_83   script_timer_98
     00317DF3  GBVM$script_timer_98$89659dcc_65   script_timer_98
     00317E03  GBVM$script_timer_98$617dc69e_54   script_timer_98
     00317E13  GBVM$script_timer_98$cb3c3949_a1   script_timer_98
     00317E23  GBVM$script_timer_98$b199b9cd_e8   script_timer_98
     00317E33  GBVM_END$script_timer_98$5521250   script_timer_98
     00317E36  GBVM_END$script_timer_98$123a833   script_timer_98
     00317E39  GBVM$script_timer_98$d2feee47_d0   script_timer_98
     00317E3E  GBVM$script_timer_98$0e856b7a_50   script_timer_98
     00317E4E  GBVM$script_timer_98$85681815_58   script_timer_98
     00317E5E  GBVM$script_timer_98$62a3944c_0b   script_timer_98
     00317E6E  GBVM$script_timer_98$3d18f9e3_eb   script_timer_98
     00317E7E  GBVM$script_timer_98$e49ea953_14   script_timer_98
     00317E8E  GBVM$script_timer_98$57713426_db   script_timer_98
     00317E9E  GBVM$script_timer_98$a4585cfd_96   script_timer_98
     00317EAE  GBVM$script_timer_98$4119ecd8_26   script_timer_98
     00317EBE  GBVM$script_timer_98$9e1b475b_df   script_timer_98
     00317ECE  GBVM$script_timer_98$1aa820f2_72   script_timer_98
     00317EDE  GBVM$script_timer_98$bb9aeda8_7b   script_timer_98
     00317EEE  GBVM$script_timer_98$5b229f10_9c   script_timer_98
     00317EFE  GBVM$script_timer_98$51e3fda4_c7   script_timer_98
     00317F0E  GBVM$script_timer_98$3657ce5e_b4   script_timer_98
     00317F1E  GBVM$script_timer_98$f753d512_4c   script_timer_98
ASxxxx Linker V03.00/V05.40 + sdld,  page 69.
Hexadecimal  [32-Bits]

Area                                    Addr        Size        Decimal Bytes (Attributes)
--------------------------------        ----        ----        ------- ----- ------------
_CODE_49                            00314000    00003FFF =       16383. bytes (REL,CON)

      Value  Global                              Global Defined In Module
      -----  --------------------------------   ------------------------
     00317F2E  GBVM$script_timer_98$40193eaf_60   script_timer_98
     00317F3E  GBVM$script_timer_98$27d271ce_71   script_timer_98
     00317F4E  GBVM$script_timer_98$9135dcde_56   script_timer_98
     00317F5E  GBVM$script_timer_98$d07ad975_26   script_timer_98
     00317F6E  GBVM$script_timer_98$f163da97_a4   script_timer_98
     00317F7E  GBVM$script_timer_98$eeca06b0_13   script_timer_98
     00317F8E  GBVM$script_timer_98$95861b50_e6   script_timer_98
     00317F9E  GBVM$script_timer_98$93313dc2_88   script_timer_98
     00317FAE  GBVM$script_timer_98$1911c9f7_65   script_timer_98
     00317FBE  GBVM$script_timer_98$419de864_01   script_timer_98
     00317FCE  GBVM$script_timer_98$993857d9_c2   script_timer_98
     00317FDE  GBVM$script_timer_98$7ce0d690_b3   script_timer_98
     00317FEE  GBVM$script_timer_98$182f1c36_77   script_timer_98
     00317FFE  GBVM_END$script_timer_98$bee16f5   script_timer_98

ASxxxx Linker V03.00/V05.40 + sdld,  page 70.
Hexadecimal  [32-Bits]

Area                                    Addr        Size        Decimal Bytes (Attributes)
--------------------------------        ----        ----        ------- ----- ------------
_CODE_27                            001B4000    00004000 =       16384. bytes (REL,CON)

      Value  Global                              Global Defined In Module
      -----  --------------------------------   ------------------------
     001B4000  _camera_init                       camera
     001B4026  ___func_bg_mercury_projectile_pl   bg_mercury_projectile_platf_
     001B4026  _bg_mercury_projectile_platf_cgb   bg_mercury_projectile_platf_
     001B4248  ___func_bg_mercury_viewing_area_   bg_mercury_viewing_area_tile
     001B4248  _bg_mercury_viewing_area_tilemap   bg_mercury_viewing_area_tile
     001B67C8  ___func_scene_8_collisions         scene_8_collisions
     001B67C8  _scene_8_collisions                scene_8_collisions

ASxxxx Linker V03.00/V05.40 + sdld,  page 71.
Hexadecimal  [32-Bits]

Area                                    Addr        Size        Decimal Bytes (Attributes)
--------------------------------        ----        ----        ------- ----- ------------
_CODE_57                            00394000    00003FFE =       16382. bytes (REL,CON)

      Value  Global                              Global Defined In Module
      -----  --------------------------------   ------------------------
     00394000  _core_reset                        core
     00394075  _process_VM                        core
     003942F3  _core_run                          core
     003943CF  _projectiles_init                  projectiles
     003943FE  _projectile_launch                 projectiles
     00394815  ___func_VM_CAMERA                  vm_camera
     00394815  _vm_camera_move_to                 vm_camera
     00394A68  _vm_camera_set_pos                 vm_camera
     00394AAF  _camera_shake_frames               vm_camera
     00394BDE  ___func_bg_blight_s_memory_p1_ti   bg_blight_s_memory_p1_tilema
     00394BDE  _bg_blight_s_memory_p1_tilemap_a   bg_blight_s_memory_p1_tilema
     00395016  ___func_bg_blight_s_memory_p1_ti   bg_blight_s_memory_p1_tilema
     00395016  _bg_blight_s_memory_p1_tilemap     bg_blight_s_memory_p1_tilema
     0039544E  ___func_bg_earth_burnclaw_forest   bg_earth_burnclaw_forest_ca_
     0039544E  _bg_earth_burnclaw_forest_ca_til   bg_earth_burnclaw_forest_ca_
     00395850  ___func_bg_earth_shuttle_bay_cgb   bg_earth_shuttle_bay_cgb_til
     00395850  _bg_earth_shuttle_bay_cgb_tilese   bg_earth_shuttle_bay_cgb_til
     00395C52  ___func_bg_earth_shuttle_bay_upp   bg_earth_shuttle_bay_upper_t
     00395C52  _bg_earth_shuttle_bay_upper_tile   bg_earth_shuttle_bay_upper_t
     003960A4  ___func_bg_level_1_cgb_tileset     bg_level_1_cgb_tileset
     003960A4  _bg_level_1_cgb_tileset            bg_level_1_cgb_tileset
     003964A6  ___func_bg_mercury_secret_area_t   bg_mercury_secret_area_tiles
     003964A6  _bg_mercury_secret_area_tileset    bg_mercury_secret_area_tiles
     00396938  ___func_bg_platformer_test01_til   bg_platformer_test01_tileset
     00396938  _bg_platformer_test01_tileset      bg_platformer_test01_tileset
     00396D9A  ___func_bg_settings_tilemap_attr   bg_settings_tilemap_attr
     00396D9A  _bg_settings_tilemap_attr          bg_settings_tilemap_attr
     00396F02  ___func_bg_venus_ac_ventilation_   bg_venus_ac_ventilation_tile
     00396F02  _bg_venus_ac_ventilation_tileset   bg_venus_ac_ventilation_tile
     003973B4  ___func_bg_venus_dropshaft_1_til   bg_venus_dropshaft_1_tileset
     003973B4  _bg_venus_dropshaft_1_tileset      bg_venus_dropshaft_1_tileset
     003977D6  _scene_31_init                     scene_31_init
     003977D9  GBVM$scene_31_init$32ef8d85_20e2   scene_31_init
     003977D9  GBVM$scene_31_init$759d2794_7f79   scene_31_init
     003977DE  GBVM$scene_31_init$c8026d34_7fc8   scene_31_init
     003977E5  GBVM$scene_31_init$autofade$f0f4   scene_31_init
     003977E5  GBVM_END$scene_31_init$32ef8d85_   scene_31_init
     003977F0  GBVM$scene_31_init$910df9aa_693b   scene_31_init
     003977F0  GBVM$scene_31_init$c59937d8_945b   scene_31_init
     003977F5  GBVM$scene_31_init$67b2631f_1e5d   scene_31_init
     003977FC  GBVM$scene_31_init$1dcd6d0f_49d2   scene_31_init
     00397800  GBVM$scene_31_init$b7e37aa1_d65b   scene_31_init
     0039780F  GBVM$scene_31_init$2cda69e5_d258   scene_31_init
     00397817  GBVM$scene_31_init$e6ec657e_3663   scene_31_init
     00397817  GBVM_END$scene_31_init$2cda69e5_   scene_31_init
     00397817  GBVM_END$scene_31_init$910df9aa_   scene_31_init
     00397829  GBVM$scene_31_init$592f26d2_948a   scene_31_init
     00397834  GBVM$scene_31_init$df0d7ee9_cabc   scene_31_init
     003978B4  GBVM$scene_31_init$0510a0f6_0148   scene_31_init
     003978BF  GBVM$scene_31_init$e824a7aa_6fd2   scene_31_init
ASxxxx Linker V03.00/V05.40 + sdld,  page 72.
Hexadecimal  [32-Bits]

Area                                    Addr        Size        Decimal Bytes (Attributes)
--------------------------------        ----        ----        ------- ----- ------------
_CODE_57                            00394000    00003FFE =       16382. bytes (REL,CON)

      Value  Global                              Global Defined In Module
      -----  --------------------------------   ------------------------
     00397A06  GBVM$scene_31_init$cd982c9c_ef65   scene_31_init
     00397A11  GBVM$scene_31_init$4c0993ee_ac8f   scene_31_init
     00397AEA  GBVM$scene_31_init$82d8863b_809a   scene_31_init
     00397AF5  GBVM$scene_31_init$601caa21_68ba   scene_31_init
     00397B8F  GBVM$scene_31_init$7cf89df5_7759   scene_31_init
     00397B9E  GBVM$scene_31_init$8765c438_55de   scene_31_init
     00397B9E  GBVM$scene_31_init$ea6b95c6_ee0a   scene_31_init
     00397B9E  GBVM_END$scene_31_init$e6ec657e_   scene_31_init
     00397BA3  GBVM$scene_31_init$a6b832ae_80de   scene_31_init
     00397BAA  GBVM$scene_31_init$54bce406_e944   scene_31_init
     00397BAE  GBVM$scene_31_init$782ac1e5_b323   scene_31_init
     00397BBD  GBVM$scene_31_init$be096309_c06e   scene_31_init
     00397BC5  GBVM_END$scene_31_init$8765c438_   scene_31_init
     00397BC5  GBVM_END$scene_31_init$be096309_   scene_31_init
     00397BC6  ___func_scene_40_collisions        scene_40_collisions
     00397BC6  _scene_40_collisions               scene_40_collisions
ASxxxx Linker V03.00/V05.40 + sdld,  page 73.
Hexadecimal  [32-Bits]

Area                                    Addr        Size        Decimal Bytes (Attributes)
--------------------------------        ----        ----        ------- ----- ------------
_CRASH_HEADER0                      00000000    00000005 =           5. bytes (ABS,CON)

      Value  Global                              Global Defined In Module
      -----  --------------------------------   ------------------------
ASxxxx Linker V03.00/V05.40 + sdld,  page 74.
Hexadecimal  [32-Bits]

Area                                    Addr        Size        Decimal Bytes (Attributes)
--------------------------------        ----        ----        ------- ----- ------------
_CRASH_HEADER1                      00000000    00000004 =           4. bytes (ABS,CON)

      Value  Global                              Global Defined In Module
      -----  --------------------------------   ------------------------
ASxxxx Linker V03.00/V05.40 + sdld,  page 75.
Hexadecimal  [32-Bits]

Area                                    Addr        Size        Decimal Bytes (Attributes)
--------------------------------        ----        ----        ------- ----- ------------
_CODE_58                            003A4000    00003FFF =       16383. bytes (REL,CON)

      Value  Global                              Global Defined In Module
      -----  --------------------------------   ------------------------
     003A4000  ___HandleCrash_banked              
     003A4368  _printer_send_receive              gbprinter
     003A439E  _printer_send_byte                 gbprinter
     003A43B1  _printer_send_command              gbprinter
     003A43D4  _printer_print_tile                gbprinter
     003A4465  _printer_wait                      gbprinter
     003A4497  _gbprinter_detect                  gbprinter
     003A44B1  _gbprinter_print_overlay           gbprinter
     003A467E  _data_init                         load_save
     003A46C9  _save_points                       load_save
     003A4729  _data_slot_address                 load_save
     003A47A1  _data_save                         load_save
     003A4862  _data_load                         load_save
     003A4976  _data_clear                        load_save
     003A49A3  _data_peek                         load_save
     003A4A44  _atan2                             math_atan2
     003A4BDD  _atan2_table                       math_atan2
     003A4D45  _trigger_reset                     trigger
     003A4D55  _trigger_interact                  trigger
     003A4D94  _trigger_activate_at               trigger
     003A4DDF  _trigger_at_intersection           trigger
     003A4F06  _trigger_activate_at_intersectio   trigger
     003A5047  _trigger_at_tile                   trigger
     003A50D8  ___func_VM_SIO                     vm_sio
     003A50D8  _vm_sio_set_mode                   vm_sio
     003A50EA  _vm_sio_exchange                   vm_sio
     003A53CC  ___func_bg_earth_distortion_moun   bg_earth_distortion_mountai_
     003A53CC  _bg_earth_distortion_mountai_cgb   bg_earth_distortion_mountai_
     003A56AE  ___func_bg_earth_shuttle_bay_sec   bg_earth_shuttle_bay_secret_
     003A56AE  _bg_earth_shuttle_bay_secret_til   bg_earth_shuttle_bay_secret_
     003A59E0  ___func_bg_luna_boss_room_tilese   bg_luna_boss_room_tileset
     003A59E0  _bg_luna_boss_room_tileset         bg_luna_boss_room_tileset
     003A5CC2  ___func_bg_luna_peryil_s_house_c   bg_luna_peryil_s_house_cgb_t
     003A5CC2  _bg_luna_peryil_s_house_cgb_tile   bg_luna_peryil_s_house_cgb_t
     003A6084  ___func_bg_luna_serenity_cave_lo   bg_luna_serenity_cave_lower_
     003A6084  _bg_luna_serenity_cave_lower_til   bg_luna_serenity_cave_lower_
     003A63B6  ___func_bg_mercury_overflow_pass   bg_mercury_overflow_passage_
     003A63B6  _bg_mercury_overflow_passage_cgb   bg_mercury_overflow_passage_
     003A6778  ___func_bg_mercury_viewing_area_   bg_mercury_viewing_area_cgb_
     003A6778  _bg_mercury_viewing_area_cgb_til   bg_mercury_viewing_area_cgb_
     003A6B3A  ___func_bg_venus_ac_ventilation2   bg_venus_ac_ventilation2_til
     003A6B3A  _bg_venus_ac_ventilation2_tilese   bg_venus_ac_ventilation2_til
     003A6E4C  ___func_bg_venus_evidence_room_t   bg_venus_evidence_room_tiles
     003A6E4C  _bg_venus_evidence_room_tileset    bg_venus_evidence_room_tiles
     003A719E  _scene_17_init                     scene_17_init
     003A71A1  GBVM$scene_17_init$70726c72_0caf   scene_17_init
     003A71A6  GBVM$scene_17_init$7506f8c7_db33   scene_17_init
     003A71AD  GBVM$scene_17_init$autofade$dcf3   scene_17_init
     003A71B8  GBVM$scene_17_init$2d840aec_ebd3   scene_17_init
     003A7221  GBVM$scene_17_init$f31ddf15_6280   scene_17_init
ASxxxx Linker V03.00/V05.40 + sdld,  page 76.
Hexadecimal  [32-Bits]

Area                                    Addr        Size        Decimal Bytes (Attributes)
--------------------------------        ----        ----        ------- ----- ------------
_CODE_58                            003A4000    00003FFF =       16383. bytes (REL,CON)

      Value  Global                              Global Defined In Module
      -----  --------------------------------   ------------------------
     003A722C  GBVM$scene_17_init$3a973687_6150   scene_17_init
     003A7415  GBVM$scene_17_init$fae18710_817d   scene_17_init
     003A7421  GBVM$scene_17_init$fd408fac_c7e8   scene_17_init
     003A742D  GBVM$scene_17_init$8554b11f_c049   scene_17_init
     003A7460  ___func_scene_18_collisions        scene_18_collisions
     003A7460  _scene_18_collisions               scene_18_collisions
     003A7730  _scene_43_init                     scene_43_init
     003A7733  GBVM$scene_43_init$bbe52c12_3d0d   scene_43_init
     003A7748  GBVM$scene_43_init$0d42461b_efe9   scene_43_init
     003A7750  GBVM$scene_43_init$0ac43e83_bdcd   scene_43_init
     003A7750  GBVM_END$scene_43_init$bbe52c12_   scene_43_init
     003A7765  GBVM$scene_43_init$cbf176e8_5886   scene_43_init
     003A776D  GBVM$scene_43_init$9a9eb443_f5f3   scene_43_init
     003A776D  GBVM_END$scene_43_init$0ac43e83_   scene_43_init
     003A7782  GBVM$scene_43_init$0dd6de36_6584   scene_43_init
     003A778A  GBVM$scene_43_init$95f9c3cb_2ac8   scene_43_init
     003A778A  GBVM_END$scene_43_init$9a9eb443_   scene_43_init
     003A779F  GBVM$scene_43_init$94984137_1844   scene_43_init
     003A77A7  GBVM$scene_43_init$f9336bc6_8014   scene_43_init
     003A77A7  GBVM_END$scene_43_init$95f9c3cb_   scene_43_init
     003A77BC  GBVM$scene_43_init$4b59c2b9_cdd6   scene_43_init
     003A77C4  GBVM$scene_43_init$a020e641_aebe   scene_43_init
     003A77C4  GBVM_END$scene_43_init$f9336bc6_   scene_43_init
     003A77D9  GBVM$scene_43_init$000747d6_3a86   scene_43_init
     003A77E1  GBVM$scene_43_init$14e63d39_8971   scene_43_init
     003A77E1  GBVM_END$scene_43_init$a020e641_   scene_43_init
     003A77F6  GBVM$scene_43_init$bf4f4661_b6cb   scene_43_init
     003A77FE  GBVM$scene_43_init$autofade$289a   scene_43_init
     003A77FE  GBVM_END$scene_43_init$14e63d39_   scene_43_init
     003A7809  GBVM$scene_43_init$504d782d_bdbb   scene_43_init
     003A781B  GBVM$scene_43_init$47171eb4_9246   scene_43_init
     003A7826  GBVM$scene_43_init$e13bb648_282e   scene_43_init
     003A7905  GBVM$scene_43_init$c22b1806_f426   scene_43_init
     003A7910  GBVM$scene_43_init$cfa373e4_4d4b   scene_43_init
     003A791F  GBVM$scene_43_init$7210d992_1ca0   scene_43_init
     003A791F  GBVM$scene_43_init$7211c378_19f5   scene_43_init
     003A791F  GBVM_END$scene_43_init$504d782d_   scene_43_init
     003A7924  GBVM$scene_43_init$ef3f75fd_26b3   scene_43_init
     003A792B  GBVM$scene_43_init$ac839592_5624   scene_43_init
     003A792F  GBVM$scene_43_init$dd3ebfb8_f240   scene_43_init
     003A793E  GBVM$scene_43_init$dc6f8276_600c   scene_43_init
     003A7946  GBVM_END$scene_43_init$7210d992_   scene_43_init
     003A7946  GBVM_END$scene_43_init$dc6f8276_   scene_43_init
     003A7947  _scene_51_init                     scene_51_init
     003A794A  GBVM$scene_51_init$autofade$8512   scene_51_init
     003A7955  GBVM$scene_51_init$3013703c_a7a6   scene_51_init
     003A795E  GBVM$scene_51_init$6ac7f884_13ac   scene_51_init
     003A7963  GBVM$scene_51_init$73523995_7df9   scene_51_init
     003A7963  GBVM$scene_51_init$ac5f440d_2e04   scene_51_init
     003A796E  GBVM$scene_51_init$055be0d3_1db1   scene_51_init
     003A7A2E  GBVM$scene_51_init$4f270d4e_683b   scene_51_init
ASxxxx Linker V03.00/V05.40 + sdld,  page 77.
Hexadecimal  [32-Bits]

Area                                    Addr        Size        Decimal Bytes (Attributes)
--------------------------------        ----        ----        ------- ----- ------------
_CODE_58                            003A4000    00003FFF =       16383. bytes (REL,CON)

      Value  Global                              Global Defined In Module
      -----  --------------------------------   ------------------------
     003A7A39  GBVM$scene_51_init$bb52b2bf_87e1   scene_51_init
     003A7A44  GBVM$scene_51_init$66694b60_5a0b   scene_51_init
     003A7A7D  GBVM$scene_51_init$bbf3f13a_a47b   scene_51_init
     003A7A88  GBVM$scene_51_init$86437ed7_0561   scene_51_init
     003A7B23  GBVM$scene_51_init$1ff32872_cdbd   scene_51_init
     003A7B2E  GBVM$scene_51_init$c71d9e5a_5a74   scene_51_init
     003A7C14  GBVM$scene_51_init$aac919d6_0a00   scene_51_init
     003A7C19  GBVM$scene_51_init$5681dc1e_925d   scene_51_init
     003A7C21  GBVM$scene_51_init$356eb959_34c2   scene_51_init
     003A7C21  GBVM_END$scene_51_init$3013703c_   scene_51_init
     003A7C29  GBVM$scene_51_init$98dbf032_4b71   scene_51_init
     003A7C29  GBVM$scene_51_init$9eacd90c_ca6f   scene_51_init
     003A7C29  GBVM_END$scene_51_init$356eb959_   scene_51_init
     003A7C2E  GBVM$scene_51_init$00ae2f15_4160   scene_51_init
     003A7C35  GBVM$scene_51_init$a10dba8d_7984   scene_51_init
     003A7C39  GBVM$scene_51_init$6e2a32b3_83cc   scene_51_init
     003A7C48  GBVM$scene_51_init$e09c50a6_aa8c   scene_51_init
     003A7C57  GBVM$scene_51_init$494589ee_9233   scene_51_init
     003A7C5F  GBVM_END$scene_51_init$494589ee_   scene_51_init
     003A7C5F  GBVM_END$scene_51_init$98dbf032_   scene_51_init
     003A7C60  ___func_sprite_transparent         sprite_transparent
     003A7C60  _sprite_transparent_metasprite_0   sprite_transparent
     003A7C64  _sprite_transparent_metasprites    sprite_transparent
     003A7C66  _sprite_transparent_animations     sprite_transparent
     003A7C76  _sprite_transparent_animations_l   sprite_transparent
     003A7C78  _sprite_transparent                sprite_transparent
     003A7C8B  _pointnclick_init                  pointnclick
     003A7CC4  _pointnclick_update                pointnclick
ASxxxx Linker V03.00/V05.40 + sdld,  page 78.
Hexadecimal  [32-Bits]

Area                                    Addr        Size        Decimal Bytes (Attributes)
--------------------------------        ----        ----        ------- ----- ------------
_CRASH_SCRATCH2                     00000000    000001CB =         459. bytes (ABS,CON)

      Value  Global                              Global Defined In Module
      -----  --------------------------------   ------------------------
ASxxxx Linker V03.00/V05.40 + sdld,  page 79.
Hexadecimal  [32-Bits]

Area                                    Addr        Size        Decimal Bytes (Attributes)
--------------------------------        ----        ----        ------- ----- ------------
_CODE_1                             00014000    00003FFF =       16383. bytes (REL,CON)

      Value  Global                              Global Defined In Module
      -----  --------------------------------   ------------------------
     00014000  _load_init                         data_manager
     00014013  _spritesheet_none_far              data_manager
     00014016  _load_bkg_tileset                  data_manager
     000140F3  _load_background                   data_manager
     000141B9  _load_sprite                       data_manager
     0001428F  _load_bounds                       data_manager
     000142AC  _do_load_palette                   data_manager
     00014331  _load_scene                        data_manager
     00014997  _load_player                       data_manager
     000149E0  _load_emote                        data_manager
     000149F9  _ui_swap_tiles                     
     00014A43  _ui_print_make_mask_lr             
     00014A5F  _ui_print_make_mask_rl             
     00014A7B  _ui_init                           ui
     00014B4C  _ui_load_tiles                     ui
     00014BA3  _ui_draw_frame                     ui
     00014C3D  _ui_print_reset                    ui
     00014C8E  _ui_set_start_tile                 ui
     00014CBA  _ui_print_render                   ui
     00014F50  _ui_draw_text_buffer_char          ui
     00015434  _ui_run_menu                       ui
     0001560B  _ui_run_modal                      ui
     000156C5  ___func_VM_SGB                     vm_sgb
     000156C5  ___func_bg_earth_distortion_moun   bg_earth_distortion_mountai_
     000156C5  _bg_earth_distortion_mountai_til   bg_earth_distortion_mountai_
     00017F65  _script_input_28                   script_input_28
     00017F66  ___func_sprite_cedric              sprite_cedric
     00017F66  _sprite_cedric_metasprite_0        sprite_cedric
     00017F8E  _sprite_cedric_metasprite_1        sprite_cedric
     00017FAE  _sprite_cedric_metasprite_2        sprite_cedric
     00017FB2  _sprite_cedric_metasprite_3        sprite_cedric
     00017FD2  _sprite_cedric_metasprites         sprite_cedric
     00017FDA  _sprite_cedric_animations          sprite_cedric
     00017FEA  _sprite_cedric_animations_lookup   sprite_cedric
     00017FEC  _sprite_cedric                     sprite_cedric

ASxxxx Linker V03.00/V05.40 + sdld,  page 80.
Hexadecimal  [32-Bits]

Area                                    Addr        Size        Decimal Bytes (Attributes)
--------------------------------        ----        ----        ------- ----- ------------
_CODE_61                            003D4000    00004000 =       16384. bytes (REL,CON)

      Value  Global                              Global Defined In Module
      -----  --------------------------------   ------------------------
     003D4000  _events_init                       events
     003D4040  _timers_init                       events
     003D4080  _restore_sram_bank                 flasher
     003D40B6  _restore_sram                      flasher
     003D40CC  _save_sram                         flasher
     003D40F8  ___func_VM_GBPRINTER               vm_gbprinter
     003D40F8  _vm_print_detect                   vm_gbprinter
     003D4147  _vm_print_overlay                  vm_gbprinter
     003D419C  ___func_VM_LOAD_SAVE               vm_load_save
     003D419C  _vm_save_clear                     vm_load_save
     003D41AB  _vm_save_peek                      vm_load_save
     003D422D  ___func_VM_SCENE                   vm_scene
     003D422D  _vm_scene_push                     vm_scene
     003D42A3  _vm_scene_pop                      vm_scene
     003D42B1  _vm_scene_pop_all                  vm_scene
     003D42BC  _vm_scene_stack_reset              vm_scene
     003D42C5  _actor_24_interact                 actor_24_interact
     003D42D8  GBVM$actor_24_interact$de5c9adb_   actor_24_interact
     003D42EF  GBVM$actor_24_interact$520e1153_   actor_24_interact
     003D430C  GBVM$actor_24_interact$d3e1a0e0_   actor_24_interact
     003D4329  GBVM$actor_24_interact$c9449c77_   actor_24_interact
     003D4336  _actor_44_update                   actor_44_update
     003D4338  GBVM$actor_44_update$3e9ae566_e7   actor_44_update
     003D4344  GBVM$actor_44_update$e4368cd8_93   actor_44_update
     003D4362  GBVM$actor_44_update$6d5b2798_2e   actor_44_update
     003D43A1  GBVM_END$actor_44_update$3e9ae56   actor_44_update
     003D43A6  _actor_45_update                   actor_45_update
     003D43A8  GBVM$actor_45_update$ecd8ea17_9d   actor_45_update
     003D43B4  GBVM$actor_45_update$26d9b387_39   actor_45_update
     003D43D2  GBVM$actor_45_update$fc62f710_e7   actor_45_update
     003D4411  GBVM_END$actor_45_update$ecd8ea1   actor_45_update
     003D4416  _actor_46_interact                 actor_46_interact
     003D4429  GBVM$actor_46_interact$1ee2ee3f_   actor_46_interact
     003D4434  GBVM$actor_46_interact$09551cfa_   actor_46_interact
     003D443F  GBVM$actor_46_interact$4edeb108_   actor_46_interact
     003D445C  GBVM$actor_46_interact$02d3a06a_   actor_46_interact
     003D4479  GBVM$actor_46_interact$6df4548a_   actor_46_interact
     003D4496  GBVM$actor_46_interact$485e63b2_   actor_46_interact
     003D44A3  _actor_62_interact                 actor_62_interact
     003D44A4  GBVM$actor_62_interact$abe69e5c_   actor_62_interact
     003D44A9  GBVM$actor_62_interact$8117756a_   actor_62_interact
     003D450E  GBVM$actor_62_interact$2a349e92_   actor_62_interact
     003D4514  ___func_bg_earth_level_1_intro_c   bg_earth_level_1_intro_cgb_t
     003D4514  _bg_earth_level_1_intro_cgb_tile   bg_earth_level_1_intro_cgb_t
     003D45D6  ___func_bg_mercury_poison_proces   bg_mercury_poison_processin_
     003D45D6  _bg_mercury_poison_processin_cgb   bg_mercury_poison_processin_
     003D4658  ___func_frame_image                frame_image
     003D4658  _frame_image                       frame_image
     003D46E8  ___func_scene_11_actors            scene_11_actors
     003D46E8  _scene_11_actors                   scene_11_actors
ASxxxx Linker V03.00/V05.40 + sdld,  page 81.
Hexadecimal  [32-Bits]

Area                                    Addr        Size        Decimal Bytes (Attributes)
--------------------------------        ----        ----        ------- ----- ------------
_CODE_61                            003D4000    00004000 =       16384. bytes (REL,CON)

      Value  Global                              Global Defined In Module
      -----  --------------------------------   ------------------------
     003D4750  _scene_11_init                     scene_11_init
     003D4753  GBVM$scene_11_init$2dc1391b_93bf   scene_11_init
     003D4768  GBVM$scene_11_init$163d20f5_ed9b   scene_11_init
     003D4770  GBVM$scene_11_init$75c89a59_e5e7   scene_11_init
     003D4770  GBVM_END$scene_11_init$2dc1391b_   scene_11_init
     003D4785  GBVM$scene_11_init$3bbc5cb6_50af   scene_11_init
     003D478D  GBVM$scene_11_init$5a85dfc4_6fcb   scene_11_init
     003D478D  GBVM_END$scene_11_init$75c89a59_   scene_11_init
     003D4791  GBVM$scene_11_init$autofade$0946   scene_11_init
     003D479C  GBVM$scene_11_init$575a01a7_7e58   scene_11_init
     003D479C  GBVM$scene_11_init$70f3b299_35c8   scene_11_init
     003D47A1  GBVM$scene_11_init$a984d41e_f6e5   scene_11_init
     003D47A8  GBVM$scene_11_init$0768d8cc_a542   scene_11_init
     003D47AC  GBVM$scene_11_init$da787efb_4f1f   scene_11_init
     003D47BB  GBVM$scene_11_init$4314138f_5b31   scene_11_init
     003D47C3  GBVM_END$scene_11_init$4314138f_   scene_11_init
     003D47C3  GBVM_END$scene_11_init$70f3b299_   scene_11_init
     003D47C4  _scene_13_init                     scene_13_init
     003D47C7  GBVM$scene_13_init$868d45df_5085   scene_13_init
     003D47DC  GBVM$scene_13_init$1df3475d_05f4   scene_13_init
     003D47E4  GBVM$scene_13_init$638d6d0e_d3f3   scene_13_init
     003D47E4  GBVM_END$scene_13_init$868d45df_   scene_13_init
     003D47E9  GBVM$scene_13_init$8708f9f6_b005   scene_13_init
     003D47F0  GBVM$scene_13_init$autofade$dd54   scene_13_init
     003D47FB  GBVM$scene_13_init$aeb86c68_9038   scene_13_init
     003D47FB  GBVM$scene_13_init$c3d09572_9d75   scene_13_init
     003D4800  GBVM$scene_13_init$3ebd8222_4adf   scene_13_init
     003D4807  GBVM$scene_13_init$32d6493f_5f50   scene_13_init
     003D480B  GBVM$scene_13_init$0696ca22_4f71   scene_13_init
     003D481A  GBVM$scene_13_init$48539132_4dad   scene_13_init
     003D4822  GBVM_END$scene_13_init$48539132_   scene_13_init
     003D4822  GBVM_END$scene_13_init$aeb86c68_   scene_13_init
     003D4823  ___func_scene_16_triggers          scene_16_triggers
     003D4823  _scene_16_triggers                 scene_16_triggers
     003D489B  ___func_scene_19_actors            scene_19_actors
     003D489B  _scene_19_actors                   scene_19_actors
     003D496B  ___func_scene_22_triggers          scene_22_triggers
     003D496B  _scene_22_triggers                 scene_22_triggers
     003D49EB  ___func_scene_26_triggers          scene_26_triggers
     003D49EB  _scene_26_triggers                 scene_26_triggers
     003D4A6B  ___func_scene_29_actors            scene_29_actors
     003D4A6B  _scene_29_actors                   scene_29_actors
     003D4AD3  ___func_scene_33_actors            scene_33_actors
     003D4AD3  _scene_33_actors                   scene_33_actors
     003D4B3B  _scene_33_init                     scene_33_init
     003D4B3E  GBVM$scene_33_init$df8b072a_5834   scene_33_init
     003D4B53  GBVM$scene_33_init$bb8df00a_8ffa   scene_33_init
     003D4B5B  GBVM$scene_33_init$6cafad68_f476   scene_33_init
     003D4B5B  GBVM_END$scene_33_init$df8b072a_   scene_33_init
     003D4B70  GBVM$scene_33_init$704444de_9707   scene_33_init
     003D4B78  GBVM$scene_33_init$autofade$0b0c   scene_33_init
ASxxxx Linker V03.00/V05.40 + sdld,  page 82.
Hexadecimal  [32-Bits]

Area                                    Addr        Size        Decimal Bytes (Attributes)
--------------------------------        ----        ----        ------- ----- ------------
_CODE_61                            003D4000    00004000 =       16384. bytes (REL,CON)

      Value  Global                              Global Defined In Module
      -----  --------------------------------   ------------------------
     003D4B78  GBVM_END$scene_33_init$6cafad68_   scene_33_init
     003D4B83  GBVM$scene_33_init$064326a5_c527   scene_33_init
     003D4B83  GBVM$scene_33_init$e77a1fef_5ad1   scene_33_init
     003D4B88  GBVM$scene_33_init$71874c79_2fe1   scene_33_init
     003D4B8F  GBVM$scene_33_init$706528bb_e1c5   scene_33_init
     003D4B93  GBVM$scene_33_init$d56e5591_5c87   scene_33_init
     003D4BA2  GBVM$scene_33_init$6d766f3f_ddd4   scene_33_init
     003D4BAA  GBVM_END$scene_33_init$064326a5_   scene_33_init
     003D4BAA  GBVM_END$scene_33_init$6d766f3f_   scene_33_init
     003D4BAB  ___func_scene_34_triggers          scene_34_triggers
     003D4BAB  _scene_34_triggers                 scene_34_triggers
     003D4C53  ___func_scene_35_actors            scene_35_actors
     003D4C53  _scene_35_actors                   scene_35_actors
     003D4CBB  ___func_scene_39_actors            scene_39_actors
     003D4CBB  _scene_39_actors                   scene_39_actors
     003D4D23  _scene_42_init                     scene_42_init
     003D4D26  GBVM$scene_42_init$13e374e0_5f48   scene_42_init
     003D4D3B  GBVM$scene_42_init$566f5ce1_ff0b   scene_42_init
     003D4D43  GBVM$scene_42_init$b5b64c9f_15b7   scene_42_init
     003D4D43  GBVM$scene_42_init$ef2029ef_fb39   scene_42_init
     003D4D43  GBVM_END$scene_42_init$13e374e0_   scene_42_init
     003D4D48  GBVM$scene_42_init$ad092225_1ad9   scene_42_init
     003D4D4F  GBVM$scene_42_init$autofade$046e   scene_42_init
     003D4D4F  GBVM_END$scene_42_init$ef2029ef_   scene_42_init
     003D4D5A  GBVM$scene_42_init$aaef6e41_ee39   scene_42_init
     003D4D6C  GBVM$scene_42_init$4adcb0bc_0533   scene_42_init
     003D4D77  GBVM$scene_42_init$393cdbe6_082a   scene_42_init
     003D4DCD  GBVM$scene_42_init$93d252a5_c337   scene_42_init
     003D4DCD  GBVM$scene_42_init$b12ac9e0_3412   scene_42_init
     003D4DCD  GBVM_END$scene_42_init$aaef6e41_   scene_42_init
     003D4DD2  GBVM$scene_42_init$74085ffa_ee99   scene_42_init
     003D4DD9  GBVM$scene_42_init$05f65367_1b42   scene_42_init
     003D4DDD  GBVM$scene_42_init$ff7bda50_7b34   scene_42_init
     003D4DEC  GBVM$scene_42_init$f4104cc1_b5d4   scene_42_init
     003D4DF4  GBVM_END$scene_42_init$93d252a5_   scene_42_init
     003D4DF4  GBVM_END$scene_42_init$f4104cc1_   scene_42_init
     003D4DF5  ___func_scene_45_actors            scene_45_actors
     003D4DF5  _scene_45_actors                   scene_45_actors
     003D4E5D  ___func_scene_47_actors            scene_47_actors
     003D4E5D  _scene_47_actors                   scene_47_actors
     003D4EC5  ___func_scene_59_actors            scene_59_actors
     003D4EC5  _scene_59_actors                   scene_59_actors
     003D4F95  _scene_6_init                      scene_6_init
     003D4F98  GBVM$scene_6_init$2de5795b_c2a0_   scene_6_init
     003D4FAA  GBVM$scene_6_init$739fcb0c_6fb6_   scene_6_init
     003D4FB5  GBVM$scene_6_init$2e91d5fb_8cee_   scene_6_init
     003D4FB5  GBVM_END$scene_6_init$2de5795b_c   scene_6_init
     003D4FC7  GBVM$scene_6_init$3755a8e2_4e17_   scene_6_init
     003D4FD2  GBVM$scene_6_init$1b4e5cd8_f7cd_   scene_6_init
     003D4FD2  GBVM_END$scene_6_init$2e91d5fb_8   scene_6_init
     003D4FE4  GBVM$scene_6_init$ef3f3342_82f6_   scene_6_init
ASxxxx Linker V03.00/V05.40 + sdld,  page 83.
Hexadecimal  [32-Bits]

Area                                    Addr        Size        Decimal Bytes (Attributes)
--------------------------------        ----        ----        ------- ----- ------------
_CODE_61                            003D4000    00004000 =       16384. bytes (REL,CON)

      Value  Global                              Global Defined In Module
      -----  --------------------------------   ------------------------
     003D4FEF  GBVM$scene_6_init$245a1f0c_7699_   scene_6_init
     003D4FEF  GBVM_END$scene_6_init$1b4e5cd8_f   scene_6_init
     003D4FF9  GBVM$scene_6_init$9b7831c4_15fa_   scene_6_init
     003D5001  GBVM$scene_6_init$autofade$ba1f9   scene_6_init
     003D5001  GBVM_END$scene_6_init$9b7831c4_1   scene_6_init
     003D500D  _script_1                          script_1
     003D500F  GBVM$script_1$d0d3bdd0_87d5_4448   script_1
     003D5020  GBVM$script_1$48779fb8_384c_494b   script_1
     003D502E  GBVM$script_1$c6aea531_fba2_42ef   script_1
     003D5039  GBVM$script_1$1f58a9c4_b30d_431f   script_1
     003D5047  GBVM$script_1$81c9e7ed_c245_424b   script_1
     003D5052  GBVM$script_1$17d3696e_497a_4a6d   script_1
     003D5060  GBVM$script_1$fb873cec_be90_49e5   script_1
     003D506B  GBVM$script_1$3f1de9a6_7f3a_4712   script_1
     003D5079  GBVM$script_1$08854bbc_bcc1_4153   script_1
     003D5079  GBVM_END$script_1$d0d3bdd0_87d5_   script_1
     003D5081  GBVM$script_1$d0658877_ee4a_45b1   script_1
     003D5081  GBVM_END$script_1$08854bbc_bcc1_   script_1
     003D5089  GBVM$script_1$5dfed471_5ee8_404f   script_1
     003D5089  GBVM_END$script_1$d0658877_ee4a_   script_1
     003D5091  GBVM$script_1$2fb1f720_79cc_4358   script_1
     003D5091  GBVM_END$script_1$5dfed471_5ee8_   script_1
     003D5099  GBVM$script_1$89cd67da_1896_4c36   script_1
     003D5099  GBVM_END$script_1$2fb1f720_79cc_   script_1
     003D50A1  GBVM_END$script_1$89cd67da_1896_   script_1
     003D50A5  _script_engine_init                
     003D5125  _script_input_13                   script_input_13
     003D5127  GBVM$script_input_13$c1fa8e33_24   script_input_13
     003D5132  GBVM$script_input_13$88243f30_e1   script_input_13
     003D51B0  GBVM$script_input_13$6be47345_be   script_input_13
     003D51B0  GBVM$script_input_13$dc36b6c5_1e   script_input_13
     003D51B5  GBVM$script_input_13$3a4dd2b9_d8   script_input_13
     003D51BC  GBVM$script_input_13$3e804bd1_1a   script_input_13
     003D51C0  GBVM$script_input_13$ee9886f5_5f   script_input_13
     003D51CF  GBVM$script_input_13$63fc35e3_fc   script_input_13
     003D51D7  GBVM_END$script_input_13$63fc35e   script_input_13
     003D51D7  GBVM_END$script_input_13$6be4734   script_input_13
     003D51D8  _script_input_14                   script_input_14
     003D51DA  GBVM$script_input_14$31472a3d_d8   script_input_14
     003D51E5  GBVM$script_input_14$12e0b279_4d   script_input_14
     003D5263  GBVM$script_input_14$a05f4b07_f1   script_input_14
     003D5263  GBVM$script_input_14$a627d7a6_a8   script_input_14
     003D5268  GBVM$script_input_14$879d1d47_15   script_input_14
     003D526F  GBVM$script_input_14$22c83ecb_dd   script_input_14
     003D5273  GBVM$script_input_14$8b0bcdfc_d6   script_input_14
     003D5282  GBVM$script_input_14$824572d5_a3   script_input_14
     003D528A  GBVM_END$script_input_14$824572d   script_input_14
     003D528A  GBVM_END$script_input_14$a05f4b0   script_input_14
     003D528B  _script_input_15                   script_input_15
     003D528D  GBVM$script_input_15$c35390db_6a   script_input_15
     003D5298  GBVM$script_input_15$10330a02_7a   script_input_15
ASxxxx Linker V03.00/V05.40 + sdld,  page 84.
Hexadecimal  [32-Bits]

Area                                    Addr        Size        Decimal Bytes (Attributes)
--------------------------------        ----        ----        ------- ----- ------------
_CODE_61                            003D4000    00004000 =       16384. bytes (REL,CON)

      Value  Global                              Global Defined In Module
      -----  --------------------------------   ------------------------
     003D5316  GBVM$script_input_15$3c24e3b0_58   script_input_15
     003D5316  GBVM$script_input_15$46d7c415_13   script_input_15
     003D531B  GBVM$script_input_15$376633a1_14   script_input_15
     003D5322  GBVM$script_input_15$021a33e9_50   script_input_15
     003D5326  GBVM$script_input_15$065f3cbb_f5   script_input_15
     003D5335  GBVM$script_input_15$822a4bd9_df   script_input_15
     003D533D  GBVM_END$script_input_15$46d7c41   script_input_15
     003D533D  GBVM_END$script_input_15$822a4bd   script_input_15
     003D533E  _script_input_16                   script_input_16
     003D5340  GBVM$script_input_16$96d8ec73_e4   script_input_16
     003D534B  GBVM$script_input_16$6f5ce252_79   script_input_16
     003D53C9  GBVM$script_input_16$5c562837_49   script_input_16
     003D53C9  GBVM$script_input_16$a60dd691_38   script_input_16
     003D53CE  GBVM$script_input_16$79cb8daa_0c   script_input_16
     003D53D5  GBVM$script_input_16$2d1e742d_a4   script_input_16
     003D53D9  GBVM$script_input_16$1877c94f_0d   script_input_16
     003D53E8  GBVM$script_input_16$ea89434b_66   script_input_16
     003D53F0  GBVM_END$script_input_16$5c56283   script_input_16
     003D53F0  GBVM_END$script_input_16$ea89434   script_input_16
     003D53F1  _script_input_17                   script_input_17
     003D53F3  GBVM$script_input_17$64c5f384_43   script_input_17
     003D53FE  GBVM$script_input_17$745cff0a_62   script_input_17
     003D547C  GBVM$script_input_17$69ee3c6a_02   script_input_17
     003D547C  GBVM$script_input_17$8964a492_40   script_input_17
     003D5481  GBVM$script_input_17$a5abbed3_7d   script_input_17
     003D5488  GBVM$script_input_17$72910fd9_4b   script_input_17
     003D548C  GBVM$script_input_17$8d095f9c_a4   script_input_17
     003D549B  GBVM$script_input_17$e19d3a89_b2   script_input_17
     003D54A3  GBVM_END$script_input_17$69ee3c6   script_input_17
     003D54A3  GBVM_END$script_input_17$e19d3a8   script_input_17
     003D54A4  _script_input_18                   script_input_18
     003D54A6  GBVM$script_input_18$37d090e4_c6   script_input_18
     003D54B1  GBVM$script_input_18$9575490d_80   script_input_18
     003D552F  GBVM$script_input_18$4d5a07bb_95   script_input_18
     003D552F  GBVM$script_input_18$ae14e476_aa   script_input_18
     003D5534  GBVM$script_input_18$23670021_76   script_input_18
     003D553B  GBVM$script_input_18$7011360e_b9   script_input_18
     003D553F  GBVM$script_input_18$72ab0cc9_1d   script_input_18
     003D554E  GBVM$script_input_18$e91f8071_57   script_input_18
     003D5556  GBVM_END$script_input_18$4d5a07b   script_input_18
     003D5556  GBVM_END$script_input_18$e91f807   script_input_18
     003D5557  GBVM$script_input_19$f95f7c44_e5   script_input_19
     003D5557  _script_input_19                   script_input_19
     003D55D6  _script_input_20                   script_input_20
     003D55D8  GBVM$script_input_20$a08f99d5_72   script_input_20
     003D55E3  GBVM$script_input_20$02946056_5f   script_input_20
     003D5661  GBVM$script_input_20$90eb4ecc_07   script_input_20
     003D5661  GBVM$script_input_20$b1d45cfa_8f   script_input_20
     003D5666  GBVM$script_input_20$839e37c7_b2   script_input_20
     003D566D  GBVM$script_input_20$aa624fbd_da   script_input_20
     003D5671  GBVM$script_input_20$618c7f81_8a   script_input_20
ASxxxx Linker V03.00/V05.40 + sdld,  page 85.
Hexadecimal  [32-Bits]

Area                                    Addr        Size        Decimal Bytes (Attributes)
--------------------------------        ----        ----        ------- ----- ------------
_CODE_61                            003D4000    00004000 =       16384. bytes (REL,CON)

      Value  Global                              Global Defined In Module
      -----  --------------------------------   ------------------------
     003D5680  GBVM$script_input_20$12e90847_2f   script_input_20
     003D5688  GBVM_END$script_input_20$12e9084   script_input_20
     003D5688  GBVM_END$script_input_20$90eb4ec   script_input_20
     003D5689  _script_input_21                   script_input_21
     003D568B  GBVM$script_input_21$19d24105_cd   script_input_21
     003D5696  GBVM$script_input_21$d285d36d_cb   script_input_21
     003D5714  GBVM$script_input_21$708d3368_d1   script_input_21
     003D5714  GBVM$script_input_21$e84e1a9e_63   script_input_21
     003D5719  GBVM$script_input_21$53de1de3_ab   script_input_21
     003D5720  GBVM$script_input_21$af9229bf_d1   script_input_21
     003D5724  GBVM$script_input_21$ce61a8ff_d6   script_input_21
     003D5733  GBVM$script_input_21$77c6210b_6b   script_input_21
     003D573B  GBVM_END$script_input_21$708d336   script_input_21
     003D573B  GBVM_END$script_input_21$77c6210   script_input_21
     003D573C  _script_input_24                   script_input_24
     003D573E  GBVM$script_input_24$3c7733da_16   script_input_24
     003D5749  GBVM$script_input_24$a6d08e1b_c2   script_input_24
     003D57D2  GBVM$script_input_24$5839e93b_5f   script_input_24
     003D57D2  GBVM$script_input_24$cf074494_0f   script_input_24
     003D57D7  GBVM$script_input_24$cbeccf68_84   script_input_24
     003D57DE  GBVM$script_input_24$04ac6b49_7a   script_input_24
     003D57E2  GBVM$script_input_24$92a02cf8_93   script_input_24
     003D57F1  GBVM$script_input_24$19c9ece7_8b   script_input_24
     003D57F9  GBVM_END$script_input_24$19c9ece   script_input_24
     003D57F9  GBVM_END$script_input_24$5839e93   script_input_24
     003D57FA  _script_input_27                   script_input_27
     003D57FC  GBVM$script_input_27$8b85d055_90   script_input_27
     003D5807  GBVM$script_input_27$0b763009_6d   script_input_27
     003D5885  GBVM$script_input_27$16fc3d28_f3   script_input_27
     003D5885  GBVM$script_input_27$da84e9ee_2b   script_input_27
     003D588A  GBVM$script_input_27$05c73b7c_ff   script_input_27
     003D5891  GBVM$script_input_27$867dc6dd_b0   script_input_27
     003D5895  GBVM$script_input_27$2af3bbfa_05   script_input_27
     003D58A4  GBVM$script_input_27$6de44ea3_05   script_input_27
     003D58AC  GBVM_END$script_input_27$16fc3d2   script_input_27
     003D58AC  GBVM_END$script_input_27$6de44ea   script_input_27
     003D58AD  _script_input_29                   script_input_29
     003D58AF  GBVM$script_input_29$957a4721_fd   script_input_29
     003D58C1  GBVM$script_input_29$9a4ea7c4_41   script_input_29
     003D58F6  GBVM$script_input_29$43347fe6_4b   script_input_29
     003D5908  GBVM$script_input_29$3e16a6bc_3d   script_input_29
     003D593D  GBVM$script_input_29$3fdbf4b0_fe   script_input_29
     003D596F  GBVM_END$script_input_29$43347fe   script_input_29
     003D596F  GBVM_END$script_input_29$957a472   script_input_29
     003D5970  GBVM$script_input_31$d36d33f4_34   script_input_31
     003D5970  _script_input_31                   script_input_31
     003D597C  GBVM$script_input_31$d2ecda81_dd   script_input_31
     003D5987  GBVM$script_input_31$9a2a9c27_25   script_input_31
     003D5A2A  _script_input_9                    script_input_9
     003D5A2C  GBVM$script_input_9$4bab89c4_046   script_input_9
     003D5AD3  GBVM$script_input_9$03500be9_bb8   script_input_9
ASxxxx Linker V03.00/V05.40 + sdld,  page 86.
Hexadecimal  [32-Bits]

Area                                    Addr        Size        Decimal Bytes (Attributes)
--------------------------------        ----        ----        ------- ----- ------------
_CODE_61                            003D4000    00004000 =       16384. bytes (REL,CON)

      Value  Global                              Global Defined In Module
      -----  --------------------------------   ------------------------
     003D5AD3  GBVM$script_input_9$af9ec0a2_c3b   script_input_9
     003D5AD8  GBVM$script_input_9$989e873c_c96   script_input_9
     003D5ADF  GBVM$script_input_9$bab64835_aac   script_input_9
     003D5AE3  GBVM$script_input_9$315daf21_5d6   script_input_9
     003D5AF2  GBVM$script_input_9$daff0b8e_e9f   script_input_9
     003D5AFA  GBVM_END$script_input_9$af9ec0a2   script_input_9
     003D5AFA  GBVM_END$script_input_9$daff0b8e   script_input_9
     003D5AFB  ___func_sprite_actor_animated_ba   sprite_actor_animated_bank2_
     003D5AFB  _sprite_actor_animated_bank2_til   sprite_actor_animated_bank2_
     003D5B9D  ___func_sprite_actor_animated_ti   sprite_actor_animated_tilese
     003D5B9D  _sprite_actor_animated_tileset     sprite_actor_animated_tilese
     003D5C3F  ___func_sprite_actor_animated      sprite_actor_animated
     003D5C3F  _sprite_actor_animated_metasprit   sprite_actor_animated
     003D5C4B  _sprite_actor_animated_metasprit   sprite_actor_animated
     003D5C57  _sprite_actor_animated_metasprit   sprite_actor_animated
     003D5C63  _sprite_actor_animated_metasprit   sprite_actor_animated
     003D5C6F  _sprite_actor_animated_metasprit   sprite_actor_animated
     003D5C7B  _sprite_actor_animated_metasprit   sprite_actor_animated
     003D5C87  _sprite_actor_animated_metasprit   sprite_actor_animated
     003D5C93  _sprite_actor_animated_metasprit   sprite_actor_animated
     003D5C9F  _sprite_actor_animated_metasprit   sprite_actor_animated
     003D5CB7  _sprite_actor_animated_animation   sprite_actor_animated
     003D5CC7  _sprite_actor_animated_animation   sprite_actor_animated
     003D5CC9  _sprite_actor_animated             sprite_actor_animated
     003D5CDC  ___func_sprite_bullet_bank2_tile   sprite_bullet_bank2_tileset
     003D5CDC  _sprite_bullet_bank2_tileset       sprite_bullet_bank2_tileset
     003D5D3E  ___func_sprite_bullet_tileset      sprite_bullet_tileset
     003D5D3E  _sprite_bullet_tileset             sprite_bullet_tileset
     003D5DA0  ___func_sprite_cedric_bank2_tile   sprite_cedric_bank2_tileset
     003D5DA0  _sprite_cedric_bank2_tileset       sprite_cedric_bank2_tileset
     003D5E42  ___func_sprite_cedric_copy_bank2   sprite_cedric_copy_bank2_til
     003D5E42  _sprite_cedric_copy_bank2_tilese   sprite_cedric_copy_bank2_til
     003D5EA4  ___func_sprite_cedric_copy_tiles   sprite_cedric_copy_tileset
     003D5EA4  _sprite_cedric_copy_tileset        sprite_cedric_copy_tileset
     003D5F26  ___func_sprite_cedric_tileset      sprite_cedric_tileset
     003D5F26  _sprite_cedric_tileset             sprite_cedric_tileset
     003D5FE8  ___func_sprite_ember_dragon_copy   sprite_ember_dragon_copy_ban
     003D5FE8  _sprite_ember_dragon_copy_bank2_   sprite_ember_dragon_copy_ban
     003D608A  ___func_sprite_ember_dragon_copy   sprite_ember_dragon_copy_til
     003D608A  _sprite_ember_dragon_copy_tilese   sprite_ember_dragon_copy_til
     003D614C  ___func_sprite_ember_foxphoenix_   sprite_ember_foxphoenix_bank
     003D614C  _sprite_ember_foxphoenix_bank2_t   sprite_ember_foxphoenix_bank
     003D61EE  ___func_sprite_ember_foxphoenix_   sprite_ember_foxphoenix_tile
     003D61EE  _sprite_ember_foxphoenix_tileset   sprite_ember_foxphoenix_tile
     003D6290  ___func_sprite_ember_phoenix_cop   sprite_ember_phoenix_copy_ba
     003D6290  _sprite_ember_phoenix_copy_bank2   sprite_ember_phoenix_copy_ba
     003D6352  ___func_sprite_ember_phoenix_top   sprite_ember_phoenix_topdow_
     003D6352  _sprite_ember_phoenix_topdow_ban   sprite_ember_phoenix_topdow_
     003D63F4  ___func_sprite_ember_phoenix_top   sprite_ember_phoenix_topdow_
     003D63F4  _sprite_ember_phoenix_topdow_til   sprite_ember_phoenix_topdow_
     003D64B6  ___func_sprite_ember_stationary_   sprite_ember_stationary_bank
ASxxxx Linker V03.00/V05.40 + sdld,  page 87.
Hexadecimal  [32-Bits]

Area                                    Addr        Size        Decimal Bytes (Attributes)
--------------------------------        ----        ----        ------- ----- ------------
_CODE_61                            003D4000    00004000 =       16384. bytes (REL,CON)

      Value  Global                              Global Defined In Module
      -----  --------------------------------   ------------------------
     003D64B6  _sprite_ember_stationary_bank2_t   sprite_ember_stationary_bank
     003D6578  ___func_sprite_ember_stationary_   sprite_ember_stationary_tile
     003D6578  _sprite_ember_stationary_tileset   sprite_ember_stationary_tile
     003D663A  ___func_sprite_flame_whip_tilese   sprite_flame_whip_tileset
     003D663A  _sprite_flame_whip_tileset         sprite_flame_whip_tileset
     003D667C  ___func_sprite_flare_static_bank   sprite_flare_static_bank2_ti
     003D667C  _sprite_flare_static_bank2_tiles   sprite_flare_static_bank2_ti
     003D673E  ___func_sprite_jem_animated_0_ti   sprite_jem_animated_0_tilese
     003D673E  _sprite_jem_animated_0_tileset     sprite_jem_animated_0_tilese
     003D67A0  ___func_sprite_jem_animated_bank   sprite_jem_animated_bank2_ti
     003D67A0  _sprite_jem_animated_bank2_tiles   sprite_jem_animated_bank2_ti
     003D6842  ___func_sprite_jem_animated_tile   sprite_jem_animated_tileset
     003D6842  _sprite_jem_animated_tileset       sprite_jem_animated_tileset
     003D6904  ___func_sprite_light_animated_co   sprite_light_animated_copy_b
     003D6904  _sprite_light_animated_copy_bank   sprite_light_animated_copy_b
     003D69C6  ___func_sprite_light_animated_co   sprite_light_animated_copy_t
     003D69C6  _sprite_light_animated_copy_tile   sprite_light_animated_copy_t
     003D6A88  ___func_sprite_light_animated_co   sprite_light_animated_copy
     003D6A88  _sprite_light_animated_copy_meta   sprite_light_animated_copy
     003D6AA4  _sprite_light_animated_copy_meta   sprite_light_animated_copy
     003D6AC4  _sprite_light_animated_copy_meta   sprite_light_animated_copy
     003D6ADC  _sprite_light_animated_copy_meta   sprite_light_animated_copy
     003D6AFC  _sprite_light_animated_copy_meta   sprite_light_animated_copy
     003D6B04  _sprite_light_animated_copy_anim   sprite_light_animated_copy
     003D6B14  _sprite_light_animated_copy_anim   sprite_light_animated_copy
     003D6B16  _sprite_light_animated_copy        sprite_light_animated_copy
     003D6B29  ___func_sprite_music_type_bank2_   sprite_music_type_bank2_tile
     003D6B29  _sprite_music_type_bank2_tileset   sprite_music_type_bank2_tile
     003D6B8B  ___func_sprite_music_type_tilese   sprite_music_type_tileset
     003D6B8B  _sprite_music_type_tileset         sprite_music_type_tileset
     003D6C0D  ___func_sprite_number_ui           sprite_number_ui
     003D6C0D  _sprite_number_ui_metasprite_0     sprite_number_ui
     003D6C19  _sprite_number_ui_metasprite_1     sprite_number_ui
     003D6C21  _sprite_number_ui_metasprite_2     sprite_number_ui
     003D6C2D  _sprite_number_ui_metasprite_3     sprite_number_ui
     003D6C35  _sprite_number_ui_metasprite_4     sprite_number_ui
     003D6C41  _sprite_number_ui_metasprite_5     sprite_number_ui
     003D6C4D  _sprite_number_ui_metasprite_6     sprite_number_ui
     003D6C55  _sprite_number_ui_metasprite_7     sprite_number_ui
     003D6C61  _sprite_number_ui_metasprite_8     sprite_number_ui
     003D6C6D  _sprite_number_ui_metasprite_9     sprite_number_ui
     003D6C75  _sprite_number_ui_metasprites      sprite_number_ui
     003D6C89  _sprite_number_ui_animations       sprite_number_ui
     003D6C99  _sprite_number_ui_animations_loo   sprite_number_ui
     003D6C9B  _sprite_number_ui                  sprite_number_ui
     003D6CAE  ___func_sprite_perlite_animated_   sprite_perlite_animated_bank
     003D6CAE  _sprite_perlite_animated_bank2_t   sprite_perlite_animated_bank
     003D6D70  ___func_sprite_phoenix_cop_copy_   sprite_phoenix_cop_copy_bank
     003D6D70  _sprite_phoenix_cop_copy_bank2_t   sprite_phoenix_cop_copy_bank
     003D6DD2  ___func_sprite_phoenix_cop_copy_   sprite_phoenix_cop_copy_tile
     003D6DD2  _sprite_phoenix_cop_copy_tileset   sprite_phoenix_cop_copy_tile
ASxxxx Linker V03.00/V05.40 + sdld,  page 88.
Hexadecimal  [32-Bits]

Area                                    Addr        Size        Decimal Bytes (Attributes)
--------------------------------        ----        ----        ------- ----- ------------
_CODE_61                            003D4000    00004000 =       16384. bytes (REL,CON)

      Value  Global                              Global Defined In Module
      -----  --------------------------------   ------------------------
     003D6E34  ___func_sprite_sly_slimeball_ban   sprite_sly_slimeball_bank2_t
     003D6E34  _sprite_sly_slimeball_bank2_tile   sprite_sly_slimeball_bank2_t
     003D6E96  ___func_sprite_sly_slimeball_cop   sprite_sly_slimeball_copy_ba
     003D6E96  _sprite_sly_slimeball_copy_bank2   sprite_sly_slimeball_copy_ba
     003D6F38  ___func_sprite_sly_slimeball_cop   sprite_sly_slimeball_copy_ti
     003D6F38  _sprite_sly_slimeball_copy_tiles   sprite_sly_slimeball_copy_ti
     003D6FDA  ___func_sprite_sly_slimeball_til   sprite_sly_slimeball_tileset
     003D6FDA  _sprite_sly_slimeball_tileset      sprite_sly_slimeball_tileset
     003D703C  ___func_sprite_sly_slimeball       sprite_sly_slimeball
     003D703C  _sprite_sly_slimeball_metasprite   sprite_sly_slimeball
     003D7060  _sprite_sly_slimeball_metasprite   sprite_sly_slimeball
     003D7084  _sprite_sly_slimeball_metasprite   sprite_sly_slimeball
     003D70A8  _sprite_sly_slimeball_metasprite   sprite_sly_slimeball
     003D70AE  _sprite_sly_slimeball_animations   sprite_sly_slimeball
     003D70BE  _sprite_sly_slimeball_animations   sprite_sly_slimeball
     003D70C0  _sprite_sly_slimeball              sprite_sly_slimeball
     003D70D3  ___func_sprite_speed_selection     sprite_speed_selection
     003D70D3  _sprite_speed_selection_metaspri   sprite_speed_selection
     003D70E7  _sprite_speed_selection_metaspri   sprite_speed_selection
     003D70FB  _sprite_speed_selection_metaspri   sprite_speed_selection
     003D710F  _sprite_speed_selection_metaspri   sprite_speed_selection
     003D7123  _sprite_speed_selection_metaspri   sprite_speed_selection
     003D712B  _sprite_speed_selection_animatio   sprite_speed_selection
     003D713B  _sprite_speed_selection_animatio   sprite_speed_selection
     003D713D  _sprite_speed_selection            sprite_speed_selection
     003D7150  _trigger_10_interact               trigger_10_interact
     003D7153  GBVM$trigger_10_interact$29c15f8   trigger_10_interact
     003D7153  GBVM$trigger_10_interact$6c0f7f0   trigger_10_interact
     003D7171  GBVM$trigger_10_interact$6788cb2   trigger_10_interact
     003D717D  GBVM$trigger_10_interact$d5fc171   trigger_10_interact
     003D717D  GBVM_END$trigger_10_interact$29c   trigger_10_interact
     003D71B4  _trigger_103_interact              trigger_103_interact
     003D71B7  GBVM$trigger_103_interact$d8f4c3   trigger_103_interact
     003D71B7  GBVM$trigger_103_interact$e5975e   trigger_103_interact
     003D71D5  GBVM$trigger_103_interact$e551d9   trigger_103_interact
     003D71E1  GBVM$trigger_103_interact$2f0032   trigger_103_interact
     003D71E1  GBVM_END$trigger_103_interact$e5   trigger_103_interact
     003D7218  _trigger_105_interact              trigger_105_interact
     003D721B  GBVM$trigger_105_interact$1b730d   trigger_105_interact
     003D7239  GBVM$trigger_105_interact$0bd1d4   trigger_105_interact
     003D7245  GBVM$trigger_105_interact$95a3b8   trigger_105_interact
     003D727C  _trigger_106_interact              trigger_106_interact
     003D727F  GBVM$trigger_106_interact$02d776   trigger_106_interact
     003D729D  GBVM$trigger_106_interact$59fec4   trigger_106_interact
     003D72A9  GBVM$trigger_106_interact$180116   trigger_106_interact
     003D72E0  _trigger_109_interact              trigger_109_interact
     003D72E3  GBVM$trigger_109_interact$e46263   trigger_109_interact
     003D7301  GBVM$trigger_109_interact$2c1948   trigger_109_interact
     003D730D  GBVM$trigger_109_interact$65f850   trigger_109_interact
     003D7344  _trigger_110_interact              trigger_110_interact
     003D7347  GBVM$trigger_110_interact$1f15ae   trigger_110_interact
ASxxxx Linker V03.00/V05.40 + sdld,  page 89.
Hexadecimal  [32-Bits]

Area                                    Addr        Size        Decimal Bytes (Attributes)
--------------------------------        ----        ----        ------- ----- ------------
_CODE_61                            003D4000    00004000 =       16384. bytes (REL,CON)

      Value  Global                              Global Defined In Module
      -----  --------------------------------   ------------------------
     003D7365  GBVM$trigger_110_interact$ca92f9   trigger_110_interact
     003D7371  GBVM$trigger_110_interact$3447ef   trigger_110_interact
     003D73A8  _trigger_112_interact              trigger_112_interact
     003D73AB  GBVM$trigger_112_interact$15f1e1   trigger_112_interact
     003D73C9  GBVM$trigger_112_interact$0d61d8   trigger_112_interact
     003D73D5  GBVM$trigger_112_interact$67a471   trigger_112_interact
     003D740C  _trigger_113_interact              trigger_113_interact
     003D740F  GBVM$trigger_113_interact$647136   trigger_113_interact
     003D742D  GBVM$trigger_113_interact$857591   trigger_113_interact
     003D7439  GBVM$trigger_113_interact$27013f   trigger_113_interact
     003D7470  _trigger_114_interact              trigger_114_interact
     003D7473  GBVM$trigger_114_interact$7a848f   trigger_114_interact
     003D7491  GBVM$trigger_114_interact$dc21a6   trigger_114_interact
     003D749D  GBVM$trigger_114_interact$3226ba   trigger_114_interact
     003D74D4  _trigger_115_interact              trigger_115_interact
     003D74D7  GBVM$trigger_115_interact$eba00e   trigger_115_interact
     003D74F5  GBVM$trigger_115_interact$f7a4da   trigger_115_interact
     003D7501  GBVM$trigger_115_interact$fdaf5e   trigger_115_interact
     003D7538  _trigger_117_interact              trigger_117_interact
     003D753B  GBVM$trigger_117_interact$4c97b4   trigger_117_interact
     003D7559  GBVM$trigger_117_interact$ab58d3   trigger_117_interact
     003D7565  GBVM$trigger_117_interact$63c873   trigger_117_interact
     003D759C  _trigger_121_interact              trigger_121_interact
     003D759F  GBVM$trigger_121_interact$059e7f   trigger_121_interact
     003D75BD  GBVM$trigger_121_interact$944ba2   trigger_121_interact
     003D75C9  GBVM$trigger_121_interact$5058ed   trigger_121_interact
     003D7600  _trigger_122_interact              trigger_122_interact
     003D7603  GBVM$trigger_122_interact$7da745   trigger_122_interact
     003D7621  GBVM$trigger_122_interact$f8e7f7   trigger_122_interact
     003D762D  GBVM$trigger_122_interact$31aa2e   trigger_122_interact
     003D7664  _trigger_123_interact              trigger_123_interact
     003D7667  GBVM$trigger_123_interact$e89046   trigger_123_interact
     003D7685  GBVM$trigger_123_interact$524cca   trigger_123_interact
     003D7691  GBVM$trigger_123_interact$4425ca   trigger_123_interact
     003D76C8  _trigger_124_interact              trigger_124_interact
     003D76CB  GBVM$trigger_124_interact$f2256a   trigger_124_interact
     003D76E9  GBVM$trigger_124_interact$cf3278   trigger_124_interact
     003D76F5  GBVM$trigger_124_interact$d238bd   trigger_124_interact
     003D772C  _trigger_160_interact              trigger_160_interact
     003D772F  GBVM$trigger_160_interact$4bebf1   trigger_160_interact
     003D774D  GBVM$trigger_160_interact$d41608   trigger_160_interact
     003D7759  GBVM$trigger_160_interact$7d196e   trigger_160_interact
     003D7790  _trigger_163_interact              trigger_163_interact
     003D7793  GBVM$trigger_163_interact$dd06ba   trigger_163_interact
     003D77B1  GBVM$trigger_163_interact$78d5f8   trigger_163_interact
     003D77BD  GBVM$trigger_163_interact$9d5b0e   trigger_163_interact
     003D77F4  _trigger_174_interact              trigger_174_interact
     003D77F7  GBVM$trigger_174_interact$11894e   trigger_174_interact
     003D7815  GBVM$trigger_174_interact$663ae3   trigger_174_interact
     003D7821  GBVM$trigger_174_interact$0d285d   trigger_174_interact
     003D7858  _trigger_175_interact              trigger_175_interact
ASxxxx Linker V03.00/V05.40 + sdld,  page 90.
Hexadecimal  [32-Bits]

Area                                    Addr        Size        Decimal Bytes (Attributes)
--------------------------------        ----        ----        ------- ----- ------------
_CODE_61                            003D4000    00004000 =       16384. bytes (REL,CON)

      Value  Global                              Global Defined In Module
      -----  --------------------------------   ------------------------
     003D785B  GBVM$trigger_175_interact$eb78f9   trigger_175_interact
     003D7879  GBVM$trigger_175_interact$95840d   trigger_175_interact
     003D7885  GBVM$trigger_175_interact$bedf48   trigger_175_interact
     003D78BC  _trigger_177_interact              trigger_177_interact
     003D78BF  GBVM$trigger_177_interact$310299   trigger_177_interact
     003D78D1  GBVM$trigger_177_interact$a8546e   trigger_177_interact
     003D7906  GBVM$trigger_177_interact$cc6696   trigger_177_interact
     003D7918  GBVM$trigger_177_interact$548f02   trigger_177_interact
     003D794D  GBVM$trigger_177_interact$be2508   trigger_177_interact
     003D797F  GBVM_END$trigger_177_interact$31   trigger_177_interact
     003D797F  GBVM_END$trigger_177_interact$cc   trigger_177_interact
     003D7980  _trigger_186_interact              trigger_186_interact
     003D7983  GBVM$trigger_186_interact$dc8313   trigger_186_interact
     003D79A1  GBVM$trigger_186_interact$e86a86   trigger_186_interact
     003D79AD  GBVM$trigger_186_interact$bade85   trigger_186_interact
     003D79E4  _trigger_189_interact              trigger_189_interact
     003D79E7  GBVM$trigger_189_interact$5d10be   trigger_189_interact
     003D7A05  GBVM$trigger_189_interact$3c0b1f   trigger_189_interact
     003D7A11  GBVM$trigger_189_interact$1e6744   trigger_189_interact
     003D7A48  _trigger_191_interact              trigger_191_interact
     003D7A4B  GBVM$trigger_191_interact$5ebd42   trigger_191_interact
     003D7A69  GBVM$trigger_191_interact$3d8148   trigger_191_interact
     003D7A75  GBVM$trigger_191_interact$03ce60   trigger_191_interact
     003D7AAC  _trigger_21_interact               trigger_21_interact
     003D7AC0  GBVM$trigger_21_interact$0fc55c1   trigger_21_interact
     003D7B04  GBVM$trigger_21_interact$ace5f8b   trigger_21_interact
     003D7B38  _trigger_226_interact              trigger_226_interact
     003D7B3B  GBVM$trigger_226_interact$b3e58e   trigger_226_interact
     003D7B59  GBVM$trigger_226_interact$42a13d   trigger_226_interact
     003D7B65  GBVM$trigger_226_interact$c2acbf   trigger_226_interact
     003D7B9C  _trigger_230_interact              trigger_230_interact
     003D7B9F  GBVM$trigger_230_interact$34ff99   trigger_230_interact
     003D7BBD  GBVM$trigger_230_interact$218e22   trigger_230_interact
     003D7BC9  GBVM$trigger_230_interact$66190a   trigger_230_interact
     003D7C00  _trigger_4_interact                trigger_4_interact
     003D7C03  GBVM$trigger_4_interact$6e39758e   trigger_4_interact
     003D7C03  GBVM$trigger_4_interact$718336f2   trigger_4_interact
     003D7C21  GBVM$trigger_4_interact$71c04e75   trigger_4_interact
     003D7C2D  GBVM$trigger_4_interact$1e3b02af   trigger_4_interact
     003D7C2D  GBVM_END$trigger_4_interact$6e39   trigger_4_interact
     003D7C64  _trigger_42_interact               trigger_42_interact
     003D7C67  GBVM$trigger_42_interact$abed180   trigger_42_interact
     003D7C95  GBVM$trigger_42_interact$432dbf0   trigger_42_interact
     003D7CA1  GBVM$trigger_42_interact$81c6165   trigger_42_interact
     003D7CAD  GBVM$trigger_42_interact$d1937c9   trigger_42_interact
     003D7CE0  _trigger_45_interact               trigger_45_interact
     003D7CE3  GBVM$trigger_45_interact$a750db8   trigger_45_interact
     003D7CE3  GBVM$trigger_45_interact$d8306c0   trigger_45_interact
     003D7D01  GBVM$trigger_45_interact$2ae7e81   trigger_45_interact
     003D7D0D  GBVM$trigger_45_interact$c6b487d   trigger_45_interact
     003D7D0D  GBVM_END$trigger_45_interact$d83   trigger_45_interact
ASxxxx Linker V03.00/V05.40 + sdld,  page 91.
Hexadecimal  [32-Bits]

Area                                    Addr        Size        Decimal Bytes (Attributes)
--------------------------------        ----        ----        ------- ----- ------------
_CODE_61                            003D4000    00004000 =       16384. bytes (REL,CON)

      Value  Global                              Global Defined In Module
      -----  --------------------------------   ------------------------
     003D7D44  _trigger_6_interact                trigger_6_interact
     003D7D47  GBVM$trigger_6_interact$024412ec   trigger_6_interact
     003D7D47  GBVM$trigger_6_interact$de12fcf1   trigger_6_interact
     003D7D65  GBVM$trigger_6_interact$3bcc6e8e   trigger_6_interact
     003D7D71  GBVM$trigger_6_interact$8eed393d   trigger_6_interact
     003D7D71  GBVM_END$trigger_6_interact$de12   trigger_6_interact
     003D7DA8  _trigger_69_interact               trigger_69_interact
     003D7DAB  GBVM$trigger_69_interact$9ef4b23   trigger_69_interact
     003D7DAB  GBVM$trigger_69_interact$c05dfbf   trigger_69_interact
     003D7DC9  GBVM$trigger_69_interact$f79959e   trigger_69_interact
     003D7DD5  GBVM$trigger_69_interact$15bc8a7   trigger_69_interact
     003D7DD5  GBVM_END$trigger_69_interact$c05   trigger_69_interact
     003D7E0C  _trigger_7_interact                trigger_7_interact
     003D7E0F  GBVM$trigger_7_interact$bea91a0d   trigger_7_interact
     003D7E0F  GBVM$trigger_7_interact$c29ffe4a   trigger_7_interact
     003D7E2D  GBVM$trigger_7_interact$657ec476   trigger_7_interact
     003D7E39  GBVM$trigger_7_interact$88e57225   trigger_7_interact
     003D7E39  GBVM_END$trigger_7_interact$c29f   trigger_7_interact
     003D7E70  _trigger_81_interact               trigger_81_interact
     003D7E73  GBVM$trigger_81_interact$084cc9b   trigger_81_interact
     003D7E73  GBVM$trigger_81_interact$83de412   trigger_81_interact
     003D7E91  GBVM$trigger_81_interact$5a6d2ac   trigger_81_interact
     003D7E9D  GBVM$trigger_81_interact$4ca58f2   trigger_81_interact
     003D7E9D  GBVM_END$trigger_81_interact$83d   trigger_81_interact
     003D7ED4  _trigger_9_interact                trigger_9_interact
     003D7ED7  GBVM$trigger_9_interact$6f749673   trigger_9_interact
     003D7EF5  GBVM$trigger_9_interact$2dfc50d3   trigger_9_interact
     003D7F01  GBVM$trigger_9_interact$386f4d66   trigger_9_interact
     003D7F38  _trigger_91_interact               trigger_91_interact
     003D7F3B  GBVM$trigger_91_interact$678e441   trigger_91_interact
     003D7F3B  GBVM$trigger_91_interact$b1ebbec   trigger_91_interact
     003D7F59  GBVM$trigger_91_interact$1f81230   trigger_91_interact
     003D7F65  GBVM$trigger_91_interact$7227b51   trigger_91_interact
     003D7F65  GBVM_END$trigger_91_interact$b1e   trigger_91_interact
     003D7F9C  _trigger_92_interact               trigger_92_interact
     003D7F9F  GBVM$trigger_92_interact$4263d32   trigger_92_interact
     003D7F9F  GBVM$trigger_92_interact$d2a18d5   trigger_92_interact
     003D7FBD  GBVM$trigger_92_interact$2be323c   trigger_92_interact
     003D7FC9  GBVM$trigger_92_interact$e4b02d2   trigger_92_interact
     003D7FC9  GBVM_END$trigger_92_interact$426   trigger_92_interact
ASxxxx Linker V03.00/V05.40 + sdld,  page 92.
Hexadecimal  [32-Bits]

Area                                    Addr        Size        Decimal Bytes (Attributes)
--------------------------------        ----        ----        ------- ----- ------------
_CODE_56                            00384000    00003FFF =       16383. bytes (REL,CON)

      Value  Global                              Global Defined In Module
      -----  --------------------------------   ------------------------
     00384000  _CGBFadeToWhiteStep                fade_manager
     00384039  _CGBFadeToBlackStep                fade_manager
     00384074  _ApplyPaletteChangeColor           fade_manager
     003840B1  _fade_speeds                       fade_manager
     003840B8  _DMGFadeToWhiteStep                fade_manager
     003840D9  _DMGFadeToBlackStep                fade_manager
     003840FC  _ApplyPaletteChangeDMG             fade_manager
     00384152  _fade_init                         fade_manager
     00384173  _fade_in                           fade_manager
     003841AB  _fade_out                          fade_manager
     003841E4  _fade_update                       fade_manager
     00384237  _fade_applypalettechange           fade_manager
     00384249  _fade_setspeed                     fade_manager
     00384259  _fade_in_modal                     fade_manager
     00384273  _fade_out_modal                    fade_manager
     0038428D  ___func_bg_blight_s_memory_p1_ti   bg_blight_s_memory_p1_tilese
     0038428D  _bg_blight_s_memory_p1_tileset     bg_blight_s_memory_p1_tilese
     003847AF  ___func_bg_earth_burnclaw_forest   bg_earth_burnclaw_forest_cr_
     003847AF  _bg_earth_burnclaw_forest_cr_til   bg_earth_burnclaw_forest_cr_
     00384D27  ___func_bg_earth_burnclaw_forest   bg_earth_burnclaw_forest_cr_
     00384D27  _bg_earth_burnclaw_forest_cr_til   bg_earth_burnclaw_forest_cr_
     0038529F  ___func_bg_earth_shuttle_bay_wat   bg_earth_shuttle_bay_water_t
     0038529F  _bg_earth_shuttle_bay_water_tile   bg_earth_shuttle_bay_water_t
     00385771  ___func_bg_game_menu_tileset       bg_game_menu_tileset
     00385771  _bg_game_menu_tileset              bg_game_menu_tileset
     00385C63  ___func_bg_luna_serenity_cave_up   bg_luna_serenity_cave_upper_
     00385C63  _bg_luna_serenity_cave_upper_til   bg_luna_serenity_cave_upper_
     00386155  ___func_bg_luna_serenity_outskir   bg_luna_serenity_outskirts_t
     00386155  _bg_luna_serenity_outskirts_tile   bg_luna_serenity_outskirts_t
     00386667  ___func_bg_venus_office_access_t   bg_venus_office_access_tiles
     00386667  _bg_venus_office_access_tileset    bg_venus_office_access_tiles
     00386B39  ___func_bg_venus_police_departme   bg_venus_police_department__
     00386B39  _bg_venus_police_department__til   bg_venus_police_department__
     0038704B  ___func_scene_16_collisions        scene_16_collisions
     0038704B  _scene_16_collisions               scene_16_collisions
     003875C3  _scene_16_init                     scene_16_init
     003875C6  GBVM$scene_16_init$autofade$2231   scene_16_init
     003875D1  GBVM$scene_16_init$626c14c7_3a51   scene_16_init
     003875E3  GBVM$scene_16_init$606f11d4_2a81   scene_16_init
     003875EE  GBVM$scene_16_init$a1d1e4d4_390e   scene_16_init
     003875F9  GBVM$scene_16_init$af42f66d_f696   scene_16_init
     0038770C  GBVM$scene_16_init$7d90169b_b29f   scene_16_init
     00387717  GBVM$scene_16_init$d20bcaa1_126a   scene_16_init
     00387843  GBVM$scene_16_init$761cdebf_44d9   scene_16_init
     0038784E  GBVM$scene_16_init$1aeb848b_77b1   scene_16_init
     00387A9F  GBVM$scene_16_init$e9446a16_e088   scene_16_init
     00387AAE  GBVM$scene_16_init$b3271a89_71e8   scene_16_init
     00387AAE  GBVM_END$scene_16_init$626c14c7_   scene_16_init
     00387AB3  GBVM$scene_16_init$fb14476c_f447   scene_16_init
     00387ABA  GBVM$scene_16_init$7fb8330d_222d   scene_16_init
ASxxxx Linker V03.00/V05.40 + sdld,  page 93.
Hexadecimal  [32-Bits]

Area                                    Addr        Size        Decimal Bytes (Attributes)
--------------------------------        ----        ----        ------- ----- ------------
_CODE_56                            00384000    00003FFF =       16383. bytes (REL,CON)

      Value  Global                              Global Defined In Module
      -----  --------------------------------   ------------------------
     00387ABA  GBVM$scene_16_init$c5b0d7a1_3624   scene_16_init
     00387ABF  GBVM$scene_16_init$b42d4f47_da46   scene_16_init
     00387AC6  GBVM$scene_16_init$3180cc8e_6d57   scene_16_init
     00387ACA  GBVM$scene_16_init$a7434b09_47a4   scene_16_init
     00387AD9  GBVM$scene_16_init$7e3e84e4_1631   scene_16_init
     00387AE1  GBVM_END$scene_16_init$7e3e84e4_   scene_16_init
     00387AE1  GBVM_END$scene_16_init$c5b0d7a1_   scene_16_init
     00387AE2  _scene_18_init                     scene_18_init
     00387AE5  GBVM$scene_18_init$b051bedb_f2d5   scene_18_init
     00387AEA  GBVM$scene_18_init$7125e6c2_ef51   scene_18_init
     00387AF1  GBVM$scene_18_init$7b9aca6c_0550   scene_18_init
     00387B01  GBVM$scene_18_init$d33c2aaf_3432   scene_18_init
     00387B0C  GBVM$scene_18_init$autofade$e578   scene_18_init
     00387B17  GBVM$scene_18_init$e6746d7d_1632   scene_18_init
     00387B5B  GBVM$scene_18_init$db803933_9287   scene_18_init
     00387C29  GBVM$scene_18_init$bf571951_9087   scene_18_init
     00387C3A  GBVM$scene_18_init$653bdc3a_58a5   scene_18_init
     00387C5D  GBVM$scene_18_init$f07dc4c0_1793   scene_18_init
     00387C6E  GBVM$scene_18_init$c6159f3e_76b8   scene_18_init
     00387C79  GBVM$scene_18_init$4ffa86f8_e8f2   scene_18_init
     00387DF6  GBVM$scene_18_init$151cb9e8_23fe   scene_18_init
     00387E07  GBVM$scene_18_init$d9ef07f0_ae40   scene_18_init
     00387E39  GBVM$scene_18_init$2c60001b_acb5   scene_18_init
     00387E44  GBVM$scene_18_init$f8d3df62_8b5e   scene_18_init
     00387E67  GBVM$scene_18_init$0c75857f_98a8   scene_18_init
     00387E70  GBVM$scene_18_init$3538105e_a8b4   scene_18_init
     00387F9C  GBVM$scene_18_init$9073faa9_af8e   scene_18_init
     00387FBE  GBVM$scene_18_init$0bb945b8_ae2f   scene_18_init
     00387FC3  GBVM$scene_18_init$60145002_5e5f   scene_18_init
     00387FF6  ___func_scene_54_sprites           scene_54_sprites
     00387FF6  _scene_54_sprites                  scene_54_sprites
ASxxxx Linker V03.00/V05.40 + sdld,  page 94.
Hexadecimal  [32-Bits]

Area                                    Addr        Size        Decimal Bytes (Attributes)
--------------------------------        ----        ----        ------- ----- ------------
_CODE_60                            003C4000    00004000 =       16384. bytes (REL,CON)

      Value  Global                              Global Defined In Module
      -----  --------------------------------   ------------------------
     003C4068  _save_sram_banks                   
     003C40F0  _erase_flash                       
     003C4106  _music_init_driver                 music_manager
     003C4162  _music_init_events                 music_manager
     003C419E  _music_events_poll                 music_manager
     003C41C6  _music_pause                       music_manager
     003C41E8  ___func_VM_MATH                    vm_math
     003C41E8  _vm_sin_scale                      vm_math
     003C4284  _vm_cos_scale                      vm_math
     003C4322  ___func_VM_MUSIC                   vm_music
     003C4322  _vm_music_play                     vm_music
     003C436F  _vm_music_stop                     vm_music
     003C4391  _vm_music_mute                     vm_music
     003C43CF  _vm_music_routine                  vm_music
     003C43F6  _vm_music_setpos                   vm_music
     003C43FC  _vm_sound_mastervol                vm_music
     003C4402  _vm_sfx_play                       vm_music
     003C4475  ___func_VM_PROJECTILE              vm_projectiles
     003C4475  _vm_projectile_launch              vm_projectiles
     003C44B6  _vm_projectile_load_type           vm_projectiles
     003C4548  ___func_VM_RTC                     vm_rtc
     003C4548  _vm_rtc_latch                      vm_rtc
     003C4550  _vm_rtc_get                        vm_rtc
     003C45B7  _vm_rtc_set                        vm_rtc
     003C4615  _vm_rtc_start                      vm_rtc
     003C4638  _itoa_fmt                          vm_ui_a
     003C4671  .utoa_fmt                          vm_ui_a
     003C471B  _actor_18_interact                 actor_18_interact
     003C471E  GBVM$actor_18_interact$66b72c40_   actor_18_interact
     003C4749  GBVM$actor_18_interact$a3936b42_   actor_18_interact
     003C475B  GBVM$actor_18_interact$b61908aa_   actor_18_interact
     003C4767  GBVM$actor_18_interact$2515bdac_   actor_18_interact
     003C4779  GBVM$actor_18_interact$174abdd1_   actor_18_interact
     003C4785  GBVM$actor_18_interact$ccc391b9_   actor_18_interact
     003C478C  GBVM$actor_18_interact$5b73f775_   actor_18_interact
     003C47D2  GBVM$actor_18_interact$df1dc18c_   actor_18_interact
     003C47D2  GBVM_END$actor_18_interact$2515b   actor_18_interact
     003C47DD  GBVM$actor_18_interact$a87661b3_   actor_18_interact
     003C47E5  GBVM$actor_18_interact$123a9463_   actor_18_interact
     003C47E5  GBVM$actor_18_interact$a656507f_   actor_18_interact
     003C47E5  GBVM_END$actor_18_interact$a3936   actor_18_interact
     003C47EA  GBVM$actor_18_interact$292397dd_   actor_18_interact
     003C47F1  GBVM$actor_18_interact$e993a074_   actor_18_interact
     003C47F5  GBVM$actor_18_interact$4dbca961_   actor_18_interact
     003C4804  GBVM$actor_18_interact$f4b27838_   actor_18_interact
     003C480C  GBVM_END$actor_18_interact$a6565   actor_18_interact
     003C480C  GBVM_END$actor_18_interact$f4b27   actor_18_interact
     003C480D  _actor_19_interact                 actor_19_interact
     003C4810  GBVM$actor_19_interact$59093c57_   actor_19_interact
     003C483B  GBVM$actor_19_interact$8911f4f9_   actor_19_interact
ASxxxx Linker V03.00/V05.40 + sdld,  page 95.
Hexadecimal  [32-Bits]

Area                                    Addr        Size        Decimal Bytes (Attributes)
--------------------------------        ----        ----        ------- ----- ------------
_CODE_60                            003C4000    00004000 =       16384. bytes (REL,CON)

      Value  Global                              Global Defined In Module
      -----  --------------------------------   ------------------------
     003C484D  GBVM$actor_19_interact$6069434a_   actor_19_interact
     003C4859  GBVM$actor_19_interact$d5ff41be_   actor_19_interact
     003C486B  GBVM$actor_19_interact$7910868a_   actor_19_interact
     003C4877  GBVM$actor_19_interact$e9976af4_   actor_19_interact
     003C487E  GBVM$actor_19_interact$19b22943_   actor_19_interact
     003C48C4  GBVM$actor_19_interact$472a2f2f_   actor_19_interact
     003C48C4  GBVM_END$actor_19_interact$d5ff4   actor_19_interact
     003C48CF  GBVM$actor_19_interact$dad6def5_   actor_19_interact
     003C48D7  GBVM$actor_19_interact$462eb1b0_   actor_19_interact
     003C48D7  GBVM$actor_19_interact$4a81e056_   actor_19_interact
     003C48D7  GBVM_END$actor_19_interact$8911f   actor_19_interact
     003C48DC  GBVM$actor_19_interact$c93f992f_   actor_19_interact
     003C48E3  GBVM$actor_19_interact$1214fbfd_   actor_19_interact
     003C48E7  GBVM$actor_19_interact$00a77e3b_   actor_19_interact
     003C48F6  GBVM$actor_19_interact$c3ed9e99_   actor_19_interact
     003C48FE  GBVM_END$actor_19_interact$462eb   actor_19_interact
     003C48FE  GBVM_END$actor_19_interact$c3ed9   actor_19_interact
     003C48FF  _actor_20_interact                 actor_20_interact
     003C4902  GBVM$actor_20_interact$f95a094f_   actor_20_interact
     003C492D  GBVM$actor_20_interact$95951f53_   actor_20_interact
     003C493F  GBVM$actor_20_interact$996a5c04_   actor_20_interact
     003C494B  GBVM$actor_20_interact$38d8f5f6_   actor_20_interact
     003C495D  GBVM$actor_20_interact$0f8a2a57_   actor_20_interact
     003C4969  GBVM$actor_20_interact$cf83aae7_   actor_20_interact
     003C4970  GBVM$actor_20_interact$de24cba4_   actor_20_interact
     003C49B6  GBVM$actor_20_interact$034490d9_   actor_20_interact
     003C49B6  GBVM_END$actor_20_interact$38d8f   actor_20_interact
     003C49C1  GBVM$actor_20_interact$07a147c0_   actor_20_interact
     003C49C9  GBVM$actor_20_interact$0cb3179c_   actor_20_interact
     003C49C9  GBVM$actor_20_interact$854c6277_   actor_20_interact
     003C49C9  GBVM_END$actor_20_interact$95951   actor_20_interact
     003C49CE  GBVM$actor_20_interact$34b5d878_   actor_20_interact
     003C49D5  GBVM$actor_20_interact$0b8627de_   actor_20_interact
     003C49D9  GBVM$actor_20_interact$b0958b7a_   actor_20_interact
     003C49E8  GBVM$actor_20_interact$82258940_   actor_20_interact
     003C49F0  GBVM_END$actor_20_interact$0cb31   actor_20_interact
     003C49F0  GBVM_END$actor_20_interact$82258   actor_20_interact
     003C49F1  _actor_21_interact                 actor_21_interact
     003C49F4  GBVM$actor_21_interact$0955f896_   actor_21_interact
     003C4A1F  GBVM$actor_21_interact$30a9525a_   actor_21_interact
     003C4A31  GBVM$actor_21_interact$272fd31f_   actor_21_interact
     003C4A3D  GBVM$actor_21_interact$54f0ccc1_   actor_21_interact
     003C4A4F  GBVM$actor_21_interact$e6c50b20_   actor_21_interact
     003C4A5B  GBVM$actor_21_interact$23bf24b4_   actor_21_interact
     003C4A62  GBVM$actor_21_interact$fb56ee77_   actor_21_interact
     003C4AA8  GBVM$actor_21_interact$c8e6a8d6_   actor_21_interact
     003C4AA8  GBVM_END$actor_21_interact$54f0c   actor_21_interact
     003C4AB3  GBVM$actor_21_interact$2b4eac33_   actor_21_interact
     003C4ABB  GBVM$actor_21_interact$06012cc3_   actor_21_interact
     003C4ABB  GBVM$actor_21_interact$5c424e00_   actor_21_interact
     003C4ABB  GBVM_END$actor_21_interact$30a95   actor_21_interact
ASxxxx Linker V03.00/V05.40 + sdld,  page 96.
Hexadecimal  [32-Bits]

Area                                    Addr        Size        Decimal Bytes (Attributes)
--------------------------------        ----        ----        ------- ----- ------------
_CODE_60                            003C4000    00004000 =       16384. bytes (REL,CON)

      Value  Global                              Global Defined In Module
      -----  --------------------------------   ------------------------
     003C4AC0  GBVM$actor_21_interact$c81168b7_   actor_21_interact
     003C4AC7  GBVM$actor_21_interact$cf162526_   actor_21_interact
     003C4ACB  GBVM$actor_21_interact$54072a5a_   actor_21_interact
     003C4ADA  GBVM$actor_21_interact$eff961d6_   actor_21_interact
     003C4AE2  GBVM_END$actor_21_interact$5c424   actor_21_interact
     003C4AE2  GBVM_END$actor_21_interact$eff96   actor_21_interact
     003C4AE3  _actor_22_interact                 actor_22_interact
     003C4AE6  GBVM$actor_22_interact$b19db8f5_   actor_22_interact
     003C4B11  GBVM$actor_22_interact$75db61eb_   actor_22_interact
     003C4B23  GBVM$actor_22_interact$e1d7bc79_   actor_22_interact
     003C4B2F  GBVM$actor_22_interact$8c6e384a_   actor_22_interact
     003C4B41  GBVM$actor_22_interact$e634e776_   actor_22_interact
     003C4B4D  GBVM$actor_22_interact$e807e5ef_   actor_22_interact
     003C4B54  GBVM$actor_22_interact$f62a458c_   actor_22_interact
     003C4B9A  GBVM$actor_22_interact$1bb53656_   actor_22_interact
     003C4B9A  GBVM_END$actor_22_interact$8c6e3   actor_22_interact
     003C4BA5  GBVM$actor_22_interact$e7c3fbf8_   actor_22_interact
     003C4BAD  GBVM$actor_22_interact$107da7e1_   actor_22_interact
     003C4BAD  GBVM$actor_22_interact$9f5fe9a8_   actor_22_interact
     003C4BAD  GBVM_END$actor_22_interact$75db6   actor_22_interact
     003C4BB2  GBVM$actor_22_interact$d9c70ffc_   actor_22_interact
     003C4BB9  GBVM$actor_22_interact$22a63202_   actor_22_interact
     003C4BBD  GBVM$actor_22_interact$c9db9b77_   actor_22_interact
     003C4BCC  GBVM$actor_22_interact$f9676357_   actor_22_interact
     003C4BD4  GBVM_END$actor_22_interact$9f5fe   actor_22_interact
     003C4BD4  GBVM_END$actor_22_interact$f9676   actor_22_interact
     003C4BD5  _actor_3_interact                  actor_3_interact
     003C4BD8  GBVM$actor_3_interact$a18dfe21_6   actor_3_interact
     003C4C03  GBVM$actor_3_interact$ce931646_e   actor_3_interact
     003C4C15  GBVM$actor_3_interact$e79d8060_9   actor_3_interact
     003C4C21  GBVM$actor_3_interact$82052d4f_8   actor_3_interact
     003C4C33  GBVM$actor_3_interact$723f645d_3   actor_3_interact
     003C4C3F  GBVM$actor_3_interact$9f226911_a   actor_3_interact
     003C4C46  GBVM$actor_3_interact$a33393f6_5   actor_3_interact
     003C4C8C  GBVM$actor_3_interact$5f189a69_d   actor_3_interact
     003C4C8C  GBVM_END$actor_3_interact$82052d   actor_3_interact
     003C4C97  GBVM$actor_3_interact$2672aae3_8   actor_3_interact
     003C4C9F  GBVM$actor_3_interact$337be08d_0   actor_3_interact
     003C4C9F  GBVM$actor_3_interact$f141a059_4   actor_3_interact
     003C4C9F  GBVM_END$actor_3_interact$ce9316   actor_3_interact
     003C4CA4  GBVM$actor_3_interact$38f42ca0_e   actor_3_interact
     003C4CAB  GBVM$actor_3_interact$33389b60_c   actor_3_interact
     003C4CAF  GBVM$actor_3_interact$c725c675_d   actor_3_interact
     003C4CBE  GBVM$actor_3_interact$764b6f69_5   actor_3_interact
     003C4CC6  GBVM_END$actor_3_interact$764b6f   actor_3_interact
     003C4CC6  GBVM_END$actor_3_interact$f141a0   actor_3_interact
     003C4CC7  _actor_39_interact                 actor_39_interact
     003C4CCA  GBVM$actor_39_interact$45d2736d_   actor_39_interact
     003C4CF5  GBVM$actor_39_interact$ae8572eb_   actor_39_interact
     003C4D07  GBVM$actor_39_interact$87ba2148_   actor_39_interact
     003C4D13  GBVM$actor_39_interact$33892a3e_   actor_39_interact
ASxxxx Linker V03.00/V05.40 + sdld,  page 97.
Hexadecimal  [32-Bits]

Area                                    Addr        Size        Decimal Bytes (Attributes)
--------------------------------        ----        ----        ------- ----- ------------
_CODE_60                            003C4000    00004000 =       16384. bytes (REL,CON)

      Value  Global                              Global Defined In Module
      -----  --------------------------------   ------------------------
     003C4D25  GBVM$actor_39_interact$6fa93e78_   actor_39_interact
     003C4D31  GBVM$actor_39_interact$cfc7228c_   actor_39_interact
     003C4D38  GBVM$actor_39_interact$b64374e5_   actor_39_interact
     003C4D7E  GBVM$actor_39_interact$b22dd3a0_   actor_39_interact
     003C4D7E  GBVM_END$actor_39_interact$33892   actor_39_interact
     003C4D89  GBVM$actor_39_interact$c38e50b4_   actor_39_interact
     003C4D91  GBVM$actor_39_interact$3d94a93e_   actor_39_interact
     003C4D91  GBVM$actor_39_interact$78e7ed31_   actor_39_interact
     003C4D91  GBVM_END$actor_39_interact$ae857   actor_39_interact
     003C4D96  GBVM$actor_39_interact$1aa5d8b6_   actor_39_interact
     003C4D9D  GBVM$actor_39_interact$737808e4_   actor_39_interact
     003C4DA1  GBVM$actor_39_interact$8319a10f_   actor_39_interact
     003C4DB0  GBVM$actor_39_interact$f4d4f884_   actor_39_interact
     003C4DB8  GBVM_END$actor_39_interact$78e7e   actor_39_interact
     003C4DB8  GBVM_END$actor_39_interact$f4d4f   actor_39_interact
     003C4DB9  _actor_4_interact                  actor_4_interact
     003C4DBC  GBVM$actor_4_interact$038bade0_7   actor_4_interact
     003C4DE7  GBVM$actor_4_interact$c785eb5f_b   actor_4_interact
     003C4DF9  GBVM$actor_4_interact$c185e325_1   actor_4_interact
     003C4E05  GBVM$actor_4_interact$85c70892_0   actor_4_interact
     003C4E17  GBVM$actor_4_interact$b5234248_3   actor_4_interact
     003C4E23  GBVM$actor_4_interact$946c4f67_f   actor_4_interact
     003C4E2A  GBVM$actor_4_interact$35ae6ba2_9   actor_4_interact
     003C4E70  GBVM$actor_4_interact$53913abb_b   actor_4_interact
     003C4E70  GBVM_END$actor_4_interact$85c708   actor_4_interact
     003C4E7B  GBVM$actor_4_interact$115a2a2d_6   actor_4_interact
     003C4E83  GBVM$actor_4_interact$0c3c215c_7   actor_4_interact
     003C4E83  GBVM$actor_4_interact$7bcb3f72_3   actor_4_interact
     003C4E83  GBVM_END$actor_4_interact$c785eb   actor_4_interact
     003C4E88  GBVM$actor_4_interact$a25dc877_0   actor_4_interact
     003C4E8F  GBVM$actor_4_interact$e4b05797_a   actor_4_interact
     003C4E93  GBVM$actor_4_interact$55d65086_b   actor_4_interact
     003C4EA2  GBVM$actor_4_interact$950144ea_6   actor_4_interact
     003C4EAA  GBVM_END$actor_4_interact$0c3c21   actor_4_interact
     003C4EAA  GBVM_END$actor_4_interact$950144   actor_4_interact
     003C4EAB  _actor_40_interact                 actor_40_interact
     003C4EAE  GBVM$actor_40_interact$8abc70ee_   actor_40_interact
     003C4ED9  GBVM$actor_40_interact$15d06fbb_   actor_40_interact
     003C4EEB  GBVM$actor_40_interact$d0a05db6_   actor_40_interact
     003C4EF7  GBVM$actor_40_interact$66c69c39_   actor_40_interact
     003C4F09  GBVM$actor_40_interact$04ff8edb_   actor_40_interact
     003C4F15  GBVM$actor_40_interact$f8cfddfb_   actor_40_interact
     003C4F1C  GBVM$actor_40_interact$cbbfe498_   actor_40_interact
     003C4F62  GBVM$actor_40_interact$c01afdb2_   actor_40_interact
     003C4F62  GBVM_END$actor_40_interact$66c69   actor_40_interact
     003C4F6D  GBVM$actor_40_interact$56084cb2_   actor_40_interact
     003C4F75  GBVM$actor_40_interact$5116b678_   actor_40_interact
     003C4F75  GBVM$actor_40_interact$eba096df_   actor_40_interact
     003C4F75  GBVM_END$actor_40_interact$15d06   actor_40_interact
     003C4F7A  GBVM$actor_40_interact$e81da143_   actor_40_interact
     003C4F81  GBVM$actor_40_interact$c0e6caca_   actor_40_interact
ASxxxx Linker V03.00/V05.40 + sdld,  page 98.
Hexadecimal  [32-Bits]

Area                                    Addr        Size        Decimal Bytes (Attributes)
--------------------------------        ----        ----        ------- ----- ------------
_CODE_60                            003C4000    00004000 =       16384. bytes (REL,CON)

      Value  Global                              Global Defined In Module
      -----  --------------------------------   ------------------------
     003C4F85  GBVM$actor_40_interact$9056f723_   actor_40_interact
     003C4F94  GBVM$actor_40_interact$6bbec5e3_   actor_40_interact
     003C4F9C  GBVM_END$actor_40_interact$6bbec   actor_40_interact
     003C4F9C  GBVM_END$actor_40_interact$eba09   actor_40_interact
     003C4F9D  _actor_41_interact                 actor_41_interact
     003C4FA0  GBVM$actor_41_interact$6bbbdb54_   actor_41_interact
     003C4FCB  GBVM$actor_41_interact$a4be70b0_   actor_41_interact
     003C4FDD  GBVM$actor_41_interact$d36c4444_   actor_41_interact
     003C4FE9  GBVM$actor_41_interact$e5a34c06_   actor_41_interact
     003C4FFB  GBVM$actor_41_interact$4e282926_   actor_41_interact
     003C5007  GBVM$actor_41_interact$ebdf2436_   actor_41_interact
     003C500E  GBVM$actor_41_interact$45b401ce_   actor_41_interact
     003C5054  GBVM$actor_41_interact$a242c947_   actor_41_interact
     003C5054  GBVM_END$actor_41_interact$e5a34   actor_41_interact
     003C505F  GBVM$actor_41_interact$1cffebb0_   actor_41_interact
     003C5067  GBVM$actor_41_interact$931d212f_   actor_41_interact
     003C5067  GBVM$actor_41_interact$adf9077f_   actor_41_interact
     003C5067  GBVM_END$actor_41_interact$a4be7   actor_41_interact
     003C506C  GBVM$actor_41_interact$e5b7e60d_   actor_41_interact
     003C5073  GBVM$actor_41_interact$312c21fc_   actor_41_interact
     003C5077  GBVM$actor_41_interact$abcd7493_   actor_41_interact
     003C5086  GBVM$actor_41_interact$d8319348_   actor_41_interact
     003C508E  GBVM_END$actor_41_interact$adf90   actor_41_interact
     003C508E  GBVM_END$actor_41_interact$d8319   actor_41_interact
     003C508F  _actor_5_interact                  actor_5_interact
     003C5092  GBVM$actor_5_interact$eb3251ac_e   actor_5_interact
     003C50BD  GBVM$actor_5_interact$38107972_d   actor_5_interact
     003C50CF  GBVM$actor_5_interact$3c02116d_e   actor_5_interact
     003C50DB  GBVM$actor_5_interact$2d2ba0f6_c   actor_5_interact
     003C50ED  GBVM$actor_5_interact$35417e54_4   actor_5_interact
     003C50F9  GBVM$actor_5_interact$1fe1066c_5   actor_5_interact
     003C5100  GBVM$actor_5_interact$b05f694e_0   actor_5_interact
     003C5146  GBVM$actor_5_interact$c9cb37ff_c   actor_5_interact
     003C5146  GBVM_END$actor_5_interact$2d2ba0   actor_5_interact
     003C5151  GBVM$actor_5_interact$ea9df51b_7   actor_5_interact
     003C5159  GBVM$actor_5_interact$a0a4cd33_9   actor_5_interact
     003C5159  GBVM$actor_5_interact$f9f46893_8   actor_5_interact
     003C5159  GBVM_END$actor_5_interact$381079   actor_5_interact
     003C515E  GBVM$actor_5_interact$b2f01fd1_4   actor_5_interact
     003C5165  GBVM$actor_5_interact$d889cc94_0   actor_5_interact
     003C5169  GBVM$actor_5_interact$61b0fd48_4   actor_5_interact
     003C5178  GBVM$actor_5_interact$27faba76_8   actor_5_interact
     003C5180  GBVM_END$actor_5_interact$27faba   actor_5_interact
     003C5180  GBVM_END$actor_5_interact$a0a4cd   actor_5_interact
     003C5181  _actor_55_interact                 actor_55_interact
     003C5184  GBVM$actor_55_interact$f90e4d74_   actor_55_interact
     003C51AF  GBVM$actor_55_interact$8a4a808e_   actor_55_interact
     003C51C1  GBVM$actor_55_interact$f331cd5d_   actor_55_interact
     003C51CD  GBVM$actor_55_interact$1ef741fc_   actor_55_interact
     003C51DF  GBVM$actor_55_interact$0b1ca5d2_   actor_55_interact
     003C51EB  GBVM$actor_55_interact$16f51aa3_   actor_55_interact
ASxxxx Linker V03.00/V05.40 + sdld,  page 99.
Hexadecimal  [32-Bits]

Area                                    Addr        Size        Decimal Bytes (Attributes)
--------------------------------        ----        ----        ------- ----- ------------
_CODE_60                            003C4000    00004000 =       16384. bytes (REL,CON)

      Value  Global                              Global Defined In Module
      -----  --------------------------------   ------------------------
     003C51F2  GBVM$actor_55_interact$256c69e0_   actor_55_interact
     003C5238  GBVM$actor_55_interact$6c185093_   actor_55_interact
     003C5238  GBVM_END$actor_55_interact$1ef74   actor_55_interact
     003C5243  GBVM$actor_55_interact$1367dff9_   actor_55_interact
     003C524B  GBVM$actor_55_interact$420a6afd_   actor_55_interact
     003C524B  GBVM$actor_55_interact$a7b86ac5_   actor_55_interact
     003C524B  GBVM_END$actor_55_interact$8a4a8   actor_55_interact
     003C5250  GBVM$actor_55_interact$4c8e5b0d_   actor_55_interact
     003C5257  GBVM$actor_55_interact$a8c05bc1_   actor_55_interact
     003C525B  GBVM$actor_55_interact$a96a5604_   actor_55_interact
     003C526A  GBVM$actor_55_interact$a5e1ce91_   actor_55_interact
     003C5272  GBVM_END$actor_55_interact$420a6   actor_55_interact
     003C5272  GBVM_END$actor_55_interact$a5e1c   actor_55_interact
     003C5273  _actor_57_interact                 actor_57_interact
     003C5276  GBVM$actor_57_interact$4559accf_   actor_57_interact
     003C52A1  GBVM$actor_57_interact$882638ba_   actor_57_interact
     003C52B3  GBVM$actor_57_interact$2dac88e8_   actor_57_interact
     003C52BF  GBVM$actor_57_interact$2c9be435_   actor_57_interact
     003C52D1  GBVM$actor_57_interact$9867ae4d_   actor_57_interact
     003C52DD  GBVM$actor_57_interact$f4a82e8c_   actor_57_interact
     003C52E4  GBVM$actor_57_interact$b1540002_   actor_57_interact
     003C532A  GBVM$actor_57_interact$b377ca0a_   actor_57_interact
     003C532A  GBVM_END$actor_57_interact$2c9be   actor_57_interact
     003C5335  GBVM$actor_57_interact$592646d5_   actor_57_interact
     003C533D  GBVM$actor_57_interact$7b767c67_   actor_57_interact
     003C533D  GBVM$actor_57_interact$dd69cd68_   actor_57_interact
     003C533D  GBVM_END$actor_57_interact$88263   actor_57_interact
     003C5342  GBVM$actor_57_interact$608878f2_   actor_57_interact
     003C5349  GBVM$actor_57_interact$ee2fa98d_   actor_57_interact
     003C534D  GBVM$actor_57_interact$617a784d_   actor_57_interact
     003C535C  GBVM$actor_57_interact$c3ed52c0_   actor_57_interact
     003C5364  GBVM_END$actor_57_interact$7b767   actor_57_interact
     003C5364  GBVM_END$actor_57_interact$c3ed5   actor_57_interact
     003C5365  _actor_59_interact                 actor_59_interact
     003C5368  GBVM$actor_59_interact$8bffcb1c_   actor_59_interact
     003C5393  GBVM$actor_59_interact$96433192_   actor_59_interact
     003C53A5  GBVM$actor_59_interact$8b2bccc0_   actor_59_interact
     003C53B1  GBVM$actor_59_interact$285b5a68_   actor_59_interact
     003C53C3  GBVM$actor_59_interact$6926b57d_   actor_59_interact
     003C53CF  GBVM$actor_59_interact$e55c27d6_   actor_59_interact
     003C53D6  GBVM$actor_59_interact$7154bd01_   actor_59_interact
     003C541C  GBVM$actor_59_interact$63068f3f_   actor_59_interact
     003C541C  GBVM_END$actor_59_interact$285b5   actor_59_interact
     003C5427  GBVM$actor_59_interact$8dc144e4_   actor_59_interact
     003C542F  GBVM$actor_59_interact$56ed6e07_   actor_59_interact
     003C542F  GBVM$actor_59_interact$ebe4745b_   actor_59_interact
     003C542F  GBVM_END$actor_59_interact$96433   actor_59_interact
     003C5434  GBVM$actor_59_interact$534ac828_   actor_59_interact
     003C543B  GBVM$actor_59_interact$dacbd235_   actor_59_interact
     003C543F  GBVM$actor_59_interact$c3c93139_   actor_59_interact
     003C544E  GBVM$actor_59_interact$11e2522f_   actor_59_interact
ASxxxx Linker V03.00/V05.40 + sdld,  page 100.
Hexadecimal  [32-Bits]

Area                                    Addr        Size        Decimal Bytes (Attributes)
--------------------------------        ----        ----        ------- ----- ------------
_CODE_60                            003C4000    00004000 =       16384. bytes (REL,CON)

      Value  Global                              Global Defined In Module
      -----  --------------------------------   ------------------------
     003C5456  GBVM_END$actor_59_interact$11e25   actor_59_interact
     003C5456  GBVM_END$actor_59_interact$ebe47   actor_59_interact
     003C5457  _actor_6_interact                  actor_6_interact
     003C545A  GBVM$actor_6_interact$525ccfb9_0   actor_6_interact
     003C5485  GBVM$actor_6_interact$73f2a9b7_5   actor_6_interact
     003C5497  GBVM$actor_6_interact$9db8e2d0_c   actor_6_interact
     003C54A3  GBVM$actor_6_interact$d08347d5_1   actor_6_interact
     003C54B5  GBVM$actor_6_interact$724ff86c_4   actor_6_interact
     003C54C1  GBVM$actor_6_interact$6fa36a65_4   actor_6_interact
     003C54C8  GBVM$actor_6_interact$92ce1e44_5   actor_6_interact
     003C550E  GBVM$actor_6_interact$a392c3e7_4   actor_6_interact
     003C550E  GBVM_END$actor_6_interact$d08347   actor_6_interact
     003C5519  GBVM$actor_6_interact$cb52da56_f   actor_6_interact
     003C5521  GBVM$actor_6_interact$08068641_1   actor_6_interact
     003C5521  GBVM$actor_6_interact$4850c5fc_d   actor_6_interact
     003C5521  GBVM_END$actor_6_interact$73f2a9   actor_6_interact
     003C5526  GBVM$actor_6_interact$18629222_3   actor_6_interact
     003C552D  GBVM$actor_6_interact$4c5f183f_6   actor_6_interact
     003C5531  GBVM$actor_6_interact$cb7414f4_2   actor_6_interact
     003C5540  GBVM$actor_6_interact$bb524df1_2   actor_6_interact
     003C5548  GBVM_END$actor_6_interact$080686   actor_6_interact
     003C5548  GBVM_END$actor_6_interact$bb524d   actor_6_interact
     003C5549  _actor_60_interact                 actor_60_interact
     003C554C  GBVM$actor_60_interact$637ecd0a_   actor_60_interact
     003C5577  GBVM$actor_60_interact$ad34e6fd_   actor_60_interact
     003C5589  GBVM$actor_60_interact$3deff222_   actor_60_interact
     003C5595  GBVM$actor_60_interact$be8cad6e_   actor_60_interact
     003C55A7  GBVM$actor_60_interact$fae95200_   actor_60_interact
     003C55B3  GBVM$actor_60_interact$e0680948_   actor_60_interact
     003C55BA  GBVM$actor_60_interact$6c937618_   actor_60_interact
     003C5600  GBVM$actor_60_interact$0fae0d43_   actor_60_interact
     003C5600  GBVM_END$actor_60_interact$be8ca   actor_60_interact
     003C560B  GBVM$actor_60_interact$9b5109b1_   actor_60_interact
     003C5613  GBVM$actor_60_interact$757e78f5_   actor_60_interact
     003C5613  GBVM$actor_60_interact$e46384ef_   actor_60_interact
     003C5613  GBVM_END$actor_60_interact$ad34e   actor_60_interact
     003C5618  GBVM$actor_60_interact$6fdf24c2_   actor_60_interact
     003C561F  GBVM$actor_60_interact$13611ef0_   actor_60_interact
     003C5623  GBVM$actor_60_interact$5e11cb56_   actor_60_interact
     003C5632  GBVM$actor_60_interact$45c90e75_   actor_60_interact
     003C563A  GBVM_END$actor_60_interact$45c90   actor_60_interact
     003C563A  GBVM_END$actor_60_interact$757e7   actor_60_interact
     003C563B  _actor_61_interact                 actor_61_interact
     003C563E  GBVM$actor_61_interact$9100c939_   actor_61_interact
     003C5669  GBVM$actor_61_interact$e1bb06c8_   actor_61_interact
     003C567B  GBVM$actor_61_interact$26847eed_   actor_61_interact
     003C5687  GBVM$actor_61_interact$3ac58303_   actor_61_interact
     003C5699  GBVM$actor_61_interact$de14866b_   actor_61_interact
     003C56A5  GBVM$actor_61_interact$039f2ce9_   actor_61_interact
     003C56AC  GBVM$actor_61_interact$11cc67e1_   actor_61_interact
     003C56F2  GBVM$actor_61_interact$f2805f5b_   actor_61_interact
ASxxxx Linker V03.00/V05.40 + sdld,  page 101.
Hexadecimal  [32-Bits]

Area                                    Addr        Size        Decimal Bytes (Attributes)
--------------------------------        ----        ----        ------- ----- ------------
_CODE_60                            003C4000    00004000 =       16384. bytes (REL,CON)

      Value  Global                              Global Defined In Module
      -----  --------------------------------   ------------------------
     003C56F2  GBVM_END$actor_61_interact$3ac58   actor_61_interact
     003C56FD  GBVM$actor_61_interact$49cc4826_   actor_61_interact
     003C5705  GBVM$actor_61_interact$6ee635ab_   actor_61_interact
     003C5705  GBVM$actor_61_interact$ca82d1e4_   actor_61_interact
     003C5705  GBVM_END$actor_61_interact$e1bb0   actor_61_interact
     003C570A  GBVM$actor_61_interact$a00bc36b_   actor_61_interact
     003C5711  GBVM$actor_61_interact$85fd0cb5_   actor_61_interact
     003C5715  GBVM$actor_61_interact$75e095a4_   actor_61_interact
     003C5724  GBVM$actor_61_interact$957ea39c_   actor_61_interact
     003C572C  GBVM_END$actor_61_interact$957ea   actor_61_interact
     003C572C  GBVM_END$actor_61_interact$ca82d   actor_61_interact
     003C572D  _actor_62_update                   actor_62_update
     003C572F  GBVM$actor_62_update$0215c9be_08   actor_62_update
     003C5738  GBVM$actor_62_update$309d0ebb_0f   actor_62_update
     003C5748  GBVM$actor_62_update$b538b665_25   actor_62_update
     003C5754  GBVM$actor_62_update$e1035e6f_f3   actor_62_update
     003C575D  GBVM$actor_62_update$1109cfd1_64   actor_62_update
     003C5771  GBVM$actor_62_update$abd0acba_5d   actor_62_update
     003C5794  GBVM$actor_62_update$94e317de_a5   actor_62_update
     003C57B7  GBVM$actor_62_update$78736a28_13   actor_62_update
     003C57DA  GBVM_END$actor_62_update$1109cfd   actor_62_update
     003C57DD  GBVM$actor_62_update$e10d060f_f8   actor_62_update
     003C57FD  GBVM_END$actor_62_update$e1035e6   actor_62_update
     003C5800  GBVM_END$actor_62_update$0215c9b   actor_62_update
     003C5805  _actor_7_interact                  actor_7_interact
     003C5808  GBVM$actor_7_interact$d02cf3ab_f   actor_7_interact
     003C5833  GBVM$actor_7_interact$9af8be19_0   actor_7_interact
     003C5845  GBVM$actor_7_interact$2a1eedf5_d   actor_7_interact
     003C5851  GBVM$actor_7_interact$5665f140_3   actor_7_interact
     003C5863  GBVM$actor_7_interact$29bbce90_c   actor_7_interact
     003C586F  GBVM$actor_7_interact$09c0a146_3   actor_7_interact
     003C5876  GBVM$actor_7_interact$9f9e9d0f_e   actor_7_interact
     003C58BC  GBVM$actor_7_interact$a11cf4f3_e   actor_7_interact
     003C58BC  GBVM_END$actor_7_interact$5665f1   actor_7_interact
     003C58C7  GBVM$actor_7_interact$2ea074ad_1   actor_7_interact
     003C58CF  GBVM$actor_7_interact$18a21b4d_7   actor_7_interact
     003C58CF  GBVM$actor_7_interact$ca7b1260_d   actor_7_interact
     003C58CF  GBVM_END$actor_7_interact$9af8be   actor_7_interact
     003C58D4  GBVM$actor_7_interact$d91da664_7   actor_7_interact
     003C58DB  GBVM$actor_7_interact$437767bc_2   actor_7_interact
     003C58DF  GBVM$actor_7_interact$b067b20a_2   actor_7_interact
     003C58EE  GBVM$actor_7_interact$f1a771e3_7   actor_7_interact
     003C58F6  GBVM_END$actor_7_interact$ca7b12   actor_7_interact
     003C58F6  GBVM_END$actor_7_interact$f1a771   actor_7_interact
     003C58F7  _actor_8_interact                  actor_8_interact
     003C58FA  GBVM$actor_8_interact$1ddec698_b   actor_8_interact
     003C5925  GBVM$actor_8_interact$3d19e461_d   actor_8_interact
     003C5937  GBVM$actor_8_interact$1282238f_0   actor_8_interact
     003C5943  GBVM$actor_8_interact$1c86245e_1   actor_8_interact
     003C5955  GBVM$actor_8_interact$a4bf9c2a_7   actor_8_interact
     003C5961  GBVM$actor_8_interact$b3e5d65d_1   actor_8_interact
ASxxxx Linker V03.00/V05.40 + sdld,  page 102.
Hexadecimal  [32-Bits]

Area                                    Addr        Size        Decimal Bytes (Attributes)
--------------------------------        ----        ----        ------- ----- ------------
_CODE_60                            003C4000    00004000 =       16384. bytes (REL,CON)

      Value  Global                              Global Defined In Module
      -----  --------------------------------   ------------------------
     003C5968  GBVM$actor_8_interact$b7f02daa_a   actor_8_interact
     003C59AE  GBVM$actor_8_interact$eca4538d_f   actor_8_interact
     003C59AE  GBVM_END$actor_8_interact$1c8624   actor_8_interact
     003C59B9  GBVM$actor_8_interact$a8cf80b1_1   actor_8_interact
     003C59C1  GBVM$actor_8_interact$121f8dd4_5   actor_8_interact
     003C59C1  GBVM$actor_8_interact$34869101_d   actor_8_interact
     003C59C1  GBVM_END$actor_8_interact$3d19e4   actor_8_interact
     003C59C6  GBVM$actor_8_interact$9a42fd3d_c   actor_8_interact
     003C59CD  GBVM$actor_8_interact$1b6d2e53_4   actor_8_interact
     003C59D1  GBVM$actor_8_interact$c6f86c78_1   actor_8_interact
     003C59E0  GBVM$actor_8_interact$35ec7e28_9   actor_8_interact
     003C59E8  GBVM_END$actor_8_interact$121f8d   actor_8_interact
     003C59E8  GBVM_END$actor_8_interact$35ec7e   actor_8_interact
     003C59E9  ___func_bg_warning_tilemap_attr    bg_warning_tilemap_attr
     003C59E9  _bg_warning_tilemap_attr           bg_warning_tilemap_attr
     003C5B51  ___func_bg_warning_tilemap         bg_warning_tilemap
     003C5B51  _bg_warning_tilemap                bg_warning_tilemap
     003C5CB9  ___func_scene_1_collisions         scene_1_collisions
     003C5CB9  _scene_1_collisions                scene_1_collisions
     003C5E21  ___func_scene_2_collisions         scene_2_collisions
     003C5E21  _scene_2_collisions                scene_2_collisions
     003C5F89  _scene_26_init                     scene_26_init
     003C5F8C  GBVM$scene_26_init$572657e2_93e6   scene_26_init
     003C5F91  GBVM$scene_26_init$f9d4334f_9bf8   scene_26_init
     003C5F96  GBVM$scene_26_init$015fc4b6_d06c   scene_26_init
     003C5F96  GBVM$scene_26_init$ca2b830f_8bd3   scene_26_init
     003C5F9B  GBVM$scene_26_init$1e0b6a68_b9f9   scene_26_init
     003C5FA2  GBVM$scene_26_init$autofade$5897   scene_26_init
     003C5FA2  GBVM_END$scene_26_init$015fc4b6_   scene_26_init
     003C5FAD  GBVM$scene_26_init$7a2ffdaa_3dfa   scene_26_init
     003C5FBF  GBVM$scene_26_init$892c310b_1cdf   scene_26_init
     003C5FCA  GBVM$scene_26_init$879942cb_e3a6   scene_26_init
     003C6071  GBVM$scene_26_init$0e621c09_8bbb   scene_26_init
     003C6080  GBVM$scene_26_init$66c8ddda_447a   scene_26_init
     003C6080  GBVM$scene_26_init$fe85f5d8_384b   scene_26_init
     003C6080  GBVM_END$scene_26_init$7a2ffdaa_   scene_26_init
     003C6085  GBVM$scene_26_init$6ff8429e_4cf6   scene_26_init
     003C608C  GBVM$scene_26_init$5961c1cd_6a96   scene_26_init
     003C6090  GBVM$scene_26_init$77c98ee6_5aa5   scene_26_init
     003C609F  GBVM$scene_26_init$afaefb9c_89bb   scene_26_init
     003C60A7  GBVM_END$scene_26_init$66c8ddda_   scene_26_init
     003C60A7  GBVM_END$scene_26_init$afaefb9c_   scene_26_init
     003C60A8  ___func_scene_3_collisions         scene_3_collisions
     003C60A8  _scene_3_collisions                scene_3_collisions
     003C6210  ___func_scene_4_collisions         scene_4_collisions
     003C6210  _scene_4_collisions                scene_4_collisions
     003C6378  ___func_scene_40_actors            scene_40_actors
     003C6378  _scene_40_actors                   scene_40_actors
     003C647C  ___func_scene_48_collisions        scene_48_collisions
     003C647C  _scene_48_collisions               scene_48_collisions
     003C65E4  ___func_scene_5_collisions         scene_5_collisions
ASxxxx Linker V03.00/V05.40 + sdld,  page 103.
Hexadecimal  [32-Bits]

Area                                    Addr        Size        Decimal Bytes (Attributes)
--------------------------------        ----        ----        ------- ----- ------------
_CODE_60                            003C4000    00004000 =       16384. bytes (REL,CON)

      Value  Global                              Global Defined In Module
      -----  --------------------------------   ------------------------
     003C65E4  _scene_5_collisions                scene_5_collisions
     003C674C  ___func_scene_54_actors            scene_54_actors
     003C674C  _scene_54_actors                   scene_54_actors
     003C67E8  ___func_scene_56_collisions        scene_56_collisions
     003C67E8  _scene_56_collisions               scene_56_collisions
     003C6950  ___func_scene_57_collisions        scene_57_collisions
     003C6950  _scene_57_collisions               scene_57_collisions
     003C6AB8  ___func_scene_58_collisions        scene_58_collisions
     003C6AB8  _scene_58_collisions               scene_58_collisions
     003C6C20  ___func_scene_59_collisions        scene_59_collisions
     003C6C20  _scene_59_collisions               scene_59_collisions
     003C6D88  ___func_scene_6_collisions         scene_6_collisions
     003C6D88  _scene_6_collisions                scene_6_collisions
     003C6EF0  ___func_scene_7_collisions         scene_7_collisions
     003C6EF0  _scene_7_collisions                scene_7_collisions
     003C7058  _script_16                         script_16
     003C705A  GBVM$script_16$edab4218_4ca4_4d4   script_16
     003C706D  GBVM$script_16$b0594cce_2d51_45c   script_16
     003C7080  GBVM$script_16$f9a5b3f6_cb4c_4d0   script_16
     003C7093  GBVM$script_16$c0852453_afcc_483   script_16
     003C7098  GBVM$script_16$dfbc7d83_6635_421   script_16
     003C70B8  GBVM$script_16$7bd58d1c_82cb_4ba   script_16
     003C70BD  GBVM$script_16$b89888c1_ceb4_435   script_16
     003C70C5  GBVM$script_16$a2d389ec_1d0d_46e   script_16
     003C70DD  GBVM$script_16$264bf0a6_cfc8_46c   script_16
     003C70F5  GBVM$script_16$91cc3763_4535_4ea   script_16
     003C710D  GBVM_END$script_16$f9a5b3f6_cb4c   script_16
     003C7110  GBVM$script_16$8fd45c32_df5c_47e   script_16
     003C7128  GBVM$script_16$18700936_e71e_49e   script_16
     003C7140  GBVM$script_16$8489ab9a_923b_4c8   script_16
     003C7158  GBVM_END$script_16$b0594cce_2d51   script_16
     003C715B  GBVM$script_16$06fb75f6_6084_466   script_16
     003C7173  GBVM$script_16$4ce0fc32_d615_494   script_16
     003C718B  GBVM$script_16$c08a9169_9893_493   script_16
     003C71A3  GBVM_END$script_16$edab4218_4ca4   script_16
     003C71A7  GBVM$script_17$e2af9dfd_5b61_4c3   script_17
     003C71A7  _script_17                         script_17
     003C71B0  GBVM$script_17$639988b7_c4a6_444   script_17
     003C71CD  GBVM$script_17$e7fc6e88_5068_4b2   script_17
     003C71D2  GBVM$script_17$338d54b4_17a2_4aa   script_17
     003C71D7  GBVM$script_17$67a2ea3f_ffe1_4ab   script_17
     003C71DC  GBVM$script_17$97867716_8859_4df   script_17
     003C71E1  GBVM$script_17$1c56eb94_f821_439   script_17
     003C71E6  GBVM$script_17$7969331a_53d0_4b9   script_17
     003C71EB  GBVM$script_17$126980b5_6f88_4a7   script_17
     003C71F0  GBVM$script_17$807a4a5b_6089_460   script_17
     003C71F0  GBVM_END$script_17$639988b7_c4a6   script_17
     003C723B  GBVM$script_17$badb0521_82fc_405   script_17
     003C7242  GBVM$script_17$aa12795b_3a57_4ca   script_17
     003C7249  GBVM$script_17$3a903be3_59bd_4bd   script_17
     003C7250  GBVM$script_17$a5309133_cb2a_474   script_17
ASxxxx Linker V03.00/V05.40 + sdld,  page 104.
Hexadecimal  [32-Bits]

Area                                    Addr        Size        Decimal Bytes (Attributes)
--------------------------------        ----        ----        ------- ----- ------------
_CODE_60                            003C4000    00004000 =       16384. bytes (REL,CON)

      Value  Global                              Global Defined In Module
      -----  --------------------------------   ------------------------
     003C7257  GBVM$script_17$f95acac8_2159_49d   script_17
     003C725E  GBVM$script_17$e88cf050_dcb4_457   script_17
     003C7265  GBVM$script_17$f478af07_f351_4d8   script_17
     003C726C  GBVM$script_17$d17e1879_0a2b_46a   script_17
     003C7273  GBVM$script_17$92686309_268f_4a7   script_17
     003C727A  GBVM$script_17$9954383f_8ae5_4e6   script_17
     003C7281  GBVM$script_17$fd7a0d1e_8ba7_4d7   script_17
     003C7288  GBVM$script_17$658aef22_ff2a_45d   script_17
     003C728F  GBVM$script_17$1729482b_2569_470   script_17
     003C7296  GBVM$script_17$bde264b4_5b95_419   script_17
     003C729D  GBVM$script_17$5e3753a4_be72_4d5   script_17
     003C72A4  GBVM$script_17$01aab8f5_85e3_488   script_17
     003C72AB  GBVM_END$script_17$807a4a5b_6089   script_17
     003C72AE  GBVM$script_17$a16d03d3_93f3_4d2   script_17
     003C72AF  GBVM_END$script_17$e2af9dfd_5b61   script_17
     003C72B1  _script_input_23                   script_input_23
     003C72B3  GBVM$script_input_23$683abd48_de   script_input_23
     003C72BE  GBVM$script_input_23$b839a459_a3   script_input_23
     003C73D8  GBVM$script_input_23$09364238_14   script_input_23
     003C73D8  GBVM$script_input_23$bb415971_23   script_input_23
     003C73DD  GBVM$script_input_23$abfdd3fc_bb   script_input_23
     003C73E4  GBVM$script_input_23$1a2077bc_f2   script_input_23
     003C73E8  GBVM$script_input_23$401d110a_81   script_input_23
     003C73F7  GBVM$script_input_23$bab7c53e_ba   script_input_23
     003C73FF  GBVM_END$script_input_23$bab7c53   script_input_23
     003C73FF  GBVM_END$script_input_23$bb41597   script_input_23
     003C7400  _script_input_32                   script_input_32
     003C7402  GBVM$script_input_32$b9a509a9_23   script_input_32
     003C740D  GBVM$script_input_32$dd778bbf_9b   script_input_32
     003C74AF  GBVM$script_input_32$47adc41f_5a   script_input_32
     003C74BB  GBVM$script_input_32$6d4d8457_30   script_input_32
     003C74BB  GBVM$script_input_32$d5b9f282_82   script_input_32
     003C74C0  GBVM$script_input_32$a744678c_9b   script_input_32
     003C74C7  GBVM$script_input_32$3e787548_d8   script_input_32
     003C74CB  GBVM$script_input_32$1f2d7827_8a   script_input_32
     003C74DA  GBVM$script_input_32$ff56ea71_e0   script_input_32
     003C74E2  GBVM_END$script_input_32$d5b9f28   script_input_32
     003C74E2  GBVM_END$script_input_32$ff56ea7   script_input_32
     003C74E3  ___func_sprite_ember_dragon_copy   sprite_ember_dragon_copy
     003C74E3  _sprite_ember_dragon_copy_metasp   sprite_ember_dragon_copy
     003C74FB  _sprite_ember_dragon_copy_metasp   sprite_ember_dragon_copy
     003C7513  _sprite_ember_dragon_copy_metasp   sprite_ember_dragon_copy
     003C752B  _sprite_ember_dragon_copy_metasp   sprite_ember_dragon_copy
     003C7543  _sprite_ember_dragon_copy_metasp   sprite_ember_dragon_copy
     003C755B  _sprite_ember_dragon_copy_metasp   sprite_ember_dragon_copy
     003C7573  _sprite_ember_dragon_copy_metasp   sprite_ember_dragon_copy
     003C7587  _sprite_ember_dragon_copy_metasp   sprite_ember_dragon_copy
     003C759B  _sprite_ember_dragon_copy_metasp   sprite_ember_dragon_copy
     003C75AF  _sprite_ember_dragon_copy_metasp   sprite_ember_dragon_copy
     003C75C7  _sprite_ember_dragon_copy_metasp   sprite_ember_dragon_copy
     003C75DF  _sprite_ember_dragon_copy_metasp   sprite_ember_dragon_copy
ASxxxx Linker V03.00/V05.40 + sdld,  page 105.
Hexadecimal  [32-Bits]

Area                                    Addr        Size        Decimal Bytes (Attributes)
--------------------------------        ----        ----        ------- ----- ------------
_CODE_60                            003C4000    00004000 =       16384. bytes (REL,CON)

      Value  Global                              Global Defined In Module
      -----  --------------------------------   ------------------------
     003C75FF  _sprite_ember_dragon_copy_animat   sprite_ember_dragon_copy
     003C760F  _sprite_ember_dragon_copy_animat   sprite_ember_dragon_copy
     003C7611  _sprite_ember_dragon_copy          sprite_ember_dragon_copy
     003C7624  ___func_sprite_ember_phoenix_cop   sprite_ember_phoenix_copy_ti
     003C7624  _sprite_ember_phoenix_copy_tiles   sprite_ember_phoenix_copy_ti
     003C7706  ___func_sprite_ember_phoenix_top   sprite_ember_phoenix_topdow
     003C7706  _sprite_ember_phoenix_topdow_met   sprite_ember_phoenix_topdow
     003C770A  _sprite_ember_phoenix_topdow_met   sprite_ember_phoenix_topdow
     003C7726  _sprite_ember_phoenix_topdow_met   sprite_ember_phoenix_topdow
     003C773E  _sprite_ember_phoenix_topdow_met   sprite_ember_phoenix_topdow
     003C775A  _sprite_ember_phoenix_topdow_met   sprite_ember_phoenix_topdow
     003C7776  _sprite_ember_phoenix_topdow_met   sprite_ember_phoenix_topdow
     003C7792  _sprite_ember_phoenix_topdow_met   sprite_ember_phoenix_topdow
     003C77AA  _sprite_ember_phoenix_topdow_met   sprite_ember_phoenix_topdow
     003C77C2  _sprite_ember_phoenix_topdow_met   sprite_ember_phoenix_topdow
     003C77DA  _sprite_ember_phoenix_topdow_met   sprite_ember_phoenix_topdow
     003C77F6  _sprite_ember_phoenix_topdow_met   sprite_ember_phoenix_topdow
     003C7812  _sprite_ember_phoenix_topdow_met   sprite_ember_phoenix_topdow
     003C782E  _sprite_ember_phoenix_topdow_ani   sprite_ember_phoenix_topdow
     003C783E  _sprite_ember_phoenix_topdow_ani   sprite_ember_phoenix_topdow
     003C7840  _sprite_ember_phoenix_topdow       sprite_ember_phoenix_topdow
     003C7853  ___func_sprite_flare_static_tile   sprite_flare_static_tileset
     003C7853  _sprite_flare_static_tileset       sprite_flare_static_tileset
     003C7935  ___func_sprite_number_ui_bank2_t   sprite_number_ui_bank2_tiles
     003C7935  _sprite_number_ui_bank2_tileset    sprite_number_ui_bank2_tiles
     003C7A37  ___func_sprite_number_ui_tileset   sprite_number_ui_tileset
     003C7A37  _sprite_number_ui_tileset          sprite_number_ui_tileset
     003C7B39  ___func_sprite_perlite_animated_   sprite_perlite_animated_tile
     003C7B39  _sprite_perlite_animated_tileset   sprite_perlite_animated_tile
     003C7C1B  ___func_sprite_sly_slimeball_cop   sprite_sly_slimeball_copy
     003C7C1B  _sprite_sly_slimeball_copy_metas   sprite_sly_slimeball_copy
     003C7C3F  _sprite_sly_slimeball_copy_metas   sprite_sly_slimeball_copy
     003C7C63  _sprite_sly_slimeball_copy_metas   sprite_sly_slimeball_copy
     003C7C87  _sprite_sly_slimeball_copy_metas   sprite_sly_slimeball_copy
     003C7CAB  _sprite_sly_slimeball_copy_metas   sprite_sly_slimeball_copy
     003C7CCF  _sprite_sly_slimeball_copy_metas   sprite_sly_slimeball_copy
     003C7CF3  _sprite_sly_slimeball_copy_metas   sprite_sly_slimeball_copy
     003C7CFF  _sprite_sly_slimeball_copy_anima   sprite_sly_slimeball_copy
     003C7D0F  _sprite_sly_slimeball_copy_anima   sprite_sly_slimeball_copy
     003C7D11  _sprite_sly_slimeball_copy         sprite_sly_slimeball_copy
     003C7D24  ___func_sprite_speed_selection_b   sprite_speed_selection_bank2
     003C7D24  _sprite_speed_selection_bank2_ti   sprite_speed_selection_bank2
     003C7E26  ___func_sprite_speed_selection_t   sprite_speed_selection_tiles
     003C7E26  _sprite_speed_selection_tileset    sprite_speed_selection_tiles
     003C7F28  _trigger_104_interact              trigger_104_interact
     003C7F2B  GBVM$trigger_104_interact$cacd60   trigger_104_interact
     003C7F3D  GBVM$trigger_104_interact$d5d46b   trigger_104_interact
     003C7F48  GBVM$trigger_104_interact$8b27fc   trigger_104_interact
     003C7FC2  GBVM$trigger_104_interact$cf5d15   trigger_104_interact
     003C7FCE  GBVM$trigger_104_interact$e5ff56   trigger_104_interact
     003C7FD8  GBVM$trigger_104_interact$4b7847   trigger_104_interact
ASxxxx Linker V03.00/V05.40 + sdld,  page 106.
Hexadecimal  [32-Bits]

Area                                    Addr        Size        Decimal Bytes (Attributes)
--------------------------------        ----        ----        ------- ----- ------------
_CODE_60                            003C4000    00004000 =       16384. bytes (REL,CON)

      Value  Global                              Global Defined In Module
      -----  --------------------------------   ------------------------
     003C7FD8  GBVM$trigger_104_interact$edae23   trigger_104_interact
     003C7FD8  GBVM_END$trigger_104_interact$ca   trigger_104_interact
     003C7FDD  GBVM$trigger_104_interact$a0272b   trigger_104_interact
     003C7FE4  GBVM$trigger_104_interact$662dbe   trigger_104_interact
     003C7FE8  GBVM$trigger_104_interact$e37d6e   trigger_104_interact
     003C7FF7  GBVM$trigger_104_interact$1d73cd   trigger_104_interact
     003C7FFF  GBVM_END$trigger_104_interact$1d   trigger_104_interact
     003C7FFF  GBVM_END$trigger_104_interact$4b   trigger_104_interact

ASxxxx Linker V03.00/V05.40 + sdld,  page 107.
Hexadecimal  [32-Bits]

Area                                    Addr        Size        Decimal Bytes (Attributes)
--------------------------------        ----        ----        ------- ----- ------------
_CODE_62                            003E4000    00003FFF =       16383. bytes (REL,CON)

      Value  Global                              Global Defined In Module
      -----  --------------------------------   ------------------------
     003E4000  _input_init                        input
     003E4026  _palette_init                      palette
     003E405D  _CGBZeroPalette                    palette
     003E4072  _scroll_rect                       
     003E40AF  _SIO_init                          sio
     003E40D8  _actor_1_update                    actor_1_update
     003E40DA  GBVM$actor_1_update$c1bb5a1a_127   actor_1_update
     003E40DF  GBVM$actor_1_update$8729d8a3_ed5   actor_1_update
     003E40EB  GBVM$actor_1_update$3706f708_4e5   actor_1_update
     003E4100  _actor_14_interact                 actor_14_interact
     003E4101  GBVM$actor_14_interact$51620142_   actor_14_interact
     003E4106  _actor_63_interact                 actor_63_interact
     003E4107  GBVM$actor_63_interact$abfcd4fa_   actor_63_interact
     003E410C  GBVM$actor_63_interact$40fbdcbe_   actor_63_interact
     003E4150  GBVM$actor_63_interact$652ae3e1_   actor_63_interact
     003E4156  _actor_9_update                    actor_9_update
     003E4158  GBVM$actor_9_update$ee6e1374_50a   actor_9_update
     003E4164  GBVM$actor_9_update$f646d0e9_78b   actor_9_update
     003E4179  ___func_emote_anger                emote_anger
     003E4179  _emote_anger                       emote_anger
     003E41B9  ___func_emote_love                 emote_love
     003E41B9  _emote_love                        emote_love
     003E41F9  ___func_emote_pause                emote_pause
     003E41F9  _emote_pause                       emote_pause
     003E4239  ___func_emote_question             emote_question
     003E4239  _emote_question                    emote_question
     003E4279  ___func_emote_shock                emote_shock
     003E4279  _emote_shock                       emote_shock
     003E42B9  ___func_emote_sweat                emote_sweat
     003E42B9  _emote_sweat                       emote_sweat
     003E42F9  ___func_palette_0                  palette_0
     003E42F9  _palette_0                         palette_0
     003E433C  ___func_palette_1                  palette_1
     003E433C  _palette_1                         palette_1
     003E437F  ___func_palette_10                 palette_10
     003E437F  _palette_10                        palette_10
     003E43C2  ___func_palette_11                 palette_11
     003E43C2  _palette_11                        palette_11
     003E4405  ___func_palette_12                 palette_12
     003E4405  _palette_12                        palette_12
     003E4448  ___func_palette_13                 palette_13
     003E4448  _palette_13                        palette_13
     003E448B  ___func_palette_2                  palette_2
     003E448B  _palette_2                         palette_2
     003E44CE  ___func_palette_3                  palette_3
     003E44CE  _palette_3                         palette_3
     003E4511  ___func_palette_4                  palette_4
     003E4511  _palette_4                         palette_4
     003E4554  ___func_palette_5                  palette_5
     003E4554  _palette_5                         palette_5
ASxxxx Linker V03.00/V05.40 + sdld,  page 108.
Hexadecimal  [32-Bits]

Area                                    Addr        Size        Decimal Bytes (Attributes)
--------------------------------        ----        ----        ------- ----- ------------
_CODE_62                            003E4000    00003FFF =       16383. bytes (REL,CON)

      Value  Global                              Global Defined In Module
      -----  --------------------------------   ------------------------
     003E4597  ___func_palette_6                  palette_6
     003E4597  _palette_6                         palette_6
     003E45DA  ___func_palette_7                  palette_7
     003E45DA  _palette_7                         palette_7
     003E461D  ___func_palette_8                  palette_8
     003E461D  _palette_8                         palette_8
     003E4660  ___func_palette_9                  palette_9
     003E4660  _palette_9                         palette_9
     003E46A3  _scene_1_init                      scene_1_init
     003E46A6  GBVM$scene_1_init$autofade$3dcf1   scene_1_init
     003E46B1  GBVM$scene_1_init$bddf1eec_59fb_   scene_1_init
     003E46B5  GBVM$scene_1_init$b0cc08e0_a599_   scene_1_init
     003E46C1  GBVM$scene_1_init$552e6071_4976_   scene_1_init
     003E46CD  GBVM$scene_1_init$a7e75ee0_36ff_   scene_1_init
     003E46D1  GBVM$scene_1_init$06a348fb_e200_   scene_1_init
     003E46D6  GBVM$scene_1_init$3e5f6956_a66b_   scene_1_init
     003E46DD  GBVM$scene_1_init$4d4373f4_f30f_   scene_1_init
     003E46DD  GBVM$scene_1_init$dcd5f597_8b40_   scene_1_init
     003E46EC  GBVM$scene_1_init$bb788247_5835_   scene_1_init
     003E46F4  GBVM_END$scene_1_init$4d4373f4_f   scene_1_init
     003E46F4  GBVM_END$scene_1_init$bb788247_5   scene_1_init
     003E46F5  ___func_scene_1                    scene_1
     003E46F5  _scene_1                           scene_1
     003E4730  ___func_scene_10_actors            scene_10_actors
     003E4730  _scene_10_actors                   scene_10_actors
     003E4764  ___func_scene_10                   scene_10
     003E4764  _scene_10                          scene_10
     003E479F  ___func_scene_11                   scene_11
     003E479F  _scene_11                          scene_11
     003E47DA  ___func_scene_12_actors            scene_12_actors
     003E47DA  _scene_12_actors                   scene_12_actors
     003E480E  _scene_12_init                     scene_12_init
     003E4811  GBVM$scene_12_init$a5180193_7258   scene_12_init
     003E4826  GBVM$scene_12_init$d41711ad_167e   scene_12_init
     003E482E  GBVM$scene_12_init$autofade$529c   scene_12_init
     003E482E  GBVM_END$scene_12_init$a5180193_   scene_12_init
     003E4839  GBVM$scene_12_init$7d20a51a_381e   scene_12_init
     003E4839  GBVM$scene_12_init$b8e78f71_1bf8   scene_12_init
     003E483E  GBVM$scene_12_init$8aa01e06_8d2c   scene_12_init
     003E4845  GBVM$scene_12_init$3e4d4392_6fc5   scene_12_init
     003E4849  GBVM$scene_12_init$f804ba44_ee3e   scene_12_init
     003E4858  GBVM$scene_12_init$39f341ea_9d55   scene_12_init
     003E4860  GBVM_END$scene_12_init$39f341ea_   scene_12_init
     003E4860  GBVM_END$scene_12_init$b8e78f71_   scene_12_init
     003E4861  ___func_scene_12                   scene_12
     003E4861  _scene_12                          scene_12
     003E489C  ___func_scene_13_actors            scene_13_actors
     003E489C  _scene_13_actors                   scene_13_actors
     003E48D0  ___func_scene_13_triggers          scene_13_triggers
     003E48D0  _scene_13_triggers                 scene_13_triggers
     003E4910  ___func_scene_13                   scene_13
ASxxxx Linker V03.00/V05.40 + sdld,  page 109.
Hexadecimal  [32-Bits]

Area                                    Addr        Size        Decimal Bytes (Attributes)
--------------------------------        ----        ----        ------- ----- ------------
_CODE_62                            003E4000    00003FFF =       16383. bytes (REL,CON)

      Value  Global                              Global Defined In Module
      -----  --------------------------------   ------------------------
     003E4910  _scene_13                          scene_13
     003E494B  ___func_scene_14_actors            scene_14_actors
     003E494B  _scene_14_actors                   scene_14_actors
     003E497F  _scene_14_init                     scene_14_init
     003E4982  GBVM$scene_14_init$2b5e127a_1b17   scene_14_init
     003E4997  GBVM$scene_14_init$a75e39f8_1471   scene_14_init
     003E499F  GBVM$scene_14_init$070a1b81_22de   scene_14_init
     003E499F  GBVM_END$scene_14_init$2b5e127a_   scene_14_init
     003E49A4  GBVM$scene_14_init$91328df9_fde2   scene_14_init
     003E49AB  GBVM$scene_14_init$autofade$f3a6   scene_14_init
     003E49B6  GBVM$scene_14_init$07036a3e_28f3   scene_14_init
     003E49B6  GBVM$scene_14_init$9c71d671_f847   scene_14_init
     003E49BB  GBVM$scene_14_init$6472a6f8_07da   scene_14_init
     003E49C2  GBVM$scene_14_init$241fa771_e51e   scene_14_init
     003E49C6  GBVM$scene_14_init$12b13791_973b   scene_14_init
     003E49D5  GBVM$scene_14_init$e4aeb78b_e9fa   scene_14_init
     003E49DD  GBVM_END$scene_14_init$9c71d671_   scene_14_init
     003E49DD  GBVM_END$scene_14_init$e4aeb78b_   scene_14_init
     003E49DE  ___func_scene_14                   scene_14
     003E49DE  _scene_14                          scene_14
     003E4A19  ___func_scene_15_actors            scene_15_actors
     003E4A19  _scene_15_actors                   scene_15_actors
     003E4A4D  _scene_15_init                     scene_15_init
     003E4A50  GBVM$scene_15_init$85c36c9a_22c2   scene_15_init
     003E4A65  GBVM$scene_15_init$76c77911_cebd   scene_15_init
     003E4A6D  GBVM$scene_15_init$autofade$72ec   scene_15_init
     003E4A6D  GBVM_END$scene_15_init$85c36c9a_   scene_15_init
     003E4A78  GBVM$scene_15_init$d09bdf85_16f3   scene_15_init
     003E4A78  GBVM$scene_15_init$f8fee190_e019   scene_15_init
     003E4A7D  GBVM$scene_15_init$152ead6a_1c6b   scene_15_init
     003E4A84  GBVM$scene_15_init$2a401f01_eb3e   scene_15_init
     003E4A88  GBVM$scene_15_init$78f93ada_1b61   scene_15_init
     003E4A97  GBVM$scene_15_init$927585ad_c4c5   scene_15_init
     003E4A9F  GBVM_END$scene_15_init$927585ad_   scene_15_init
     003E4A9F  GBVM_END$scene_15_init$f8fee190_   scene_15_init
     003E4AA0  ___func_scene_15                   scene_15
     003E4AA0  _scene_15                          scene_15
     003E4ADB  ___func_scene_16_actors            scene_16_actors
     003E4ADB  _scene_16_actors                   scene_16_actors
     003E4B0F  ___func_scene_16                   scene_16
     003E4B0F  _scene_16                          scene_16
     003E4B4A  ___func_scene_17                   scene_17
     003E4B4A  _scene_17                          scene_17
     003E4B85  ___func_scene_18                   scene_18
     003E4B85  _scene_18                          scene_18
     003E4BC0  _scene_19_init                     scene_19_init
     003E4BC1  GBVM$scene_19_init$dd6024df_8198   scene_19_init
     003E4BC6  GBVM$scene_19_init$40684ad8_60d4   scene_19_init
     003E4BC6  GBVM$scene_19_init$c1d43e80_7c24   scene_19_init
     003E4BCB  GBVM$scene_19_init$a1f560f0_f785   scene_19_init
     003E4BD2  GBVM$scene_19_init$b36cbf35_51ce   scene_19_init
ASxxxx Linker V03.00/V05.40 + sdld,  page 110.
Hexadecimal  [32-Bits]

Area                                    Addr        Size        Decimal Bytes (Attributes)
--------------------------------        ----        ----        ------- ----- ------------
_CODE_62                            003E4000    00003FFF =       16383. bytes (REL,CON)

      Value  Global                              Global Defined In Module
      -----  --------------------------------   ------------------------
     003E4BD2  GBVM_END$scene_19_init$c1d43e80_   scene_19_init
     003E4BD7  GBVM$scene_19_init$autofade$83da   scene_19_init
     003E4BE2  GBVM$scene_19_init$246fafdc_2e8d   scene_19_init
     003E4BE7  ___func_scene_19                   scene_19
     003E4BE7  _scene_19                          scene_19
     003E4C22  _scene_2_init                      scene_2_init
     003E4C23  GBVM$scene_2_init$4c71235c_9200_   scene_2_init
     003E4C27  GBVM$scene_2_init$1e750778_b250_   scene_2_init
     003E4C2C  GBVM$scene_2_init$6a4757a2_7a52_   scene_2_init
     003E4C33  GBVM$scene_2_init$f95524bc_ae92_   scene_2_init
     003E4C3B  GBVM$scene_2_init$918aeb7d_6528_   scene_2_init
     003E4C3B  GBVM_END$scene_2_init$f95524bc_a   scene_2_init
     003E4C43  GBVM$scene_2_init$autofade$91fd1   scene_2_init
     003E4C43  GBVM_END$scene_2_init$918aeb7d_6   scene_2_init
     003E4C4F  ___func_scene_2                    scene_2
     003E4C4F  _scene_2                           scene_2
     003E4C8A  ___func_scene_20                   scene_20
     003E4C8A  _scene_20                          scene_20
     003E4CC5  ___func_scene_21_actors            scene_21_actors
     003E4CC5  _scene_21_actors                   scene_21_actors
     003E4CF9  ___func_scene_21_triggers          scene_21_triggers
     003E4CF9  _scene_21_triggers                 scene_21_triggers
     003E4D29  ___func_scene_21                   scene_21
     003E4D29  _scene_21                          scene_21
     003E4D64  ___func_scene_22_actors            scene_22_actors
     003E4D64  _scene_22_actors                   scene_22_actors
     003E4D98  _scene_22_init                     scene_22_init
     003E4D9B  GBVM$scene_22_init$687e2a4d_0565   scene_22_init
     003E4DB0  GBVM$scene_22_init$d9e24b0a_f3a8   scene_22_init
     003E4DB8  GBVM$scene_22_init$autofade$6d45   scene_22_init
     003E4DB8  GBVM_END$scene_22_init$687e2a4d_   scene_22_init
     003E4DC3  GBVM$scene_22_init$00adda95_a090   scene_22_init
     003E4DC3  GBVM$scene_22_init$557e93ac_c071   scene_22_init
     003E4DC8  GBVM$scene_22_init$73053a40_1295   scene_22_init
     003E4DCF  GBVM$scene_22_init$bcc884fb_f20e   scene_22_init
     003E4DD3  GBVM$scene_22_init$392eb759_f0e9   scene_22_init
     003E4DE2  GBVM$scene_22_init$d9b2b2e3_8452   scene_22_init
     003E4DEA  GBVM_END$scene_22_init$00adda95_   scene_22_init
     003E4DEA  GBVM_END$scene_22_init$d9b2b2e3_   scene_22_init
     003E4DEB  ___func_scene_22                   scene_22
     003E4DEB  _scene_22                          scene_22
     003E4E26  ___func_scene_23_actors            scene_23_actors
     003E4E26  _scene_23_actors                   scene_23_actors
     003E4E5A  ___func_scene_23_triggers          scene_23_triggers
     003E4E5A  _scene_23_triggers                 scene_23_triggers
     003E4E92  ___func_scene_23                   scene_23
     003E4E92  _scene_23                          scene_23
     003E4ECD  ___func_scene_24_actors            scene_24_actors
     003E4ECD  _scene_24_actors                   scene_24_actors
     003E4F01  _scene_24_init                     scene_24_init
     003E4F04  GBVM$scene_24_init$782686cb_3d1b   scene_24_init
ASxxxx Linker V03.00/V05.40 + sdld,  page 111.
Hexadecimal  [32-Bits]

Area                                    Addr        Size        Decimal Bytes (Attributes)
--------------------------------        ----        ----        ------- ----- ------------
_CODE_62                            003E4000    00003FFF =       16383. bytes (REL,CON)

      Value  Global                              Global Defined In Module
      -----  --------------------------------   ------------------------
     003E4F19  GBVM$scene_24_init$adaafb5d_b776   scene_24_init
     003E4F21  GBVM$scene_24_init$autofade$fcd2   scene_24_init
     003E4F21  GBVM_END$scene_24_init$782686cb_   scene_24_init
     003E4F2C  GBVM$scene_24_init$1ee7fe4b_344e   scene_24_init
     003E4F2C  GBVM$scene_24_init$52e95252_6e44   scene_24_init
     003E4F31  GBVM$scene_24_init$5bf64760_8393   scene_24_init
     003E4F38  GBVM$scene_24_init$51feecf9_30d6   scene_24_init
     003E4F3C  GBVM$scene_24_init$d7a07dc6_21d7   scene_24_init
     003E4F4B  GBVM$scene_24_init$0f8fef3b_4d7f   scene_24_init
     003E4F53  GBVM_END$scene_24_init$0f8fef3b_   scene_24_init
     003E4F53  GBVM_END$scene_24_init$52e95252_   scene_24_init
     003E4F54  ___func_scene_24_triggers          scene_24_triggers
     003E4F54  _scene_24_triggers                 scene_24_triggers
     003E4F7C  ___func_scene_24                   scene_24
     003E4F7C  _scene_24                          scene_24
     003E4FB7  ___func_scene_25_actors            scene_25_actors
     003E4FB7  _scene_25_actors                   scene_25_actors
     003E4FEB  _scene_25_init                     scene_25_init
     003E4FEE  GBVM$scene_25_init$d07b3a4d_1ba8   scene_25_init
     003E5003  GBVM$scene_25_init$42684550_4c8a   scene_25_init
     003E500B  GBVM$scene_25_init$b07e49af_d718   scene_25_init
     003E500B  GBVM$scene_25_init$faaff7b0_7a63   scene_25_init
     003E500B  GBVM_END$scene_25_init$d07b3a4d_   scene_25_init
     003E5010  GBVM$scene_25_init$c05a784a_9281   scene_25_init
     003E5017  GBVM$scene_25_init$autofade$6eb8   scene_25_init
     003E5017  GBVM_END$scene_25_init$faaff7b0_   scene_25_init
     003E5022  GBVM$scene_25_init$29f6ead7_a653   scene_25_init
     003E5022  GBVM$scene_25_init$3ca39835_0623   scene_25_init
     003E5027  GBVM$scene_25_init$796827ff_85fa   scene_25_init
     003E502E  GBVM$scene_25_init$bdb6dd4d_2e84   scene_25_init
     003E5032  GBVM$scene_25_init$02e2b582_44b6   scene_25_init
     003E5041  GBVM$scene_25_init$2cbb929e_4070   scene_25_init
     003E5049  GBVM_END$scene_25_init$2cbb929e_   scene_25_init
     003E5049  GBVM_END$scene_25_init$3ca39835_   scene_25_init
     003E504A  ___func_scene_25_triggers          scene_25_triggers
     003E504A  _scene_25_triggers                 scene_25_triggers
     003E509A  ___func_scene_25                   scene_25
     003E509A  _scene_25                          scene_25
     003E50D5  ___func_scene_26                   scene_26
     003E50D5  _scene_26                          scene_26
     003E5110  _scene_27_init                     scene_27_init
     003E5113  GBVM$scene_27_init$autofade$f953   scene_27_init
     003E511E  GBVM$scene_27_init$0976dfe8_567d   scene_27_init
     003E511E  GBVM$scene_27_init$ec61dbb7_3e27   scene_27_init
     003E5123  GBVM$scene_27_init$125a48b1_5d1e   scene_27_init
     003E512A  GBVM$scene_27_init$66370fda_703a   scene_27_init
     003E512E  GBVM$scene_27_init$4f2d54e2_5d6f   scene_27_init
     003E513D  GBVM$scene_27_init$6278de31_b01b   scene_27_init
     003E5145  GBVM_END$scene_27_init$6278de31_   scene_27_init
     003E5145  GBVM_END$scene_27_init$ec61dbb7_   scene_27_init
     003E5146  ___func_scene_27                   scene_27
ASxxxx Linker V03.00/V05.40 + sdld,  page 112.
Hexadecimal  [32-Bits]

Area                                    Addr        Size        Decimal Bytes (Attributes)
--------------------------------        ----        ----        ------- ----- ------------
_CODE_62                            003E4000    00003FFF =       16383. bytes (REL,CON)

      Value  Global                              Global Defined In Module
      -----  --------------------------------   ------------------------
     003E5146  _scene_27                          scene_27
     003E5181  ___func_scene_28_actors            scene_28_actors
     003E5181  _scene_28_actors                   scene_28_actors
     003E51B5  _scene_28_p_hit1                   scene_28_p_hit1
     003E51C8  GBVM$scene_28_p_hit1$8980b586_b1   scene_28_p_hit1
     003E51E5  GBVM$scene_28_p_hit1$7231ec80_9a   scene_28_p_hit1
     003E5202  GBVM$scene_28_p_hit1$196aa0fe_17   scene_28_p_hit1
     003E520F  ___func_scene_28                   scene_28
     003E520F  _scene_28                          scene_28
     003E524A  ___func_scene_29                   scene_29
     003E524A  _scene_29                          scene_29
     003E5285  _scene_3_init                      scene_3_init
     003E5286  GBVM$scene_3_init$2d5de99e_bd3c_   scene_3_init
     003E528D  GBVM$scene_3_init$53a7961e_1208_   scene_3_init
     003E5295  GBVM$scene_3_init$f619cc2f_f4b7_   scene_3_init
     003E5295  GBVM_END$scene_3_init$53a7961e_1   scene_3_init
     003E529D  GBVM$scene_3_init$autofade$91858   scene_3_init
     003E529D  GBVM_END$scene_3_init$f619cc2f_f   scene_3_init
     003E52A9  ___func_scene_3                    scene_3
     003E52A9  _scene_3                           scene_3
     003E52E4  ___func_scene_30_actors            scene_30_actors
     003E52E4  _scene_30_actors                   scene_30_actors
     003E5318  ___func_scene_30                   scene_30
     003E5318  _scene_30                          scene_30
     003E5353  ___func_scene_31_triggers          scene_31_triggers
     003E5353  _scene_31_triggers                 scene_31_triggers
     003E537B  ___func_scene_31                   scene_31
     003E537B  _scene_31                          scene_31
     003E53B6  ___func_scene_32_actors            scene_32_actors
     003E53B6  _scene_32_actors                   scene_32_actors
     003E53EA  _scene_32_init                     scene_32_init
     003E53ED  GBVM$scene_32_init$e23ea354_2a8c   scene_32_init
     003E5402  GBVM$scene_32_init$d6800cdd_00f1   scene_32_init
     003E540A  GBVM$scene_32_init$autofade$4a93   scene_32_init
     003E540A  GBVM_END$scene_32_init$e23ea354_   scene_32_init
     003E5415  GBVM$scene_32_init$3f0ef588_eb5e   scene_32_init
     003E5415  GBVM$scene_32_init$74f374db_8c03   scene_32_init
     003E541A  GBVM$scene_32_init$d85dcd07_477c   scene_32_init
     003E5421  GBVM$scene_32_init$307cc72a_6a4f   scene_32_init
     003E5425  GBVM$scene_32_init$5bc97a2c_5863   scene_32_init
     003E5434  GBVM$scene_32_init$cbc2e1a9_b80b   scene_32_init
     003E543C  GBVM_END$scene_32_init$3f0ef588_   scene_32_init
     003E543C  GBVM_END$scene_32_init$cbc2e1a9_   scene_32_init
     003E543D  ___func_scene_32_triggers          scene_32_triggers
     003E543D  _scene_32_triggers                 scene_32_triggers
     003E5495  ___func_scene_32                   scene_32
     003E5495  _scene_32                          scene_32
     003E54D0  ___func_scene_33                   scene_33
     003E54D0  _scene_33                          scene_33
     003E550B  _scene_34_init                     scene_34_init
     003E550E  GBVM$scene_34_init$autofade$1c2b   scene_34_init
ASxxxx Linker V03.00/V05.40 + sdld,  page 113.
Hexadecimal  [32-Bits]

Area                                    Addr        Size        Decimal Bytes (Attributes)
--------------------------------        ----        ----        ------- ----- ------------
_CODE_62                            003E4000    00003FFF =       16383. bytes (REL,CON)

      Value  Global                              Global Defined In Module
      -----  --------------------------------   ------------------------
     003E5519  GBVM$scene_34_init$2f05cc67_5546   scene_34_init
     003E5519  GBVM$scene_34_init$b6049f04_736b   scene_34_init
     003E551E  GBVM$scene_34_init$d5eba167_07a2   scene_34_init
     003E5525  GBVM$scene_34_init$f8dac226_f0b4   scene_34_init
     003E5529  GBVM$scene_34_init$76cd7fe3_60b0   scene_34_init
     003E5538  GBVM$scene_34_init$dcb37a72_8278   scene_34_init
     003E5540  GBVM_END$scene_34_init$b6049f04_   scene_34_init
     003E5540  GBVM_END$scene_34_init$dcb37a72_   scene_34_init
     003E5541  ___func_scene_34                   scene_34
     003E5541  _scene_34                          scene_34
     003E557C  _scene_35_init                     scene_35_init
     003E557F  GBVM$scene_35_init$9130f44f_431b   scene_35_init
     003E5587  GBVM$scene_35_init$autofade$f948   scene_35_init
     003E5587  GBVM_END$scene_35_init$9130f44f_   scene_35_init
     003E5592  GBVM$scene_35_init$1405e6fa_6e47   scene_35_init
     003E5592  GBVM$scene_35_init$a8ada030_1176   scene_35_init
     003E5597  GBVM$scene_35_init$ab86a73b_34a6   scene_35_init
     003E559E  GBVM$scene_35_init$3a15253c_eefd   scene_35_init
     003E55A2  GBVM$scene_35_init$d72b3c98_d625   scene_35_init
     003E55B1  GBVM$scene_35_init$54bd82b8_0f1a   scene_35_init
     003E55B9  GBVM_END$scene_35_init$1405e6fa_   scene_35_init
     003E55B9  GBVM_END$scene_35_init$54bd82b8_   scene_35_init
     003E55BA  ___func_scene_35_projectiles       scene_35_projectiles
     003E55BA  _scene_35_projectiles              scene_35_projectiles
     003E55E8  ___func_scene_35_triggers          scene_35_triggers
     003E55E8  _scene_35_triggers                 scene_35_triggers
     003E5638  ___func_scene_35                   scene_35
     003E5638  _scene_35                          scene_35
     003E5673  _scene_36_init                     scene_36_init
     003E5676  GBVM$scene_36_init$autofade$be05   scene_36_init
     003E5681  GBVM$scene_36_init$7ec100fc_9758   scene_36_init
     003E5681  GBVM$scene_36_init$9eed67ef_dabc   scene_36_init
     003E5686  GBVM$scene_36_init$45160520_b371   scene_36_init
     003E568D  GBVM$scene_36_init$3de04767_3705   scene_36_init
     003E5691  GBVM$scene_36_init$aa9c0a68_ed31   scene_36_init
     003E56A0  GBVM$scene_36_init$56ab91c5_ef48   scene_36_init
     003E56A8  GBVM_END$scene_36_init$56ab91c5_   scene_36_init
     003E56A8  GBVM_END$scene_36_init$7ec100fc_   scene_36_init
     003E56A9  ___func_scene_36_triggers          scene_36_triggers
     003E56A9  _scene_36_triggers                 scene_36_triggers
     003E5701  ___func_scene_36                   scene_36
     003E5701  _scene_36                          scene_36
     003E573C  _scene_37_init                     scene_37_init
     003E573F  GBVM$scene_37_init$autofade$e773   scene_37_init
     003E574A  GBVM$scene_37_init$40aa62d8_9a38   scene_37_init
     003E574A  GBVM$scene_37_init$4f15ed0a_b47e   scene_37_init
     003E574F  GBVM$scene_37_init$4000624b_6a35   scene_37_init
     003E5756  GBVM$scene_37_init$713b55b9_849f   scene_37_init
     003E575A  GBVM$scene_37_init$9c367214_cccf   scene_37_init
     003E5769  GBVM$scene_37_init$6dd44217_e24f   scene_37_init
     003E5771  GBVM_END$scene_37_init$4f15ed0a_   scene_37_init
ASxxxx Linker V03.00/V05.40 + sdld,  page 114.
Hexadecimal  [32-Bits]

Area                                    Addr        Size        Decimal Bytes (Attributes)
--------------------------------        ----        ----        ------- ----- ------------
_CODE_62                            003E4000    00003FFF =       16383. bytes (REL,CON)

      Value  Global                              Global Defined In Module
      -----  --------------------------------   ------------------------
     003E5771  GBVM_END$scene_37_init$6dd44217_   scene_37_init
     003E5772  ___func_scene_37                   scene_37
     003E5772  _scene_37                          scene_37
     003E57AD  ___func_scene_38_actors            scene_38_actors
     003E57AD  _scene_38_actors                   scene_38_actors
     003E57E1  _scene_38_init                     scene_38_init
     003E57E4  GBVM$scene_38_init$autofade$45f3   scene_38_init
     003E57EF  GBVM$scene_38_init$494ce2d4_0c12   scene_38_init
     003E57EF  GBVM$scene_38_init$b0464d11_ec56   scene_38_init
     003E57F4  GBVM$scene_38_init$6abe3643_1f97   scene_38_init
     003E57FB  GBVM$scene_38_init$0c343ee9_f95e   scene_38_init
     003E57FF  GBVM$scene_38_init$24cca59f_b0e7   scene_38_init
     003E580E  GBVM$scene_38_init$66e5fd02_d7ff   scene_38_init
     003E5816  GBVM_END$scene_38_init$494ce2d4_   scene_38_init
     003E5816  GBVM_END$scene_38_init$66e5fd02_   scene_38_init
     003E5817  ___func_scene_38                   scene_38
     003E5817  _scene_38                          scene_38
     003E5852  ___func_scene_39                   scene_39
     003E5852  _scene_39                          scene_39
     003E588D  ___func_scene_4                    scene_4
     003E588D  _scene_4                           scene_4
     003E58C8  ___func_scene_40_projectiles       scene_40_projectiles
     003E58C8  _scene_40_projectiles              scene_40_projectiles
     003E5924  ___func_scene_40                   scene_40
     003E5924  _scene_40                          scene_40
     003E595F  ___func_scene_41_actors            scene_41_actors
     003E595F  _scene_41_actors                   scene_41_actors
     003E5993  _scene_41_p_hit1                   scene_41_p_hit1
     003E59A6  GBVM$scene_41_p_hit1$9b9cb677_90   scene_41_p_hit1
     003E59C3  GBVM$scene_41_p_hit1$2a718ceb_20   scene_41_p_hit1
     003E59E0  GBVM$scene_41_p_hit1$6ffa9b69_a7   scene_41_p_hit1
     003E59ED  ___func_scene_41                   scene_41
     003E59ED  _scene_41                          scene_41
     003E5A28  ___func_scene_42_actors            scene_42_actors
     003E5A28  _scene_42_actors                   scene_42_actors
     003E5A5C  ___func_scene_42                   scene_42
     003E5A5C  _scene_42                          scene_42
     003E5A97  ___func_scene_43                   scene_43
     003E5A97  _scene_43                          scene_43
     003E5AD2  ___func_scene_44_actors            scene_44_actors
     003E5AD2  _scene_44_actors                   scene_44_actors
     003E5B06  _scene_44_init                     scene_44_init
     003E5B09  GBVM$scene_44_init$28baf860_c071   scene_44_init
     003E5B1E  GBVM$scene_44_init$35a446f5_6a64   scene_44_init
     003E5B26  GBVM$scene_44_init$autofade$ac3c   scene_44_init
     003E5B26  GBVM_END$scene_44_init$28baf860_   scene_44_init
     003E5B31  GBVM$scene_44_init$b5586911_bcfe   scene_44_init
     003E5B31  GBVM$scene_44_init$ef1c7f4c_e69e   scene_44_init
     003E5B36  GBVM$scene_44_init$4a24e9fd_7f1c   scene_44_init
     003E5B3D  GBVM$scene_44_init$6de47a18_5dec   scene_44_init
     003E5B41  GBVM$scene_44_init$c0b31a6b_4bbe   scene_44_init
ASxxxx Linker V03.00/V05.40 + sdld,  page 115.
Hexadecimal  [32-Bits]

Area                                    Addr        Size        Decimal Bytes (Attributes)
--------------------------------        ----        ----        ------- ----- ------------
_CODE_62                            003E4000    00003FFF =       16383. bytes (REL,CON)

      Value  Global                              Global Defined In Module
      -----  --------------------------------   ------------------------
     003E5B50  GBVM$scene_44_init$a1e9f3aa_b280   scene_44_init
     003E5B58  GBVM_END$scene_44_init$a1e9f3aa_   scene_44_init
     003E5B58  GBVM_END$scene_44_init$ef1c7f4c_   scene_44_init
     003E5B59  ___func_scene_44                   scene_44
     003E5B59  _scene_44                          scene_44
     003E5B94  _scene_45_init                     scene_45_init
     003E5B97  GBVM$scene_45_init$92a62740_f97f   scene_45_init
     003E5B9F  GBVM$scene_45_init$7113ea87_012e   scene_45_init
     003E5B9F  GBVM_END$scene_45_init$92a62740_   scene_45_init
     003E5BA7  GBVM$scene_45_init$autofade$efc2   scene_45_init
     003E5BA7  GBVM_END$scene_45_init$7113ea87_   scene_45_init
     003E5BB2  GBVM$scene_45_init$81a5ae19_30e6   scene_45_init
     003E5BB2  GBVM$scene_45_init$bd57f8f6_37f1   scene_45_init
     003E5BB7  GBVM$scene_45_init$884587cd_38be   scene_45_init
     003E5BBE  GBVM$scene_45_init$1be2f68a_d212   scene_45_init
     003E5BC2  GBVM$scene_45_init$66c72628_20e7   scene_45_init
     003E5BD1  GBVM$scene_45_init$6b464ca7_cc0d   scene_45_init
     003E5BD9  GBVM_END$scene_45_init$6b464ca7_   scene_45_init
     003E5BD9  GBVM_END$scene_45_init$bd57f8f6_   scene_45_init
     003E5BDA  ___func_scene_45_projectiles       scene_45_projectiles
     003E5BDA  _scene_45_projectiles              scene_45_projectiles
     003E5C08  ___func_scene_45                   scene_45
     003E5C08  _scene_45                          scene_45
     003E5C43  _scene_46_init                     scene_46_init
     003E5C46  GBVM$scene_46_init$autofade$8da4   scene_46_init
     003E5C51  GBVM$scene_46_init$8cd9f4e4_4037   scene_46_init
     003E5C51  GBVM$scene_46_init$dbe0941c_71d1   scene_46_init
     003E5C56  GBVM$scene_46_init$fe2d9b01_e473   scene_46_init
     003E5C5D  GBVM$scene_46_init$1d5c6a70_bec9   scene_46_init
     003E5C61  GBVM$scene_46_init$94420d4f_f0ab   scene_46_init
     003E5C70  GBVM$scene_46_init$5f51d328_373f   scene_46_init
     003E5C78  GBVM_END$scene_46_init$5f51d328_   scene_46_init
     003E5C78  GBVM_END$scene_46_init$8cd9f4e4_   scene_46_init
     003E5C79  ___func_scene_46                   scene_46
     003E5C79  _scene_46                          scene_46
     003E5CB4  _scene_47_init                     scene_47_init
     003E5CB7  GBVM$scene_47_init$5f9639c7_110c   scene_47_init
     003E5CBF  GBVM$scene_47_init$0be53ba3_46d0   scene_47_init
     003E5CBF  GBVM_END$scene_47_init$5f9639c7_   scene_47_init
     003E5CC7  GBVM$scene_47_init$autofade$5bf8   scene_47_init
     003E5CC7  GBVM_END$scene_47_init$0be53ba3_   scene_47_init
     003E5CD2  GBVM$scene_47_init$98241518_1c71   scene_47_init
     003E5CD2  GBVM$scene_47_init$be694b4f_edbd   scene_47_init
     003E5CD7  GBVM$scene_47_init$43e19d89_8412   scene_47_init
     003E5CDE  GBVM$scene_47_init$ae2cb950_f530   scene_47_init
     003E5CE2  GBVM$scene_47_init$1c356b6c_3aae   scene_47_init
     003E5CF1  GBVM$scene_47_init$21974eec_a6e5   scene_47_init
     003E5CF9  GBVM_END$scene_47_init$21974eec_   scene_47_init
     003E5CF9  GBVM_END$scene_47_init$be694b4f_   scene_47_init
     003E5CFA  ___func_scene_47_projectiles       scene_47_projectiles
     003E5CFA  _scene_47_projectiles              scene_47_projectiles
ASxxxx Linker V03.00/V05.40 + sdld,  page 116.
Hexadecimal  [32-Bits]

Area                                    Addr        Size        Decimal Bytes (Attributes)
--------------------------------        ----        ----        ------- ----- ------------
_CODE_62                            003E4000    00003FFF =       16383. bytes (REL,CON)

      Value  Global                              Global Defined In Module
      -----  --------------------------------   ------------------------
     003E5D28  ___func_scene_47_triggers          scene_47_triggers
     003E5D28  _scene_47_triggers                 scene_47_triggers
     003E5D58  ___func_scene_47                   scene_47
     003E5D58  _scene_47                          scene_47
     003E5D93  _scene_48_init                     scene_48_init
     003E5D96  GBVM$scene_48_init$autofade$12cf   scene_48_init
     003E5DA1  GBVM$scene_48_init$a8adc54a_3aab   scene_48_init
     003E5DA1  GBVM$scene_48_init$ffe7cce7_c2bf   scene_48_init
     003E5DA6  GBVM$scene_48_init$c67962c0_c2da   scene_48_init
     003E5DAD  GBVM$scene_48_init$2d358925_67ee   scene_48_init
     003E5DB1  GBVM$scene_48_init$337376c5_1ba3   scene_48_init
     003E5DC0  GBVM$scene_48_init$8d3daccf_473b   scene_48_init
     003E5DC8  GBVM_END$scene_48_init$8d3daccf_   scene_48_init
     003E5DC8  GBVM_END$scene_48_init$a8adc54a_   scene_48_init
     003E5DC9  ___func_scene_48                   scene_48
     003E5DC9  _scene_48                          scene_48
     003E5E04  _scene_49_init                     scene_49_init
     003E5E07  GBVM$scene_49_init$autofade$7574   scene_49_init
     003E5E12  GBVM$scene_49_init$942f78a7_7411   scene_49_init
     003E5E12  GBVM$scene_49_init$bd0cb2af_5f47   scene_49_init
     003E5E17  GBVM$scene_49_init$31da5bda_d7aa   scene_49_init
     003E5E1E  GBVM$scene_49_init$4c364185_6e41   scene_49_init
     003E5E22  GBVM$scene_49_init$22d6d9c0_d472   scene_49_init
     003E5E31  GBVM$scene_49_init$db991bb0_b9e4   scene_49_init
     003E5E39  GBVM_END$scene_49_init$bd0cb2af_   scene_49_init
     003E5E39  GBVM_END$scene_49_init$db991bb0_   scene_49_init
     003E5E3A  ___func_scene_49_triggers          scene_49_triggers
     003E5E3A  _scene_49_triggers                 scene_49_triggers
     003E5E6A  ___func_scene_49                   scene_49
     003E5E6A  _scene_49                          scene_49
     003E5EA5  ___func_scene_5                    scene_5
     003E5EA5  _scene_5                           scene_5
     003E5EE0  _scene_50_init                     scene_50_init
     003E5EE3  GBVM$scene_50_init$904278ad_3c44   scene_50_init
     003E5EE8  GBVM$scene_50_init$f0c8ae9a_d81b   scene_50_init
     003E5EED  GBVM$scene_50_init$autofade$cad8   scene_50_init
     003E5EF8  GBVM$scene_50_init$cb809792_7f96   scene_50_init
     003E5EF8  GBVM$scene_50_init$d97c2b07_f04a   scene_50_init
     003E5EFD  GBVM$scene_50_init$2e1b5faa_f015   scene_50_init
     003E5F04  GBVM$scene_50_init$2003f886_0392   scene_50_init
     003E5F08  GBVM$scene_50_init$0c271544_99b7   scene_50_init
     003E5F17  GBVM$scene_50_init$ee6b0edf_ffeb   scene_50_init
     003E5F1F  GBVM_END$scene_50_init$d97c2b07_   scene_50_init
     003E5F1F  GBVM_END$scene_50_init$ee6b0edf_   scene_50_init
     003E5F20  ___func_scene_50_triggers          scene_50_triggers
     003E5F20  _scene_50_triggers                 scene_50_triggers
     003E5F60  ___func_scene_50                   scene_50
     003E5F60  _scene_50                          scene_50
     003E5F9B  ___func_scene_51_actors            scene_51_actors
     003E5F9B  _scene_51_actors                   scene_51_actors
     003E5FCF  ___func_scene_51_projectiles       scene_51_projectiles
ASxxxx Linker V03.00/V05.40 + sdld,  page 117.
Hexadecimal  [32-Bits]

Area                                    Addr        Size        Decimal Bytes (Attributes)
--------------------------------        ----        ----        ------- ----- ------------
_CODE_62                            003E4000    00003FFF =       16383. bytes (REL,CON)

      Value  Global                              Global Defined In Module
      -----  --------------------------------   ------------------------
     003E5FCF  _scene_51_projectiles              scene_51_projectiles
     003E5FFD  ___func_scene_51                   scene_51
     003E5FFD  _scene_51                          scene_51
     003E6038  ___func_scene_52_actors            scene_52_actors
     003E6038  _scene_52_actors                   scene_52_actors
     003E606C  ___func_scene_52                   scene_52
     003E606C  _scene_52                          scene_52
     003E60A7  ___func_scene_53_actors            scene_53_actors
     003E60A7  _scene_53_actors                   scene_53_actors
     003E60DB  ___func_scene_53                   scene_53
     003E60DB  _scene_53                          scene_53
     003E6116  ___func_scene_54_triggers          scene_54_triggers
     003E6116  _scene_54_triggers                 scene_54_triggers
     003E6146  ___func_scene_54                   scene_54
     003E6146  _scene_54                          scene_54
     003E6181  ___func_scene_55_actors            scene_55_actors
     003E6181  _scene_55_actors                   scene_55_actors
     003E61B5  ___func_scene_55                   scene_55
     003E61B5  _scene_55                          scene_55
     003E61F0  ___func_scene_56                   scene_56
     003E61F0  _scene_56                          scene_56
     003E622B  ___func_scene_57                   scene_57
     003E622B  _scene_57                          scene_57
     003E6266  _scene_58_init                     scene_58_init
     003E6269  GBVM$scene_58_init$e1135492_3f44   scene_58_init
     003E626C  GBVM$scene_58_init$8417e27f_7fad   scene_58_init
     003E6276  GBVM$scene_58_init$a2701a3e_3a77   scene_58_init
     003E6278  GBVM$scene_58_init$e9d49c44_ce1a   scene_58_init
     003E6280  GBVM$scene_58_init$b725b271_b2a9   scene_58_init
     003E6280  GBVM_END$scene_58_init$e9d49c44_   scene_58_init
     003E6288  GBVM$scene_58_init$6c3f2143_a143   scene_58_init
     003E6288  GBVM_END$scene_58_init$b725b271_   scene_58_init
     003E6290  GBVM$scene_58_init$autofade$d9d9   scene_58_init
     003E6290  GBVM_END$scene_58_init$6c3f2143_   scene_58_init
     003E629C  ___func_scene_58                   scene_58
     003E629C  _scene_58                          scene_58
     003E62D7  ___func_scene_59                   scene_59
     003E62D7  _scene_59                          scene_59
     003E6312  ___func_scene_6                    scene_6
     003E6312  _scene_6                           scene_6
     003E634D  ___func_scene_7                    scene_7
     003E634D  _scene_7                           scene_7
     003E6388  _scene_8_init                      scene_8_init
     003E638B  GBVM$scene_8_init$autofade$bbcd2   scene_8_init
     003E6396  GBVM$scene_8_init$5ebac7dc_71be_   scene_8_init
     003E6396  GBVM$scene_8_init$882405d5_1c8a_   scene_8_init
     003E639B  GBVM$scene_8_init$3d3a03f7_f102_   scene_8_init
     003E63A2  GBVM$scene_8_init$83439898_01b9_   scene_8_init
     003E63A6  GBVM$scene_8_init$821e1461_295b_   scene_8_init
     003E63B5  GBVM$scene_8_init$20e22b0a_6754_   scene_8_init
     003E63BD  GBVM_END$scene_8_init$20e22b0a_6   scene_8_init
ASxxxx Linker V03.00/V05.40 + sdld,  page 118.
Hexadecimal  [32-Bits]

Area                                    Addr        Size        Decimal Bytes (Attributes)
--------------------------------        ----        ----        ------- ----- ------------
_CODE_62                            003E4000    00003FFF =       16383. bytes (REL,CON)

      Value  Global                              Global Defined In Module
      -----  --------------------------------   ------------------------
     003E63BD  GBVM_END$scene_8_init$5ebac7dc_7   scene_8_init
     003E63BE  ___func_scene_8                    scene_8
     003E63BE  _scene_8                           scene_8
     003E63F9  ___func_scene_9_triggers           scene_9_triggers
     003E63F9  _scene_9_triggers                  scene_9_triggers
     003E6441  ___func_scene_9                    scene_9
     003E6441  _scene_9                           scene_9
     003E647C  GBVM$script_input_1$04f3900c_41a   script_input_1
     003E647C  _script_input_1                    script_input_1
     003E6490  GBVM$script_input_1$0f38e8df_1df   script_input_1
     003E649C  GBVM$script_input_1$d22514af_c8d   script_input_1
     003E64A8  GBVM$script_input_1$b571ea7d_8ba   script_input_1
     003E64B4  GBVM_END$script_input_1$04f3900c   script_input_1
     003E64B5  GBVM$script_input_11$0f57d14a_cb   script_input_11
     003E64B5  _script_input_11                   script_input_11
     003E6507  _script_input_12                   script_input_12
     003E6509  GBVM$script_input_12$4fa25f88_d2   script_input_12
     003E653C  _script_input_3                    script_input_3
     003E653E  GBVM$script_input_3$1d7de06d_eed   script_input_3
     003E6560  _script_input_30                   script_input_30
     003E6562  GBVM$script_input_30$da7f4e77_94   script_input_30
     003E6595  _script_input_33                   script_input_33
     003E6597  GBVM$script_input_33$1b3b6d0b_42   script_input_33
     003E65CA  _script_input_34                   script_input_34
     003E65CC  GBVM$script_input_34$2dfb4328_aa   script_input_34
     003E65FF  _script_input_35                   script_input_35
     003E6601  GBVM$script_input_35$d500f7dd_ea   script_input_35
     003E6603  GBVM$script_input_35$4b6a3350_5a   script_input_35
     003E6604  GBVM$script_input_35$ecfcb860_53   script_input_35
     003E6605  GBVM$script_input_35$6b9a525a_47   script_input_35
     003E6638  _script_input_37                   script_input_37
     003E663A  GBVM$script_input_37$ba4e8ab3_82   script_input_37
     003E663C  GBVM$script_input_37$eaa8f3fe_cc   script_input_37
     003E663D  GBVM$script_input_37$7d484d0e_d7   script_input_37
     003E663F  GBVM$script_input_37$11f8220a_ba   script_input_37
     003E6640  GBVM$script_input_37$82c82347_1b   script_input_37
     003E6673  _script_input_4                    script_input_4
     003E6675  GBVM$script_input_4$c147a431_829   script_input_4
     003E6677  GBVM$script_input_4$41ba7c43_5d4   script_input_4
     003E6678  GBVM$script_input_4$a80b8b0b_daf   script_input_4
     003E66AB  GBVM$script_input_5$8e214c21_b0e   script_input_5
     003E66AB  _script_input_5                    script_input_5
     003E66D2  _script_input_6                    script_input_6
     003E66D4  GBVM$script_input_6$3dd71e4f_555   script_input_6
     003E6707  _script_input_7                    script_input_7
     003E6709  GBVM$script_input_7$927758d8_952   script_input_7
     003E673C  _script_timer_1                    script_timer_1
     003E673E  GBVM$script_timer_1$f53c767f_bb2   script_timer_1
     003E6771  _script_timer_2                    script_timer_2
     003E6773  GBVM$script_timer_2$7413e7a1_811   script_timer_2
     003E67A6  _script_timer_50                   script_timer_50
ASxxxx Linker V03.00/V05.40 + sdld,  page 119.
Hexadecimal  [32-Bits]

Area                                    Addr        Size        Decimal Bytes (Attributes)
--------------------------------        ----        ----        ------- ----- ------------
_CODE_62                            003E4000    00003FFF =       16383. bytes (REL,CON)

      Value  Global                              Global Defined In Module
      -----  --------------------------------   ------------------------
     003E67A8  GBVM$script_timer_50$83cb5874_fa   script_timer_50
     003E67BD  GBVM$script_timer_50$933db798_29   script_timer_50
     003E67F5  GBVM_END$script_timer_50$83cb587   script_timer_50
     003E67F6  _script_timer_51                   script_timer_51
     003E67F8  GBVM$script_timer_51$748b77d2_02   script_timer_51
     003E680D  GBVM$script_timer_51$3cdbea43_07   script_timer_51
     003E6845  GBVM_END$script_timer_51$748b77d   script_timer_51
     003E6846  _script_timer_52                   script_timer_52
     003E6848  GBVM$script_timer_52$7612240e_93   script_timer_52
     003E6857  GBVM$script_timer_52$7525e7c5_d7   script_timer_52
     003E686C  _script_timer_53                   script_timer_53
     003E686E  GBVM$script_timer_53$ee279dc7_20   script_timer_53
     003E687D  GBVM$script_timer_53$6c033756_68   script_timer_53
     003E6892  _script_timer_62                   script_timer_62
     003E6894  GBVM$script_timer_62$dd038182_2a   script_timer_62
     003E689B  GBVM$script_timer_62$75427d4d_93   script_timer_62
     003E68B8  _script_timer_67                   script_timer_67
     003E68BA  GBVM$script_timer_67$6a0b96ca_7b   script_timer_67
     003E68C9  GBVM$script_timer_67$e2af7a06_5f   script_timer_67
     003E68DE  _script_timer_68                   script_timer_68
     003E68E0  GBVM$script_timer_68$3e971309_b4   script_timer_68
     003E68EF  GBVM$script_timer_68$8a8e709d_5d   script_timer_68
     003E6904  _script_timer_77                   script_timer_77
     003E6906  GBVM$script_timer_77$b1acc51d_55   script_timer_77
     003E693F  _script_timer_78                   script_timer_78
     003E6941  GBVM$script_timer_78$dc3ba45f_f6   script_timer_78
     003E697A  _script_timer_82                   script_timer_82
     003E697C  GBVM$script_timer_82$4d0468e8_9d   script_timer_82
     003E6988  GBVM$script_timer_82$6738680e_00   script_timer_82
     003E69C0  GBVM_END$script_timer_82$4d0468e   script_timer_82
     003E69C1  _script_timer_83                   script_timer_83
     003E69C3  GBVM$script_timer_83$c17d0b2a_f9   script_timer_83
     003E69CF  GBVM$script_timer_83$122e2330_b6   script_timer_83
     003E6A07  GBVM_END$script_timer_83$c17d0b2   script_timer_83
     003E6A08  ___func_sprite_bullet              sprite_bullet
     003E6A08  _sprite_bullet_metasprite_0        sprite_bullet
     003E6A14  _sprite_bullet_metasprite_1        sprite_bullet
     003E6A20  _sprite_bullet_metasprite_2        sprite_bullet
     003E6A2C  _sprite_bullet_metasprite_3        sprite_bullet
     003E6A38  _sprite_bullet_metasprites         sprite_bullet
     003E6A40  _sprite_bullet_animations          sprite_bullet
     003E6A50  _sprite_bullet_animations_lookup   sprite_bullet
     003E6A52  _sprite_bullet                     sprite_bullet
     003E6A65  ___func_sprite_cedric_copy         sprite_cedric_copy
     003E6A65  _sprite_cedric_copy_metasprite_0   sprite_cedric_copy
     003E6A85  _sprite_cedric_copy_metasprites    sprite_cedric_copy
     003E6A87  _sprite_cedric_copy_animations     sprite_cedric_copy
     003E6A97  _sprite_cedric_copy_animations_l   sprite_cedric_copy
     003E6A99  _sprite_cedric_copy                sprite_cedric_copy
     003E6AAC  ___func_sprite_cedric_dust         sprite_cedric_dust
     003E6AAC  _sprite_cedric_dust_metasprite_0   sprite_cedric_dust
ASxxxx Linker V03.00/V05.40 + sdld,  page 120.
Hexadecimal  [32-Bits]

Area                                    Addr        Size        Decimal Bytes (Attributes)
--------------------------------        ----        ----        ------- ----- ------------
_CODE_62                            003E4000    00003FFF =       16383. bytes (REL,CON)

      Value  Global                              Global Defined In Module
      -----  --------------------------------   ------------------------
     003E6AB8  _sprite_cedric_dust_metasprites    sprite_cedric_dust
     003E6ABA  _sprite_cedric_dust_animations     sprite_cedric_dust
     003E6ACA  _sprite_cedric_dust_animations_l   sprite_cedric_dust
     003E6ACC  _sprite_cedric_dust                sprite_cedric_dust
     003E6ADF  ___func_sprite_feather             sprite_feather
     003E6ADF  _sprite_feather_metasprite_0       sprite_feather
     003E6AEB  _sprite_feather_metasprites        sprite_feather
     003E6AED  _sprite_feather_animations         sprite_feather
     003E6AFD  _sprite_feather_animations_looku   sprite_feather
     003E6AFF  _sprite_feather                    sprite_feather
     003E6B12  ___func_sprite_flame_whip          sprite_flame_whip
     003E6B12  _sprite_flame_whip_metasprite_0    sprite_flame_whip
     003E6B1A  _sprite_flame_whip_metasprite_1    sprite_flame_whip
     003E6B26  _sprite_flame_whip_metasprites     sprite_flame_whip
     003E6B2A  _sprite_flame_whip_animations      sprite_flame_whip
     003E6B3A  _sprite_flame_whip_animations_lo   sprite_flame_whip
     003E6B3C  _sprite_flame_whip                 sprite_flame_whip
     003E6B4F  ___func_sprite_foxberry_ui         sprite_foxberry_ui
     003E6B4F  _sprite_foxberry_ui_metasprite_0   sprite_foxberry_ui
     003E6B5B  _sprite_foxberry_ui_metasprites    sprite_foxberry_ui
     003E6B5D  _sprite_foxberry_ui_animations     sprite_foxberry_ui
     003E6B6D  _sprite_foxberry_ui_animations_l   sprite_foxberry_ui
     003E6B6F  _sprite_foxberry_ui                sprite_foxberry_ui
     003E6B82  ___func_sprite_jem_animated_0_ba   sprite_jem_animated_0_bank2_
     003E6B82  _sprite_jem_animated_0_bank2_til   sprite_jem_animated_0_bank2_
     003E6BC4  ___func_sprite_jem_animated_0      sprite_jem_animated_0
     003E6BC4  _sprite_jem_animated_0_metasprit   sprite_jem_animated_0
     003E6BC8  _sprite_jem_animated_0_metasprit   sprite_jem_animated_0
     003E6BE0  _sprite_jem_animated_0_metasprit   sprite_jem_animated_0
     003E6BF8  _sprite_jem_animated_0_metasprit   sprite_jem_animated_0
     003E6BFE  _sprite_jem_animated_0_animation   sprite_jem_animated_0
     003E6C0E  _sprite_jem_animated_0_animation   sprite_jem_animated_0
     003E6C10  _sprite_jem_animated_0             sprite_jem_animated_0
     003E6C23  ___func_sprite_lava                sprite_lava
     003E6C23  _sprite_lava_metasprite_0          sprite_lava
     003E6C2F  _sprite_lava_metasprites           sprite_lava
     003E6C31  _sprite_lava_animations            sprite_lava
     003E6C41  _sprite_lava_animations_lookup     sprite_lava
     003E6C43  _sprite_lava                       sprite_lava
     003E6C56  ___func_sprite_light_key_0_bank2   sprite_light_key_0_bank2_til
     003E6C56  _sprite_light_key_0_bank2_tilese   sprite_light_key_0_bank2_til
     003E6C98  ___func_sprite_light_key_0_tiles   sprite_light_key_0_tileset
     003E6C98  _sprite_light_key_0_tileset        sprite_light_key_0_tileset
     003E6CDA  ___func_sprite_light_key_0         sprite_light_key_0
     003E6CDA  _sprite_light_key_0_metasprite_0   sprite_light_key_0
     003E6CE6  _sprite_light_key_0_metasprite_1   sprite_light_key_0
     003E6CF2  _sprite_light_key_0_metasprite_2   sprite_light_key_0
     003E6CFE  _sprite_light_key_0_metasprite_3   sprite_light_key_0
     003E6D0A  _sprite_light_key_0_metasprites    sprite_light_key_0
     003E6D12  _sprite_light_key_0_animations     sprite_light_key_0
     003E6D22  _sprite_light_key_0_animations_l   sprite_light_key_0
ASxxxx Linker V03.00/V05.40 + sdld,  page 121.
Hexadecimal  [32-Bits]

Area                                    Addr        Size        Decimal Bytes (Attributes)
--------------------------------        ----        ----        ------- ----- ------------
_CODE_62                            003E4000    00003FFF =       16383. bytes (REL,CON)

      Value  Global                              Global Defined In Module
      -----  --------------------------------   ------------------------
     003E6D24  _sprite_light_key_0                sprite_light_key_0
     003E6D37  ___func_sprite_light_key_bank2_t   sprite_light_key_bank2_tiles
     003E6D37  _sprite_light_key_bank2_tileset    sprite_light_key_bank2_tiles
     003E6D79  ___func_sprite_light_key_tileset   sprite_light_key_tileset
     003E6D79  _sprite_light_key_tileset          sprite_light_key_tileset
     003E6DBB  ___func_sprite_light_key           sprite_light_key
     003E6DBB  _sprite_light_key_metasprite_0     sprite_light_key
     003E6DC7  _sprite_light_key_metasprite_1     sprite_light_key
     003E6DD3  _sprite_light_key_metasprite_2     sprite_light_key
     003E6DDF  _sprite_light_key_metasprite_3     sprite_light_key
     003E6DEB  _sprite_light_key_metasprites      sprite_light_key
     003E6DF3  _sprite_light_key_animations       sprite_light_key
     003E6E03  _sprite_light_key_animations_loo   sprite_light_key
     003E6E05  _sprite_light_key                  sprite_light_key
     003E6E18  ___func_sprite_metal_walls         sprite_metal_walls
     003E6E18  _sprite_metal_walls_metasprite_0   sprite_metal_walls
     003E6E24  _sprite_metal_walls_metasprites    sprite_metal_walls
     003E6E26  _sprite_metal_walls_animations     sprite_metal_walls
     003E6E36  _sprite_metal_walls_animations_l   sprite_metal_walls
     003E6E38  _sprite_metal_walls                sprite_metal_walls
     003E6E4B  ___func_sprite_music_type          sprite_music_type
     003E6E4B  _sprite_music_type_metasprite_0    sprite_music_type
     003E6E63  _sprite_music_type_metasprite_1    sprite_music_type
     003E6E7B  _sprite_music_type_metasprites     sprite_music_type
     003E6E7F  _sprite_music_type_animations      sprite_music_type
     003E6E8F  _sprite_music_type_animations_lo   sprite_music_type
     003E6E91  _sprite_music_type                 sprite_music_type
     003E6EA4  ___func_sprite_phoenix_cop_copy    sprite_phoenix_cop_copy
     003E6EA4  _sprite_phoenix_cop_copy_metaspr   sprite_phoenix_cop_copy
     003E6EC0  _sprite_phoenix_cop_copy_metaspr   sprite_phoenix_cop_copy
     003E6EC2  _sprite_phoenix_cop_copy_animati   sprite_phoenix_cop_copy
     003E6ED2  _sprite_phoenix_cop_copy_animati   sprite_phoenix_cop_copy
     003E6ED4  _sprite_phoenix_cop_copy           sprite_phoenix_cop_copy
     003E6EE7  ___func_sprite_poison              sprite_poison
     003E6EE7  _sprite_poison_metasprite_0        sprite_poison
     003E6EF3  _sprite_poison_metasprites         sprite_poison
     003E6EF5  _sprite_poison_animations          sprite_poison
     003E6F05  _sprite_poison_animations_lookup   sprite_poison
     003E6F07  _sprite_poison                     sprite_poison
     003E6F1A  ___func_sprite_potion_ui           sprite_potion_ui
     003E6F1A  _sprite_potion_ui_metasprite_0     sprite_potion_ui
     003E6F26  _sprite_potion_ui_metasprites      sprite_potion_ui
     003E6F28  _sprite_potion_ui_animations       sprite_potion_ui
     003E6F38  _sprite_potion_ui_animations_loo   sprite_potion_ui
     003E6F3A  _sprite_potion_ui                  sprite_potion_ui
     003E6F4D  ___func_sprite_swordattack_bank2   sprite_swordattack_bank2_til
     003E6F4D  _sprite_swordattack_bank2_tilese   sprite_swordattack_bank2_til
     003E6F8F  ___func_sprite_swordattack_tiles   sprite_swordattack_tileset
     003E6F8F  _sprite_swordattack_tileset        sprite_swordattack_tileset
     003E6FD1  ___func_sprite_swordattack         sprite_swordattack
     003E6FD1  _sprite_swordattack_metasprite_0   sprite_swordattack
ASxxxx Linker V03.00/V05.40 + sdld,  page 122.
Hexadecimal  [32-Bits]

Area                                    Addr        Size        Decimal Bytes (Attributes)
--------------------------------        ----        ----        ------- ----- ------------
_CODE_62                            003E4000    00003FFF =       16383. bytes (REL,CON)

      Value  Global                              Global Defined In Module
      -----  --------------------------------   ------------------------
     003E6FDD  _sprite_swordattack_metasprite_1   sprite_swordattack
     003E6FE9  _sprite_swordattack_metasprite_2   sprite_swordattack
     003E6FF5  _sprite_swordattack_metasprite_3   sprite_swordattack
     003E7001  _sprite_swordattack_metasprites    sprite_swordattack
     003E7009  _sprite_swordattack_animations     sprite_swordattack
     003E7019  _sprite_swordattack_animations_l   sprite_swordattack
     003E701B  _sprite_swordattack                sprite_swordattack
     003E702E  ___func_sprite_toxic               sprite_toxic
     003E702E  _sprite_toxic_metasprite_0         sprite_toxic
     003E703A  _sprite_toxic_metasprites          sprite_toxic
     003E703C  _sprite_toxic_animations           sprite_toxic
     003E704C  _sprite_toxic_animations_lookup    sprite_toxic
     003E704E  _sprite_toxic                      sprite_toxic
     003E7061  ___func_sprite_unknown_key_copy_   sprite_unknown_key_copy_2_
     003E7061  _sprite_unknown_key_copy_2__meta   sprite_unknown_key_copy_2_
     003E706D  _sprite_unknown_key_copy_2__meta   sprite_unknown_key_copy_2_
     003E706F  _sprite_unknown_key_copy_2__anim   sprite_unknown_key_copy_2_
     003E707F  _sprite_unknown_key_copy_2__anim   sprite_unknown_key_copy_2_
     003E7081  _sprite_unknown_key_copy_2_        sprite_unknown_key_copy_2_
     003E7094  ___func_sprite_unknown_key_copy    sprite_unknown_key_copy
     003E7094  _sprite_unknown_key_copy_metaspr   sprite_unknown_key_copy
     003E70A0  _sprite_unknown_key_copy_metaspr   sprite_unknown_key_copy
     003E70A2  _sprite_unknown_key_copy_animati   sprite_unknown_key_copy
     003E70B2  _sprite_unknown_key_copy_animati   sprite_unknown_key_copy
     003E70B4  _sprite_unknown_key_copy           sprite_unknown_key_copy
     003E70C7  ___func_sprite_water               sprite_water
     003E70C7  _sprite_water_metasprite_0         sprite_water
     003E70D3  _sprite_water_metasprites          sprite_water
     003E70D5  _sprite_water_animations           sprite_water
     003E70E5  _sprite_water_animations_lookup    sprite_water
     003E70E7  _sprite_water                      sprite_water
     003E70FA  _trigger_0_interact                trigger_0_interact
     003E710E  GBVM$trigger_0_interact$6b1208c1   trigger_0_interact
     003E7116  GBVM_END$trigger_0_interact$6b12   trigger_0_interact
     003E7128  GBVM$trigger_0_interact$89651838   trigger_0_interact
     003E712A  GBVM$trigger_0_interact$b893782e   trigger_0_interact
     003E7130  _trigger_1_interact                trigger_1_interact
     003E7133  GBVM$trigger_1_interact$d47fcf92   trigger_1_interact
     003E7166  _trigger_107_interact              trigger_107_interact
     003E7169  GBVM$trigger_107_interact$9c4424   trigger_107_interact
     003E7187  GBVM$trigger_107_interact$fd6e24   trigger_107_interact
     003E71BE  _trigger_108_interact              trigger_108_interact
     003E71C1  GBVM$trigger_108_interact$baef27   trigger_108_interact
     003E71DF  GBVM$trigger_108_interact$325687   trigger_108_interact
     003E7216  _trigger_111_interact              trigger_111_interact
     003E7219  GBVM$trigger_111_interact$3e0afd   trigger_111_interact
     003E724C  _trigger_118_interact              trigger_118_interact
     003E724F  GBVM$trigger_118_interact$688664   trigger_118_interact
     003E726D  GBVM$trigger_118_interact$ca2123   trigger_118_interact
     003E72A4  _trigger_119_interact              trigger_119_interact
     003E72A7  GBVM$trigger_119_interact$435dbc   trigger_119_interact
ASxxxx Linker V03.00/V05.40 + sdld,  page 123.
Hexadecimal  [32-Bits]

Area                                    Addr        Size        Decimal Bytes (Attributes)
--------------------------------        ----        ----        ------- ----- ------------
_CODE_62                            003E4000    00003FFF =       16383. bytes (REL,CON)

      Value  Global                              Global Defined In Module
      -----  --------------------------------   ------------------------
     003E72C5  GBVM$trigger_119_interact$313724   trigger_119_interact
     003E72FC  _trigger_176_interact              trigger_176_interact
     003E72FF  GBVM$trigger_176_interact$7a622c   trigger_176_interact
     003E7332  _trigger_178_interact              trigger_178_interact
     003E7335  GBVM$trigger_178_interact$7a4bb3   trigger_178_interact
     003E7368  _trigger_179_interact              trigger_179_interact
     003E736B  GBVM$trigger_179_interact$6e991d   trigger_179_interact
     003E739E  _trigger_19_interact               trigger_19_interact
     003E73A1  GBVM$trigger_19_interact$6598713   trigger_19_interact
     003E73D4  _trigger_193_interact              trigger_193_interact
     003E73E8  GBVM$trigger_193_interact$7b5d98   trigger_193_interact
     003E73F0  GBVM_END$trigger_193_interact$7b   trigger_193_interact
     003E7402  GBVM$trigger_193_interact$a0c7a2   trigger_193_interact
     003E7404  GBVM$trigger_193_interact$fc87b3   trigger_193_interact
     003E7408  GBVM$trigger_193_interact$1c8a21   trigger_193_interact
     003E7408  GBVM$trigger_193_interact$9b9282   trigger_193_interact
     003E740D  GBVM$trigger_193_interact$f72998   trigger_193_interact
     003E7414  GBVM$trigger_193_interact$6fb0b1   trigger_193_interact
     003E7418  GBVM$trigger_193_interact$c2e9f4   trigger_193_interact
     003E7427  GBVM$trigger_193_interact$7b59e4   trigger_193_interact
     003E742F  GBVM_END$trigger_193_interact$1c   trigger_193_interact
     003E742F  GBVM_END$trigger_193_interact$7b   trigger_193_interact
     003E7431  _trigger_194_interact              trigger_194_interact
     003E7434  GBVM$trigger_194_interact$784396   trigger_194_interact
     003E7452  GBVM$trigger_194_interact$725688   trigger_194_interact
     003E7489  _trigger_2_interact                trigger_2_interact
     003E748C  GBVM$trigger_2_interact$4b473b99   trigger_2_interact
     003E74BF  _trigger_20_interact               trigger_20_interact
     003E74D3  GBVM$trigger_20_interact$bd5c162   trigger_20_interact
     003E74DB  GBVM_END$trigger_20_interact$bd5   trigger_20_interact
     003E74ED  GBVM$trigger_20_interact$8caf65d   trigger_20_interact
     003E74EF  GBVM$trigger_20_interact$9b30674   trigger_20_interact
     003E74F3  GBVM$trigger_20_interact$76fc628   trigger_20_interact
     003E74F3  GBVM$trigger_20_interact$f60929b   trigger_20_interact
     003E74F8  GBVM$trigger_20_interact$254f4fb   trigger_20_interact
     003E74FF  GBVM$trigger_20_interact$0f3efdd   trigger_20_interact
     003E7503  GBVM$trigger_20_interact$af88f7f   trigger_20_interact
     003E7512  GBVM$trigger_20_interact$1a9fbed   trigger_20_interact
     003E751A  GBVM_END$trigger_20_interact$1a9   trigger_20_interact
     003E751A  GBVM_END$trigger_20_interact$f60   trigger_20_interact
     003E751C  _trigger_213_interact              trigger_213_interact
     003E751F  GBVM$trigger_213_interact$9df1cc   trigger_213_interact
     003E753D  GBVM$trigger_213_interact$66ef96   trigger_213_interact
     003E7542  GBVM$trigger_213_interact$fa0c29   trigger_213_interact
     003E7579  _trigger_219_interact              trigger_219_interact
     003E757C  GBVM$trigger_219_interact$de1e7e   trigger_219_interact
     003E759A  GBVM$trigger_219_interact$1d5469   trigger_219_interact
     003E759F  GBVM$trigger_219_interact$1a40a0   trigger_219_interact
     003E75D6  _trigger_22_interact               trigger_22_interact
     003E75D9  GBVM$trigger_22_interact$4145b2a   trigger_22_interact
     003E75D9  GBVM$trigger_22_interact$9d57b26   trigger_22_interact
ASxxxx Linker V03.00/V05.40 + sdld,  page 124.
Hexadecimal  [32-Bits]

Area                                    Addr        Size        Decimal Bytes (Attributes)
--------------------------------        ----        ----        ------- ----- ------------
_CODE_62                            003E4000    00003FFF =       16383. bytes (REL,CON)

      Value  Global                              Global Defined In Module
      -----  --------------------------------   ------------------------
     003E75F7  GBVM$trigger_22_interact$c1023c0   trigger_22_interact
     003E75F7  GBVM_END$trigger_22_interact$9d5   trigger_22_interact
     003E762E  _trigger_220_interact              trigger_220_interact
     003E7642  GBVM$trigger_220_interact$954745   trigger_220_interact
     003E764A  GBVM_END$trigger_220_interact$95   trigger_220_interact
     003E765C  GBVM$trigger_220_interact$86558c   trigger_220_interact
     003E765E  GBVM$trigger_220_interact$a9928c   trigger_220_interact
     003E7662  GBVM$trigger_220_interact$a78ba2   trigger_220_interact
     003E7662  GBVM$trigger_220_interact$de29dc   trigger_220_interact
     003E7667  GBVM$trigger_220_interact$ed692b   trigger_220_interact
     003E766E  GBVM$trigger_220_interact$697c12   trigger_220_interact
     003E7672  GBVM$trigger_220_interact$a48812   trigger_220_interact
     003E7681  GBVM$trigger_220_interact$af3d44   trigger_220_interact
     003E7689  GBVM_END$trigger_220_interact$af   trigger_220_interact
     003E7689  GBVM_END$trigger_220_interact$de   trigger_220_interact
     003E768B  _trigger_221_interact              trigger_221_interact
     003E769F  GBVM$trigger_221_interact$105140   trigger_221_interact
     003E76A7  GBVM_END$trigger_221_interact$10   trigger_221_interact
     003E76B9  GBVM$trigger_221_interact$942bc1   trigger_221_interact
     003E76BB  GBVM$trigger_221_interact$95411c   trigger_221_interact
     003E76BF  GBVM$trigger_221_interact$8b0a0b   trigger_221_interact
     003E76BF  GBVM$trigger_221_interact$e9f3e5   trigger_221_interact
     003E76C4  GBVM$trigger_221_interact$5fe11c   trigger_221_interact
     003E76CB  GBVM$trigger_221_interact$0710b4   trigger_221_interact
     003E76CF  GBVM$trigger_221_interact$8e375b   trigger_221_interact
     003E76DE  GBVM$trigger_221_interact$4e68b8   trigger_221_interact
     003E76E6  GBVM_END$trigger_221_interact$4e   trigger_221_interact
     003E76E6  GBVM_END$trigger_221_interact$8b   trigger_221_interact
     003E76E8  _trigger_222_interact              trigger_222_interact
     003E76FC  GBVM$trigger_222_interact$51b4bf   trigger_222_interact
     003E7704  GBVM_END$trigger_222_interact$51   trigger_222_interact
     003E7716  GBVM$trigger_222_interact$0c5a4b   trigger_222_interact
     003E7718  GBVM$trigger_222_interact$61c0b0   trigger_222_interact
     003E771C  GBVM$trigger_222_interact$5d3f23   trigger_222_interact
     003E771C  GBVM$trigger_222_interact$c5f577   trigger_222_interact
     003E7721  GBVM$trigger_222_interact$2e8c78   trigger_222_interact
     003E7728  GBVM$trigger_222_interact$f6cb49   trigger_222_interact
     003E772C  GBVM$trigger_222_interact$fe84a7   trigger_222_interact
     003E773B  GBVM$trigger_222_interact$32b4fa   trigger_222_interact
     003E7743  GBVM_END$trigger_222_interact$32   trigger_222_interact
     003E7743  GBVM_END$trigger_222_interact$c5   trigger_222_interact
     003E7745  _trigger_223_interact              trigger_223_interact
     003E7759  GBVM$trigger_223_interact$71103e   trigger_223_interact
     003E7761  GBVM_END$trigger_223_interact$71   trigger_223_interact
     003E7773  GBVM$trigger_223_interact$58b03d   trigger_223_interact
     003E7775  GBVM$trigger_223_interact$429ff5   trigger_223_interact
     003E7779  GBVM$trigger_223_interact$0fbd54   trigger_223_interact
     003E7779  GBVM$trigger_223_interact$b17581   trigger_223_interact
     003E777E  GBVM$trigger_223_interact$9366d3   trigger_223_interact
     003E7785  GBVM$trigger_223_interact$91c674   trigger_223_interact
     003E7789  GBVM$trigger_223_interact$755a72   trigger_223_interact
ASxxxx Linker V03.00/V05.40 + sdld,  page 125.
Hexadecimal  [32-Bits]

Area                                    Addr        Size        Decimal Bytes (Attributes)
--------------------------------        ----        ----        ------- ----- ------------
_CODE_62                            003E4000    00003FFF =       16383. bytes (REL,CON)

      Value  Global                              Global Defined In Module
      -----  --------------------------------   ------------------------
     003E7798  GBVM$trigger_223_interact$a9a1cb   trigger_223_interact
     003E77A0  GBVM_END$trigger_223_interact$0f   trigger_223_interact
     003E77A0  GBVM_END$trigger_223_interact$a9   trigger_223_interact
     003E77A2  _trigger_224_interact              trigger_224_interact
     003E77A5  GBVM$trigger_224_interact$63d6db   trigger_224_interact
     003E77D8  _trigger_225_interact              trigger_225_interact
     003E77EC  GBVM$trigger_225_interact$d13884   trigger_225_interact
     003E77F4  GBVM_END$trigger_225_interact$d1   trigger_225_interact
     003E7806  GBVM$trigger_225_interact$1dcd9b   trigger_225_interact
     003E7808  GBVM$trigger_225_interact$9f58ed   trigger_225_interact
     003E780C  GBVM$trigger_225_interact$a71cff   trigger_225_interact
     003E780C  GBVM$trigger_225_interact$e7205e   trigger_225_interact
     003E7811  GBVM$trigger_225_interact$12e810   trigger_225_interact
     003E7818  GBVM$trigger_225_interact$96954d   trigger_225_interact
     003E781C  GBVM$trigger_225_interact$4f02e4   trigger_225_interact
     003E782B  GBVM$trigger_225_interact$3a3f1f   trigger_225_interact
     003E7833  GBVM_END$trigger_225_interact$3a   trigger_225_interact
     003E7833  GBVM_END$trigger_225_interact$a7   trigger_225_interact
     003E7835  _trigger_228_interact              trigger_228_interact
     003E7838  GBVM$trigger_228_interact$c14bb7   trigger_228_interact
     003E786B  _trigger_229_interact              trigger_229_interact
     003E786E  GBVM$trigger_229_interact$3e31cd   trigger_229_interact
     003E78A1  _trigger_23_interact               trigger_23_interact
     003E78B5  GBVM$trigger_23_interact$adc508c   trigger_23_interact
     003E78BD  GBVM_END$trigger_23_interact$adc   trigger_23_interact
     003E78CF  GBVM$trigger_23_interact$de291aa   trigger_23_interact
     003E78D1  GBVM$trigger_23_interact$4b74d42   trigger_23_interact
     003E78D5  GBVM$trigger_23_interact$200e18a   trigger_23_interact
     003E78D5  GBVM$trigger_23_interact$b0cfd03   trigger_23_interact
     003E78DA  GBVM$trigger_23_interact$29e8c02   trigger_23_interact
     003E78E1  GBVM$trigger_23_interact$c2b76c8   trigger_23_interact
     003E78E5  GBVM$trigger_23_interact$8892908   trigger_23_interact
     003E78F4  GBVM$trigger_23_interact$5cf7ff1   trigger_23_interact
     003E78FC  GBVM_END$trigger_23_interact$5cf   trigger_23_interact
     003E78FC  GBVM_END$trigger_23_interact$b0c   trigger_23_interact
     003E78FE  _trigger_233_interact              trigger_233_interact
     003E7901  GBVM$trigger_233_interact$7d697a   trigger_233_interact
     003E7934  _trigger_24_interact               trigger_24_interact
     003E7948  GBVM$trigger_24_interact$0c3cf82   trigger_24_interact
     003E7950  GBVM_END$trigger_24_interact$0c3   trigger_24_interact
     003E7962  GBVM$trigger_24_interact$5eabd6d   trigger_24_interact
     003E7964  GBVM$trigger_24_interact$3d12aad   trigger_24_interact
     003E796A  _trigger_25_interact               trigger_25_interact
     003E797E  GBVM$trigger_25_interact$28b5ec3   trigger_25_interact
     003E7986  GBVM_END$trigger_25_interact$28b   trigger_25_interact
     003E7998  GBVM$trigger_25_interact$f81bafa   trigger_25_interact
     003E799A  GBVM$trigger_25_interact$cee7597   trigger_25_interact
     003E79A0  _trigger_26_interact               trigger_26_interact
     003E79B4  GBVM$trigger_26_interact$5d409bf   trigger_26_interact
     003E79BC  GBVM_END$trigger_26_interact$5d4   trigger_26_interact
     003E79CE  GBVM$trigger_26_interact$a06e78f   trigger_26_interact
ASxxxx Linker V03.00/V05.40 + sdld,  page 126.
Hexadecimal  [32-Bits]

Area                                    Addr        Size        Decimal Bytes (Attributes)
--------------------------------        ----        ----        ------- ----- ------------
_CODE_62                            003E4000    00003FFF =       16383. bytes (REL,CON)

      Value  Global                              Global Defined In Module
      -----  --------------------------------   ------------------------
     003E79D0  GBVM$trigger_26_interact$f1c983b   trigger_26_interact
     003E79D6  _trigger_27_interact               trigger_27_interact
     003E79EA  GBVM$trigger_27_interact$c1f4af0   trigger_27_interact
     003E79F2  GBVM_END$trigger_27_interact$c1f   trigger_27_interact
     003E7A04  GBVM$trigger_27_interact$98476c2   trigger_27_interact
     003E7A06  GBVM$trigger_27_interact$4243e4b   trigger_27_interact
     003E7A0C  _trigger_28_interact               trigger_28_interact
     003E7A20  GBVM$trigger_28_interact$da70479   trigger_28_interact
     003E7A28  GBVM_END$trigger_28_interact$da7   trigger_28_interact
     003E7A3A  GBVM$trigger_28_interact$bfe023b   trigger_28_interact
     003E7A3C  GBVM$trigger_28_interact$a0d853c   trigger_28_interact
     003E7A42  _trigger_29_interact               trigger_29_interact
     003E7A56  GBVM$trigger_29_interact$285ff0f   trigger_29_interact
     003E7A5E  GBVM_END$trigger_29_interact$285   trigger_29_interact
     003E7A70  GBVM$trigger_29_interact$3750c23   trigger_29_interact
     003E7A72  GBVM$trigger_29_interact$956acd2   trigger_29_interact
     003E7A78  _trigger_30_interact               trigger_30_interact
     003E7A8C  GBVM$trigger_30_interact$167d9b4   trigger_30_interact
     003E7A94  GBVM_END$trigger_30_interact$167   trigger_30_interact
     003E7AA6  GBVM$trigger_30_interact$c2b79eb   trigger_30_interact
     003E7AA8  GBVM$trigger_30_interact$d31c033   trigger_30_interact
     003E7AAE  _trigger_31_interact               trigger_31_interact
     003E7AC2  GBVM$trigger_31_interact$e8a53c0   trigger_31_interact
     003E7ACA  GBVM_END$trigger_31_interact$e8a   trigger_31_interact
     003E7ADC  GBVM$trigger_31_interact$8d91531   trigger_31_interact
     003E7ADE  GBVM$trigger_31_interact$1883586   trigger_31_interact
     003E7AE4  _trigger_32_interact               trigger_32_interact
     003E7AF8  GBVM$trigger_32_interact$a47c98c   trigger_32_interact
     003E7B00  GBVM_END$trigger_32_interact$a47   trigger_32_interact
     003E7B12  GBVM$trigger_32_interact$e2e7873   trigger_32_interact
     003E7B14  GBVM$trigger_32_interact$a1fcd86   trigger_32_interact
     003E7B1A  _trigger_33_interact               trigger_33_interact
     003E7B2E  GBVM$trigger_33_interact$1929d84   trigger_33_interact
     003E7B36  GBVM_END$trigger_33_interact$192   trigger_33_interact
     003E7B48  GBVM$trigger_33_interact$f182773   trigger_33_interact
     003E7B4A  GBVM$trigger_33_interact$69942d1   trigger_33_interact
     003E7B50  _trigger_34_interact               trigger_34_interact
     003E7B64  GBVM$trigger_34_interact$18f8c99   trigger_34_interact
     003E7B6C  GBVM_END$trigger_34_interact$18f   trigger_34_interact
     003E7B7E  GBVM$trigger_34_interact$179670b   trigger_34_interact
     003E7B80  GBVM$trigger_34_interact$660f36b   trigger_34_interact
     003E7B86  _trigger_35_interact               trigger_35_interact
     003E7B9A  GBVM$trigger_35_interact$b51e7b0   trigger_35_interact
     003E7BA2  GBVM_END$trigger_35_interact$b51   trigger_35_interact
     003E7BB4  GBVM$trigger_35_interact$9605780   trigger_35_interact
     003E7BB6  GBVM$trigger_35_interact$51511e8   trigger_35_interact
     003E7BBC  _trigger_36_interact               trigger_36_interact
     003E7BD0  GBVM$trigger_36_interact$c4cf567   trigger_36_interact
     003E7BD8  GBVM_END$trigger_36_interact$c4c   trigger_36_interact
     003E7BEA  GBVM$trigger_36_interact$6138956   trigger_36_interact
     003E7BEC  GBVM$trigger_36_interact$3e7e0ee   trigger_36_interact
ASxxxx Linker V03.00/V05.40 + sdld,  page 127.
Hexadecimal  [32-Bits]

Area                                    Addr        Size        Decimal Bytes (Attributes)
--------------------------------        ----        ----        ------- ----- ------------
_CODE_62                            003E4000    00003FFF =       16383. bytes (REL,CON)

      Value  Global                              Global Defined In Module
      -----  --------------------------------   ------------------------
     003E7BF2  _trigger_37_interact               trigger_37_interact
     003E7C06  GBVM$trigger_37_interact$ade8be3   trigger_37_interact
     003E7C0E  GBVM_END$trigger_37_interact$ade   trigger_37_interact
     003E7C20  GBVM$trigger_37_interact$6197838   trigger_37_interact
     003E7C22  GBVM$trigger_37_interact$2bcfa5e   trigger_37_interact
     003E7C28  _trigger_38_interact               trigger_38_interact
     003E7C3C  GBVM$trigger_38_interact$74f8a26   trigger_38_interact
     003E7C44  GBVM_END$trigger_38_interact$74f   trigger_38_interact
     003E7C56  GBVM$trigger_38_interact$2c292df   trigger_38_interact
     003E7C58  GBVM$trigger_38_interact$233e272   trigger_38_interact
     003E7C58  GBVM$trigger_38_interact$c637daf   trigger_38_interact
     003E7C5D  GBVM$trigger_38_interact$d57cc65   trigger_38_interact
     003E7C64  GBVM$trigger_38_interact$375fc42   trigger_38_interact
     003E7C68  GBVM$trigger_38_interact$f7ec079   trigger_38_interact
     003E7C77  GBVM$trigger_38_interact$b69534d   trigger_38_interact
     003E7C7F  GBVM$trigger_38_interact$e7ff4db   trigger_38_interact
     003E7C7F  GBVM_END$trigger_38_interact$233   trigger_38_interact
     003E7C7F  GBVM_END$trigger_38_interact$b69   trigger_38_interact
     003E7C85  _trigger_39_interact               trigger_39_interact
     003E7C99  GBVM$trigger_39_interact$85c0da0   trigger_39_interact
     003E7CA1  GBVM_END$trigger_39_interact$85c   trigger_39_interact
     003E7CB3  GBVM$trigger_39_interact$c06f0d8   trigger_39_interact
     003E7CB5  GBVM$trigger_39_interact$9c70c3b   trigger_39_interact
     003E7CBB  _trigger_40_interact               trigger_40_interact
     003E7CBE  GBVM$trigger_40_interact$27dbccb   trigger_40_interact
     003E7CBE  GBVM$trigger_40_interact$7097b27   trigger_40_interact
     003E7CDC  GBVM$trigger_40_interact$ae3c749   trigger_40_interact
     003E7CDC  GBVM_END$trigger_40_interact$709   trigger_40_interact
     003E7D13  _trigger_41_interact               trigger_41_interact
     003E7D16  GBVM$trigger_41_interact$61e4a55   trigger_41_interact
     003E7D44  GBVM$trigger_41_interact$230a652   trigger_41_interact
     003E7D50  GBVM$trigger_41_interact$0725c0f   trigger_41_interact
     003E7D5C  GBVM$trigger_41_interact$34629ce   trigger_41_interact
     003E7D61  _trigger_43_interact               trigger_43_interact
     003E7D64  GBVM$trigger_43_interact$fe4b5a8   trigger_43_interact
     003E7D92  GBVM$trigger_43_interact$1fe5e0b   trigger_43_interact
     003E7D9E  GBVM$trigger_43_interact$5e04341   trigger_43_interact
     003E7DAA  GBVM$trigger_43_interact$b65c145   trigger_43_interact
     003E7DAF  _trigger_44_interact               trigger_44_interact
     003E7DB2  GBVM$trigger_44_interact$b84b598   trigger_44_interact
     003E7DE0  GBVM$trigger_44_interact$fe09012   trigger_44_interact
     003E7DEC  GBVM$trigger_44_interact$ad4c2ad   trigger_44_interact
     003E7DF8  GBVM$trigger_44_interact$253389b   trigger_44_interact
     003E7DFD  _trigger_46_interact               trigger_46_interact
     003E7E11  GBVM$trigger_46_interact$4318090   trigger_46_interact
     003E7E19  GBVM_END$trigger_46_interact$431   trigger_46_interact
     003E7E2B  GBVM$trigger_46_interact$235cca7   trigger_46_interact
     003E7E2D  GBVM$trigger_46_interact$2b2ae4c   trigger_46_interact
     003E7E33  _trigger_47_interact               trigger_47_interact
     003E7E36  GBVM$trigger_47_interact$fc6090f   trigger_47_interact
     003E7E69  _trigger_48_interact               trigger_48_interact
ASxxxx Linker V03.00/V05.40 + sdld,  page 128.
Hexadecimal  [32-Bits]

Area                                    Addr        Size        Decimal Bytes (Attributes)
--------------------------------        ----        ----        ------- ----- ------------
_CODE_62                            003E4000    00003FFF =       16383. bytes (REL,CON)

      Value  Global                              Global Defined In Module
      -----  --------------------------------   ------------------------
     003E7E6C  GBVM$trigger_48_interact$c2fc9c1   trigger_48_interact
     003E7E9F  _trigger_5_interact                trigger_5_interact
     003E7EA2  GBVM$trigger_5_interact$979e71fa   trigger_5_interact
     003E7EC0  GBVM$trigger_5_interact$25687fb5   trigger_5_interact
     003E7EF7  _trigger_68_interact               trigger_68_interact
     003E7EFA  GBVM$trigger_68_interact$4d70cfa   trigger_68_interact
     003E7EFA  GBVM$trigger_68_interact$ebaaf36   trigger_68_interact
     003E7F18  GBVM$trigger_68_interact$b620b0b   trigger_68_interact
     003E7F18  GBVM_END$trigger_68_interact$4d7   trigger_68_interact
     003E7F4F  _trigger_8_interact                trigger_8_interact
     003E7F52  GBVM$trigger_8_interact$740f77d4   trigger_8_interact
     003E7F70  GBVM$trigger_8_interact$9a53c48a   trigger_8_interact
     003E7FA7  _trigger_80_interact               trigger_80_interact
     003E7FAA  GBVM$trigger_80_interact$5b18c4b   trigger_80_interact
     003E7FAA  GBVM$trigger_80_interact$cd2d7fa   trigger_80_interact
     003E7FC8  GBVM$trigger_80_interact$6a9d2ad   trigger_80_interact
     003E7FC8  GBVM_END$trigger_80_interact$cd2   trigger_80_interact

ASxxxx Linker V03.00/V05.40 + sdld,  page 129.
Hexadecimal  [32-Bits]

Area                                    Addr        Size        Decimal Bytes (Attributes)
--------------------------------        ----        ----        ------- ----- ------------
_HEADER_SIO0                        00000000    00000004 =           4. bytes (ABS,CON)

      Value  Global                              Global Defined In Module
      -----  --------------------------------   ------------------------
ASxxxx Linker V03.00/V05.40 + sdld,  page 130.
Hexadecimal  [32-Bits]

Area                                    Addr        Size        Decimal Bytes (Attributes)
--------------------------------        ----        ----        ------- ----- ------------
_HEADER_TIMER0                      00000000    00000004 =           4. bytes (ABS,CON)

      Value  Global                              Global Defined In Module
      -----  --------------------------------   ------------------------
ASxxxx Linker V03.00/V05.40 + sdld,  page 131.
Hexadecimal  [32-Bits]

Area                                    Addr        Size        Decimal Bytes (Attributes)
--------------------------------        ----        ----        ------- ----- ------------
_CODE_63                            003F4000    000017FB =        6139. bytes (REL,CON)

      Value  Global                              Global Defined In Module
      -----  --------------------------------   ------------------------
     003F4000  _remove_LCD_ISRs                   interrupts
     003F401B  _parallax_init                     parallax
     003F403B  GBVM$actor_14_update$f662f00a_92   actor_14_update
     003F403B  _actor_14_update                   actor_14_update
     003F4047  GBVM$actor_14_update$83ee93dc_69   actor_14_update
     003F404C  GBVM$actor_14_update$f021b97f_59   actor_14_update
     003F4050  GBVM_END$actor_14_update$f662f00   actor_14_update
     003F4055  _actor_15_interact                 actor_15_interact
     003F4056  GBVM$actor_15_interact$2a7296e7_   actor_15_interact
     003F405B  _actor_16_interact                 actor_16_interact
     003F405C  GBVM$actor_16_interact$236eb974_   actor_16_interact
     003F4061  _actor_17_interact                 actor_17_interact
     003F4062  GBVM$actor_17_interact$51caca34_   actor_17_interact
     003F4067  ___func_bg_blight_s_memory_p1      bg_blight_s_memory_p1
     003F4067  _bg_blight_s_memory_p1             bg_blight_s_memory_p1
     003F4075  ___func_bg_earth_burnclaw_forest   bg_earth_burnclaw_forest_ca
     003F4075  _bg_earth_burnclaw_forest_ca       bg_earth_burnclaw_forest_ca
     003F4083  ___func_bg_earth_burnclaw_forest   bg_earth_burnclaw_forest_cr
     003F4083  _bg_earth_burnclaw_forest_cr       bg_earth_burnclaw_forest_cr
     003F4091  ___func_bg_earth_burnclaw_forest   bg_earth_burnclaw_forest
     003F4091  _bg_earth_burnclaw_forest          bg_earth_burnclaw_forest
     003F409F  ___func_bg_earth_distortion_moun   bg_earth_distortion_mountai
     003F409F  _bg_earth_distortion_mountai       bg_earth_distortion_mountai
     003F40AD  ___func_bg_earth_level_1_intro     bg_earth_level_1_intro
     003F40AD  _bg_earth_level_1_intro            bg_earth_level_1_intro
     003F40BB  ___func_bg_earth_shuttle_bay_sec   bg_earth_shuttle_bay_secret
     003F40BB  _bg_earth_shuttle_bay_secret       bg_earth_shuttle_bay_secret
     003F40C9  ___func_bg_earth_shuttle_bay_upp   bg_earth_shuttle_bay_upper
     003F40C9  _bg_earth_shuttle_bay_upper        bg_earth_shuttle_bay_upper
     003F40D7  ___func_bg_earth_shuttle_bay_wat   bg_earth_shuttle_bay_water
     003F40D7  _bg_earth_shuttle_bay_water        bg_earth_shuttle_bay_water
     003F40E5  ___func_bg_earth_shuttle_bay       bg_earth_shuttle_bay
     003F40E5  _bg_earth_shuttle_bay              bg_earth_shuttle_bay
     003F40F3  ___func_bg_game_menu               bg_game_menu
     003F40F3  _bg_game_menu                      bg_game_menu
     003F4101  ___func_bg_hud_ui                  bg_hud_ui
     003F4101  _bg_hud_ui                         bg_hud_ui
     003F410F  ___func_bg_jems_background         bg_jems_background
     003F410F  _bg_jems_background                bg_jems_background
     003F411D  ___func_bg_level_1                 bg_level_1
     003F411D  _bg_level_1                        bg_level_1
     003F412B  ___func_bg_level_2                 bg_level_2
     003F412B  _bg_level_2                        bg_level_2
     003F4139  ___func_bg_luna_boss_room          bg_luna_boss_room
     003F4139  _bg_luna_boss_room                 bg_luna_boss_room
     003F4147  ___func_bg_luna_peryil_s_house     bg_luna_peryil_s_house
     003F4147  _bg_luna_peryil_s_house            bg_luna_peryil_s_house
     003F4155  ___func_bg_luna_serenity_cave_lo   bg_luna_serenity_cave_lower
     003F4155  _bg_luna_serenity_cave_lower       bg_luna_serenity_cave_lower
     003F4163  ___func_bg_luna_serenity_cave_up   bg_luna_serenity_cave_upper
ASxxxx Linker V03.00/V05.40 + sdld,  page 132.
Hexadecimal  [32-Bits]

Area                                    Addr        Size        Decimal Bytes (Attributes)
--------------------------------        ----        ----        ------- ----- ------------
_CODE_63                            003F4000    000017FB =        6139. bytes (REL,CON)

      Value  Global                              Global Defined In Module
      -----  --------------------------------   ------------------------
     003F4163  _bg_luna_serenity_cave_upper       bg_luna_serenity_cave_upper
     003F4171  ___func_bg_luna_serenity_forest    bg_luna_serenity_forest
     003F4171  _bg_luna_serenity_forest           bg_luna_serenity_forest
     003F417F  ___func_bg_luna_serenity_outskir   bg_luna_serenity_outskirts
     003F417F  _bg_luna_serenity_outskirts        bg_luna_serenity_outskirts
     003F418D  ___func_bg_luna_serenity_waterfr   bg_luna_serenity_waterfront
     003F418D  _bg_luna_serenity_waterfront       bg_luna_serenity_waterfront
     003F419B  ___func_bg_luna_sewer_system       bg_luna_sewer_system
     003F419B  _bg_luna_sewer_system              bg_luna_sewer_system
     003F41A9  ___func_bg_luna_water_heater       bg_luna_water_heater
     003F41A9  _bg_luna_water_heater              bg_luna_water_heater
     003F41B7  ___func_bg_menu_load_background    bg_menu_load_background
     003F41B7  _bg_menu_load_background           bg_menu_load_background
     003F41C5  ___func_bg_mercury_landing_site    bg_mercury_landing_site
     003F41C5  _bg_mercury_landing_site           bg_mercury_landing_site
     003F41D3  ___func_bg_mercury_overflow_pass   bg_mercury_overflow_passage
     003F41D3  _bg_mercury_overflow_passage       bg_mercury_overflow_passage
     003F41E1  ___func_bg_mercury_poison_proces   bg_mercury_poison_processin
     003F41E1  _bg_mercury_poison_processin       bg_mercury_poison_processin
     003F41EF  ___func_bg_mercury_poison_storag   bg_mercury_poison_storage
     003F41EF  _bg_mercury_poison_storage         bg_mercury_poison_storage
     003F41FD  ___func_bg_mercury_projectile_pl   bg_mercury_projectile_platf
     003F41FD  _bg_mercury_projectile_platf       bg_mercury_projectile_platf
     003F420B  ___func_bg_mercury_secret_area     bg_mercury_secret_area
     003F420B  _bg_mercury_secret_area            bg_mercury_secret_area
     003F4219  ___func_bg_mercury_throne_room     bg_mercury_throne_room
     003F4219  _bg_mercury_throne_room            bg_mercury_throne_room
     003F4227  ___func_bg_mercury_viewing_area    bg_mercury_viewing_area
     003F4227  _bg_mercury_viewing_area           bg_mercury_viewing_area
     003F4235  ___func_bg_placeholder             bg_placeholder
     003F4235  _bg_placeholder                    bg_placeholder
     003F4243  ___func_bg_platformer_test01       bg_platformer_test01
     003F4243  _bg_platformer_test01              bg_platformer_test01
     003F4251  ___func_bg_settings                bg_settings
     003F4251  _bg_settings                       bg_settings
     003F425F  ___func_bg_temporal_light_backgr   bg_temporal_light_backgroun
     003F425F  _bg_temporal_light_backgroun       bg_temporal_light_backgroun
     003F426D  ___func_bg_title                   bg_title
     003F426D  _bg_title                          bg_title
     003F427B  ___func_bg_venus_ac_ventilation    bg_venus_ac_ventilation
     003F427B  _bg_venus_ac_ventilation           bg_venus_ac_ventilation
     003F4289  ___func_bg_venus_ac_ventilation2   bg_venus_ac_ventilation2
     003F4289  _bg_venus_ac_ventilation2          bg_venus_ac_ventilation2
     003F4297  ___func_bg_venus_defence_tunnel    bg_venus_defence_tunnel
     003F4297  _bg_venus_defence_tunnel           bg_venus_defence_tunnel
     003F42A5  ___func_bg_venus_dropshaft_0       bg_venus_dropshaft_0
     003F42A5  _bg_venus_dropshaft_0              bg_venus_dropshaft_0
     003F42B3  ___func_bg_venus_dropshaft_1       bg_venus_dropshaft_1
     003F42B3  _bg_venus_dropshaft_1              bg_venus_dropshaft_1
     003F42C1  ___func_bg_venus_evidence_room     bg_venus_evidence_room
     003F42C1  _bg_venus_evidence_room            bg_venus_evidence_room
ASxxxx Linker V03.00/V05.40 + sdld,  page 133.
Hexadecimal  [32-Bits]

Area                                    Addr        Size        Decimal Bytes (Attributes)
--------------------------------        ----        ----        ------- ----- ------------
_CODE_63                            003F4000    000017FB =        6139. bytes (REL,CON)

      Value  Global                              Global Defined In Module
      -----  --------------------------------   ------------------------
     003F42CF  ___func_bg_venus_landing_site      bg_venus_landing_site
     003F42CF  _bg_venus_landing_site             bg_venus_landing_site
     003F42DD  ___func_bg_venus_office_access     bg_venus_office_access
     003F42DD  _bg_venus_office_access            bg_venus_office_access
     003F42EB  ___func_bg_venus_office            bg_venus_office
     003F42EB  _bg_venus_office                   bg_venus_office
     003F42F9  ___func_bg_venus_police_departme   bg_venus_police_department_
     003F42F9  _bg_venus_police_department_       bg_venus_police_department_
     003F4307  ___func_bg_warning                 bg_warning
     003F4307  _bg_warning                        bg_warning
     003F4315  ___func_cursor_image               cursor_image
     003F4315  _cursor_image                      cursor_image
     003F4325  ___func_scene_1_triggers           scene_1_triggers
     003F4325  _scene_1_triggers                  scene_1_triggers
     003F4335  ___func_scene_10_sprites           scene_10_sprites
     003F4335  _scene_10_sprites                  scene_10_sprites
     003F433B  ___func_scene_11_sprites           scene_11_sprites
     003F433B  _scene_11_sprites                  scene_11_sprites
     003F4341  ___func_scene_11_triggers          scene_11_triggers
     003F4341  _scene_11_triggers                 scene_11_triggers
     003F4349  ___func_scene_12_sprites           scene_12_sprites
     003F4349  _scene_12_sprites                  scene_12_sprites
     003F434F  ___func_scene_12_triggers          scene_12_triggers
     003F434F  _scene_12_triggers                 scene_12_triggers
     003F4357  ___func_scene_13_sprites           scene_13_sprites
     003F4357  _scene_13_sprites                  scene_13_sprites
     003F435D  ___func_scene_14_sprites           scene_14_sprites
     003F435D  _scene_14_sprites                  scene_14_sprites
     003F4363  ___func_scene_15_sprites           scene_15_sprites
     003F4363  _scene_15_sprites                  scene_15_sprites
     003F4369  ___func_scene_16_sprites           scene_16_sprites
     003F4369  _scene_16_sprites                  scene_16_sprites
     003F436F  ___func_scene_19_triggers          scene_19_triggers
     003F436F  _scene_19_triggers                 scene_19_triggers
     003F438F  ___func_scene_20_triggers          scene_20_triggers
     003F438F  _scene_20_triggers                 scene_20_triggers
     003F4397  ___func_scene_21_projectiles       scene_21_projectiles
     003F4397  _scene_21_projectiles              scene_21_projectiles
     003F43AE  ___func_scene_21_sprites           scene_21_sprites
     003F43AE  _scene_21_sprites                  scene_21_sprites
     003F43B4  ___func_scene_22_projectiles       scene_22_projectiles
     003F43B4  _scene_22_projectiles              scene_22_projectiles
     003F43CB  ___func_scene_22_sprites           scene_22_sprites
     003F43CB  _scene_22_sprites                  scene_22_sprites
     003F43D1  ___func_scene_23_projectiles       scene_23_projectiles
     003F43D1  _scene_23_projectiles              scene_23_projectiles
     003F43E8  ___func_scene_23_sprites           scene_23_sprites
     003F43E8  _scene_23_sprites                  scene_23_sprites
     003F43EE  ___func_scene_24_projectiles       scene_24_projectiles
     003F43EE  _scene_24_projectiles              scene_24_projectiles
     003F4405  ___func_scene_24_sprites           scene_24_sprites
ASxxxx Linker V03.00/V05.40 + sdld,  page 134.
Hexadecimal  [32-Bits]

Area                                    Addr        Size        Decimal Bytes (Attributes)
--------------------------------        ----        ----        ------- ----- ------------
_CODE_63                            003F4000    000017FB =        6139. bytes (REL,CON)

      Value  Global                              Global Defined In Module
      -----  --------------------------------   ------------------------
     003F4405  _scene_24_sprites                  scene_24_sprites
     003F440B  ___func_scene_25_projectiles       scene_25_projectiles
     003F440B  _scene_25_projectiles              scene_25_projectiles
     003F4422  ___func_scene_25_sprites           scene_25_sprites
     003F4422  _scene_25_sprites                  scene_25_sprites
     003F4428  ___func_scene_26_projectiles       scene_26_projectiles
     003F4428  _scene_26_projectiles              scene_26_projectiles
     003F443F  ___func_scene_27_projectiles       scene_27_projectiles
     003F443F  _scene_27_projectiles              scene_27_projectiles
     003F4456  ___func_scene_28_sprites           scene_28_sprites
     003F4456  _scene_28_sprites                  scene_28_sprites
     003F445C  ___func_scene_31_projectiles       scene_31_projectiles
     003F445C  _scene_31_projectiles              scene_31_projectiles
     003F4473  ___func_scene_32_projectiles       scene_32_projectiles
     003F4473  _scene_32_projectiles              scene_32_projectiles
     003F448A  ___func_scene_32_sprites           scene_32_sprites
     003F448A  _scene_32_sprites                  scene_32_sprites
     003F4490  ___func_scene_33_projectiles       scene_33_projectiles
     003F4490  _scene_33_projectiles              scene_33_projectiles
     003F44A7  ___func_scene_33_sprites           scene_33_sprites
     003F44A7  _scene_33_sprites                  scene_33_sprites
     003F44AD  ___func_scene_33_triggers          scene_33_triggers
     003F44AD  _scene_33_triggers                 scene_33_triggers
     003F44BD  ___func_scene_34_projectiles       scene_34_projectiles
     003F44BD  _scene_34_projectiles              scene_34_projectiles
     003F44D4  ___func_scene_34_sprites           scene_34_sprites
     003F44D4  _scene_34_sprites                  scene_34_sprites
     003F44D7  _scene_35_p_hit1                   scene_35_p_hit1
     003F44EA  GBVM$scene_35_p_hit1$f4c0d33c_36   scene_35_p_hit1
     003F44F7  ___func_scene_35_sprites           scene_35_sprites
     003F44F7  _scene_35_sprites                  scene_35_sprites
     003F44FD  ___func_scene_36_projectiles       scene_36_projectiles
     003F44FD  _scene_36_projectiles              scene_36_projectiles
     003F4514  ___func_scene_36_sprites           scene_36_sprites
     003F4514  _scene_36_sprites                  scene_36_sprites
     003F4517  ___func_scene_37_projectiles       scene_37_projectiles
     003F4517  _scene_37_projectiles              scene_37_projectiles
     003F452E  ___func_scene_37_sprites           scene_37_sprites
     003F452E  _scene_37_sprites                  scene_37_sprites
     003F4531  ___func_scene_37_triggers          scene_37_triggers
     003F4531  _scene_37_triggers                 scene_37_triggers
     003F4541  ___func_scene_38_projectiles       scene_38_projectiles
     003F4541  _scene_38_projectiles              scene_38_projectiles
     003F4558  ___func_scene_38_sprites           scene_38_sprites
     003F4558  _scene_38_sprites                  scene_38_sprites
     003F455E  ___func_scene_38_triggers          scene_38_triggers
     003F455E  _scene_38_triggers                 scene_38_triggers
     003F456E  ___func_scene_39_sprites           scene_39_sprites
     003F456E  _scene_39_sprites                  scene_39_sprites
     003F4571  ___func_scene_40_sprites           scene_40_sprites
     003F4571  _scene_40_sprites                  scene_40_sprites
ASxxxx Linker V03.00/V05.40 + sdld,  page 135.
Hexadecimal  [32-Bits]

Area                                    Addr        Size        Decimal Bytes (Attributes)
--------------------------------        ----        ----        ------- ----- ------------
_CODE_63                            003F4000    000017FB =        6139. bytes (REL,CON)

      Value  Global                              Global Defined In Module
      -----  --------------------------------   ------------------------
     003F4586  ___func_scene_41_projectiles       scene_41_projectiles
     003F4586  _scene_41_projectiles              scene_41_projectiles
     003F459D  ___func_scene_41_sprites           scene_41_sprites
     003F459D  _scene_41_sprites                  scene_41_sprites
     003F45A3  ___func_scene_42_projectiles       scene_42_projectiles
     003F45A3  _scene_42_projectiles              scene_42_projectiles
     003F45BA  ___func_scene_42_sprites           scene_42_sprites
     003F45BA  _scene_42_sprites                  scene_42_sprites
     003F45C0  ___func_scene_42_triggers          scene_42_triggers
     003F45C0  _scene_42_triggers                 scene_42_triggers
     003F45C8  ___func_scene_43_projectiles       scene_43_projectiles
     003F45C8  _scene_43_projectiles              scene_43_projectiles
     003F45DF  ___func_scene_44_projectiles       scene_44_projectiles
     003F45DF  _scene_44_projectiles              scene_44_projectiles
     003F45F6  ___func_scene_44_sprites           scene_44_sprites
     003F45F6  _scene_44_sprites                  scene_44_sprites
     003F45FC  ___func_scene_44_triggers          scene_44_triggers
     003F45FC  _scene_44_triggers                 scene_44_triggers
     003F460C  _scene_45_p_hit1                   scene_45_p_hit1
     003F461F  GBVM$scene_45_p_hit1$c7fd54db_31   scene_45_p_hit1
     003F462C  ___func_scene_45_sprites           scene_45_sprites
     003F462C  _scene_45_sprites                  scene_45_sprites
     003F4632  ___func_scene_45_triggers          scene_45_triggers
     003F4632  _scene_45_triggers                 scene_45_triggers
     003F4652  ___func_scene_46_projectiles       scene_46_projectiles
     003F4652  _scene_46_projectiles              scene_46_projectiles
     003F4669  ___func_scene_46_sprites           scene_46_sprites
     003F4669  _scene_46_sprites                  scene_46_sprites
     003F466C  ___func_scene_46_triggers          scene_46_triggers
     003F466C  _scene_46_triggers                 scene_46_triggers
     003F468C  _scene_47_p_hit1                   scene_47_p_hit1
     003F469F  GBVM$scene_47_p_hit1$be82aae2_28   scene_47_p_hit1
     003F46AC  ___func_scene_48_projectiles       scene_48_projectiles
     003F46AC  _scene_48_projectiles              scene_48_projectiles
     003F46C3  ___func_scene_48_sprites           scene_48_sprites
     003F46C3  _scene_48_sprites                  scene_48_sprites
     003F46C6  ___func_scene_48_triggers          scene_48_triggers
     003F46C6  _scene_48_triggers                 scene_48_triggers
     003F46D6  ___func_scene_49_projectiles       scene_49_projectiles
     003F46D6  _scene_49_projectiles              scene_49_projectiles
     003F46ED  ___func_scene_49_sprites           scene_49_sprites
     003F46ED  _scene_49_sprites                  scene_49_sprites
     003F46F0  ___func_scene_50_projectiles       scene_50_projectiles
     003F46F0  _scene_50_projectiles              scene_50_projectiles
     003F4707  ___func_scene_50_sprites           scene_50_sprites
     003F4707  _scene_50_sprites                  scene_50_sprites
     003F470A  _scene_51_p_hit1                   scene_51_p_hit1
     003F471D  GBVM$scene_51_p_hit1$222a3f78_f0   scene_51_p_hit1
     003F472A  ___func_scene_51_sprites           scene_51_sprites
     003F472A  _scene_51_sprites                  scene_51_sprites
     003F472D  ___func_scene_52_sprites           scene_52_sprites
ASxxxx Linker V03.00/V05.40 + sdld,  page 136.
Hexadecimal  [32-Bits]

Area                                    Addr        Size        Decimal Bytes (Attributes)
--------------------------------        ----        ----        ------- ----- ------------
_CODE_63                            003F4000    000017FB =        6139. bytes (REL,CON)

      Value  Global                              Global Defined In Module
      -----  --------------------------------   ------------------------
     003F472D  _scene_52_sprites                  scene_52_sprites
     003F4730  ___func_scene_53_sprites           scene_53_sprites
     003F4730  _scene_53_sprites                  scene_53_sprites
     003F4733  ___func_scene_54_projectiles       scene_54_projectiles
     003F4733  _scene_54_projectiles              scene_54_projectiles
     003F474A  ___func_scene_55_projectiles       scene_55_projectiles
     003F474A  _scene_55_projectiles              scene_55_projectiles
     003F4761  ___func_scene_55_sprites           scene_55_sprites
     003F4761  _scene_55_sprites                  scene_55_sprites
     003F4767  ___func_scene_55_triggers          scene_55_triggers
     003F4767  _scene_55_triggers                 scene_55_triggers
     003F4787  _scene_56_init                     scene_56_init
     003F4788  GBVM$scene_56_init$autofade$2d10   scene_56_init
     003F4794  _scene_57_init                     scene_57_init
     003F4795  GBVM$scene_57_init$autofade$4286   scene_57_init
     003F47A1  ___func_scene_59_sprites           scene_59_sprites
     003F47A1  _scene_59_sprites                  scene_59_sprites
     003F47AA  _scene_7_init                      scene_7_init
     003F47AB  GBVM$scene_7_init$autofade$fba6a   scene_7_init
     003F47B7  ___func_scene_8_projectiles        scene_8_projectiles
     003F47B7  _scene_8_projectiles               scene_8_projectiles
     003F47CE  ___func_scene_8_sprites            scene_8_sprites
     003F47CE  _scene_8_sprites                   scene_8_sprites
     003F47D1  ___func_scene_8_triggers           scene_8_triggers
     003F47D1  _scene_8_triggers                  scene_8_triggers
     003F47D9  ___func_scene_9_projectiles        scene_9_projectiles
     003F47D9  _scene_9_projectiles               scene_9_projectiles
     003F47F0  ___func_scene_9_sprites            scene_9_sprites
     003F47F0  _scene_9_sprites                   scene_9_sprites
     003F47F3  GBVM$script_12$35c7ec41_9a1e_43e   script_12
     003F47F3  _script_12                         script_12
     003F47FC  GBVM$script_12$34789f26_b175_427   script_12
     003F4804  GBVM$script_12$9ab20e50_8b12_421   script_12
     003F4809  GBVM$script_12$cc62690a_2039_481   script_12
     003F480E  GBVM_END$script_12$35c7ec41_9a1e   script_12
     003F4810  GBVM$script_14$8206776a_db70_442   script_14
     003F4810  _script_14                         script_14
     003F4819  GBVM$script_14$68e3d862_ea5c_498   script_14
     003F4821  GBVM$script_14$e3a4bfee_8fa9_485   script_14
     003F4826  GBVM$script_14$80b01512_866b_481   script_14
     003F482B  GBVM_END$script_14$8206776a_db70   script_14
     003F482D  GBVM$script_5$b1acecf9_105c_4651   script_5
     003F482D  _script_5                          script_5
     003F4836  GBVM$script_5$bb2e09cf_dd77_4eaf   script_5
     003F483E  GBVM$script_5$12d3dad8_1d16_485d   script_5
     003F4843  GBVM$script_5$65f490bb_4547_4133   script_5
     003F4848  GBVM_END$script_5$b1acecf9_105c_   script_5
     003F484A  GBVM$script_6$d0ff816f_db8d_4211   script_6
     003F484A  _script_6                          script_6
     003F4857  GBVM$script_input_36$a949a99f_0d   script_input_36
     003F4857  _script_input_36                   script_input_36
ASxxxx Linker V03.00/V05.40 + sdld,  page 137.
Hexadecimal  [32-Bits]

Area                                    Addr        Size        Decimal Bytes (Attributes)
--------------------------------        ----        ----        ------- ----- ------------
_CODE_63                            003F4000    000017FB =        6139. bytes (REL,CON)

      Value  Global                              Global Defined In Module
      -----  --------------------------------   ------------------------
     003F4859  GBVM$script_input_36$773228fa_c9   script_input_36
     003F485E  GBVM$script_input_36$3aabbe39_76   script_input_36
     003F4873  GBVM$script_input_38$bf354e4f_49   script_input_38
     003F4873  _script_input_38                   script_input_38
     003F4875  GBVM$script_input_38$dd207ae2_35   script_input_38
     003F488A  GBVM$script_input_8$f77f388f_050   script_input_8
     003F488A  _script_input_8                    script_input_8
     003F488C  GBVM$script_input_8$2272c911_6f5   script_input_8
     003F48A1  _script_timer_10                   script_timer_10
     003F48A3  GBVM$script_timer_10$9b1976b3_97   script_timer_10
     003F48B3  _script_timer_11                   script_timer_11
     003F48B5  GBVM$script_timer_11$e0fa547c_27   script_timer_11
     003F48C5  _script_timer_12                   script_timer_12
     003F48C7  GBVM$script_timer_12$12c792a4_9a   script_timer_12
     003F48D7  _script_timer_13                   script_timer_13
     003F48D9  GBVM$script_timer_13$f39c797a_1b   script_timer_13
     003F48E9  _script_timer_14                   script_timer_14
     003F48EB  GBVM$script_timer_14$19349a04_b7   script_timer_14
     003F48FB  _script_timer_15                   script_timer_15
     003F48FD  GBVM$script_timer_15$d6472954_05   script_timer_15
     003F490D  _script_timer_16                   script_timer_16
     003F490F  GBVM$script_timer_16$6184bbd3_84   script_timer_16
     003F491F  _script_timer_17                   script_timer_17
     003F4921  GBVM$script_timer_17$0e59a66a_c8   script_timer_17
     003F4931  _script_timer_18                   script_timer_18
     003F4933  GBVM$script_timer_18$7d74c99b_65   script_timer_18
     003F4943  _script_timer_19                   script_timer_19
     003F4945  GBVM$script_timer_19$7b161f67_08   script_timer_19
     003F4955  _script_timer_20                   script_timer_20
     003F4957  GBVM$script_timer_20$22ac90cf_fa   script_timer_20
     003F4967  _script_timer_21                   script_timer_21
     003F4969  GBVM$script_timer_21$da27e8a2_37   script_timer_21
     003F4979  _script_timer_22                   script_timer_22
     003F497B  GBVM$script_timer_22$cc1f5b50_fd   script_timer_22
     003F498B  _script_timer_23                   script_timer_23
     003F498D  GBVM$script_timer_23$cea24bed_29   script_timer_23
     003F499D  _script_timer_24                   script_timer_24
     003F499F  GBVM$script_timer_24$66cc7c4d_ee   script_timer_24
     003F49AF  _script_timer_25                   script_timer_25
     003F49B1  GBVM$script_timer_25$bd624ed9_ee   script_timer_25
     003F49C1  _script_timer_26                   script_timer_26
     003F49C3  GBVM$script_timer_26$6c464012_51   script_timer_26
     003F49D3  _script_timer_27                   script_timer_27
     003F49D5  GBVM$script_timer_27$1bfc9666_b4   script_timer_27
     003F49E5  _script_timer_28                   script_timer_28
     003F49E7  GBVM$script_timer_28$c2204521_67   script_timer_28
     003F49F7  _script_timer_29                   script_timer_29
     003F49F9  GBVM$script_timer_29$4d1d64b3_10   script_timer_29
     003F4A09  _script_timer_3                    script_timer_3
     003F4A0B  GBVM$script_timer_3$15f5281a_ded   script_timer_3
     003F4A1B  _script_timer_30                   script_timer_30
ASxxxx Linker V03.00/V05.40 + sdld,  page 138.
Hexadecimal  [32-Bits]

Area                                    Addr        Size        Decimal Bytes (Attributes)
--------------------------------        ----        ----        ------- ----- ------------
_CODE_63                            003F4000    000017FB =        6139. bytes (REL,CON)

      Value  Global                              Global Defined In Module
      -----  --------------------------------   ------------------------
     003F4A1D  GBVM$script_timer_30$05fee45d_b4   script_timer_30
     003F4A2D  _script_timer_31                   script_timer_31
     003F4A2F  GBVM$script_timer_31$7aeaf465_65   script_timer_31
     003F4A3F  _script_timer_32                   script_timer_32
     003F4A41  GBVM$script_timer_32$461dd357_f9   script_timer_32
     003F4A51  _script_timer_33                   script_timer_33
     003F4A53  GBVM$script_timer_33$654432e3_23   script_timer_33
     003F4A63  _script_timer_34                   script_timer_34
     003F4A65  GBVM$script_timer_34$7bf309dd_8a   script_timer_34
     003F4A75  _script_timer_35                   script_timer_35
     003F4A77  GBVM$script_timer_35$ba2f56f0_24   script_timer_35
     003F4A87  _script_timer_36                   script_timer_36
     003F4A89  GBVM$script_timer_36$6a6c8db5_a8   script_timer_36
     003F4A99  _script_timer_37                   script_timer_37
     003F4A9B  GBVM$script_timer_37$a669e971_13   script_timer_37
     003F4AAB  _script_timer_38                   script_timer_38
     003F4AAD  GBVM$script_timer_38$9af9aa5e_ef   script_timer_38
     003F4ABD  _script_timer_39                   script_timer_39
     003F4ABF  GBVM$script_timer_39$e518ccc1_48   script_timer_39
     003F4ACF  _script_timer_4                    script_timer_4
     003F4AD1  GBVM$script_timer_4$b7215c7a_588   script_timer_4
     003F4AE1  _script_timer_40                   script_timer_40
     003F4AE3  GBVM$script_timer_40$cfbd322d_32   script_timer_40
     003F4AF3  _script_timer_41                   script_timer_41
     003F4AF5  GBVM$script_timer_41$11ba139c_6a   script_timer_41
     003F4B05  _script_timer_42                   script_timer_42
     003F4B07  GBVM$script_timer_42$ff14b3b3_48   script_timer_42
     003F4B17  _script_timer_43                   script_timer_43
     003F4B19  GBVM$script_timer_43$3c7d6dcb_c2   script_timer_43
     003F4B29  _script_timer_44                   script_timer_44
     003F4B2B  GBVM$script_timer_44$8f72697d_1c   script_timer_44
     003F4B3B  _script_timer_45                   script_timer_45
     003F4B3D  GBVM$script_timer_45$bab33755_5a   script_timer_45
     003F4B4D  _script_timer_46                   script_timer_46
     003F4B4F  GBVM$script_timer_46$f2da1d1d_3d   script_timer_46
     003F4B5F  _script_timer_47                   script_timer_47
     003F4B61  GBVM$script_timer_47$ce770b1b_4c   script_timer_47
     003F4B71  _script_timer_48                   script_timer_48
     003F4B73  GBVM$script_timer_48$55d15f5d_ae   script_timer_48
     003F4B83  _script_timer_49                   script_timer_49
     003F4B85  GBVM$script_timer_49$7427995d_a7   script_timer_49
     003F4B95  _script_timer_5                    script_timer_5
     003F4B97  GBVM$script_timer_5$fc4044aa_6d6   script_timer_5
     003F4BA7  _script_timer_54                   script_timer_54
     003F4BA9  GBVM$script_timer_54$0ea0a904_fe   script_timer_54
     003F4BB9  _script_timer_55                   script_timer_55
     003F4BBB  GBVM$script_timer_55$714c9467_62   script_timer_55
     003F4BCB  _script_timer_56                   script_timer_56
     003F4BCD  GBVM$script_timer_56$9035afa4_14   script_timer_56
     003F4BDD  _script_timer_57                   script_timer_57
     003F4BDF  GBVM$script_timer_57$ea2d9a5d_2f   script_timer_57
ASxxxx Linker V03.00/V05.40 + sdld,  page 139.
Hexadecimal  [32-Bits]

Area                                    Addr        Size        Decimal Bytes (Attributes)
--------------------------------        ----        ----        ------- ----- ------------
_CODE_63                            003F4000    000017FB =        6139. bytes (REL,CON)

      Value  Global                              Global Defined In Module
      -----  --------------------------------   ------------------------
     003F4BEF  _script_timer_58                   script_timer_58
     003F4BF1  GBVM$script_timer_58$615e8687_28   script_timer_58
     003F4C01  _script_timer_59                   script_timer_59
     003F4C03  GBVM$script_timer_59$ad17a150_d8   script_timer_59
     003F4C13  _script_timer_6                    script_timer_6
     003F4C15  GBVM$script_timer_6$b49e2fa0_e44   script_timer_6
     003F4C25  _script_timer_60                   script_timer_60
     003F4C27  GBVM$script_timer_60$7c09f909_e3   script_timer_60
     003F4C37  _script_timer_61                   script_timer_61
     003F4C39  GBVM$script_timer_61$0815d0f5_ed   script_timer_61
     003F4C49  _script_timer_63                   script_timer_63
     003F4C4B  GBVM$script_timer_63$b80ba348_33   script_timer_63
     003F4C5B  _script_timer_64                   script_timer_64
     003F4C5D  GBVM$script_timer_64$de3ae84a_7f   script_timer_64
     003F4C6D  _script_timer_65                   script_timer_65
     003F4C6F  GBVM$script_timer_65$c5cb44da_36   script_timer_65
     003F4C7F  _script_timer_66                   script_timer_66
     003F4C81  GBVM$script_timer_66$d523e70f_0a   script_timer_66
     003F4C91  _script_timer_69                   script_timer_69
     003F4C93  GBVM$script_timer_69$11b33454_06   script_timer_69
     003F4CA3  _script_timer_7                    script_timer_7
     003F4CA5  GBVM$script_timer_7$c961b27d_0e2   script_timer_7
     003F4CB5  _script_timer_70                   script_timer_70
     003F4CB7  GBVM$script_timer_70$c08bf2be_4a   script_timer_70
     003F4CC7  _script_timer_71                   script_timer_71
     003F4CC9  GBVM$script_timer_71$9f54eab6_0d   script_timer_71
     003F4CD9  _script_timer_72                   script_timer_72
     003F4CDB  GBVM$script_timer_72$69cdcca4_43   script_timer_72
     003F4CEB  _script_timer_73                   script_timer_73
     003F4CED  GBVM$script_timer_73$d87d1864_e7   script_timer_73
     003F4CFD  _script_timer_74                   script_timer_74
     003F4CFF  GBVM$script_timer_74$ebe3f591_89   script_timer_74
     003F4D0F  _script_timer_75                   script_timer_75
     003F4D11  GBVM$script_timer_75$bc7a1ea0_05   script_timer_75
     003F4D21  _script_timer_76                   script_timer_76
     003F4D23  GBVM$script_timer_76$828fd58c_e8   script_timer_76
     003F4D33  _script_timer_79                   script_timer_79
     003F4D35  GBVM$script_timer_79$2cf0854e_eb   script_timer_79
     003F4D45  _script_timer_8                    script_timer_8
     003F4D47  GBVM$script_timer_8$07b176fe_b29   script_timer_8
     003F4D57  _script_timer_80                   script_timer_80
     003F4D59  GBVM$script_timer_80$0abecc80_d3   script_timer_80
     003F4D69  _script_timer_81                   script_timer_81
     003F4D6B  GBVM$script_timer_81$f99af112_7d   script_timer_81
     003F4D7B  _script_timer_84                   script_timer_84
     003F4D7D  GBVM$script_timer_84$ae719b80_b7   script_timer_84
     003F4D8D  _script_timer_85                   script_timer_85
     003F4D8F  GBVM$script_timer_85$c310c0e0_37   script_timer_85
     003F4D9F  _script_timer_86                   script_timer_86
     003F4DA1  GBVM$script_timer_86$75fcbf91_48   script_timer_86
     003F4DB1  _script_timer_87                   script_timer_87
ASxxxx Linker V03.00/V05.40 + sdld,  page 140.
Hexadecimal  [32-Bits]

Area                                    Addr        Size        Decimal Bytes (Attributes)
--------------------------------        ----        ----        ------- ----- ------------
_CODE_63                            003F4000    000017FB =        6139. bytes (REL,CON)

      Value  Global                              Global Defined In Module
      -----  --------------------------------   ------------------------
     003F4DB3  GBVM$script_timer_87$a9bf7d92_4e   script_timer_87
     003F4DC3  _script_timer_88                   script_timer_88
     003F4DC5  GBVM$script_timer_88$9dd48e44_db   script_timer_88
     003F4DD5  _script_timer_89                   script_timer_89
     003F4DD7  GBVM$script_timer_89$cd9b0f55_2e   script_timer_89
     003F4DE7  _script_timer_9                    script_timer_9
     003F4DE9  GBVM$script_timer_9$a9f6c95c_92e   script_timer_9
     003F4DF9  _script_timer_91                   script_timer_91
     003F4DFB  GBVM$script_timer_91$32fa980e_29   script_timer_91
     003F4E0A  GBVM$script_timer_91$5bf6a4ce_30   script_timer_91
     003F4E1A  _script_timer_92                   script_timer_92
     003F4E1C  GBVM$script_timer_92$1ee0a5c6_f6   script_timer_92
     003F4E2C  _script_timer_93                   script_timer_93
     003F4E2E  GBVM$script_timer_93$083a95cf_14   script_timer_93
     003F4E3E  _script_timer_94                   script_timer_94
     003F4E40  GBVM$script_timer_94$491da465_a8   script_timer_94
     003F4E50  _script_timer_95                   script_timer_95
     003F4E52  GBVM$script_timer_95$9054d9eb_f4   script_timer_95
     003F4E62  _script_timer_96                   script_timer_96
     003F4E64  GBVM$script_timer_96$7da53e94_8e   script_timer_96
     003F4E74  _script_timer_97                   script_timer_97
     003F4E76  GBVM$script_timer_97$923c8779_b0   script_timer_97
     003F4E86  ___func_sprite_cedric_dust_bank2   sprite_cedric_dust_bank2_til
     003F4E86  _sprite_cedric_dust_bank2_tilese   sprite_cedric_dust_bank2_til
     003F4EA8  ___func_sprite_cedric_dust_tiles   sprite_cedric_dust_tileset
     003F4EA8  _sprite_cedric_dust_tileset        sprite_cedric_dust_tileset
     003F4ECA  ___func_sprite_feather_bank2_til   sprite_feather_bank2_tileset
     003F4ECA  _sprite_feather_bank2_tileset      sprite_feather_bank2_tileset
     003F4EEC  ___func_sprite_feather_tileset     sprite_feather_tileset
     003F4EEC  _sprite_feather_tileset            sprite_feather_tileset
     003F4F0E  ___func_sprite_flame_whip_bank2_   sprite_flame_whip_bank2_tile
     003F4F0E  _sprite_flame_whip_bank2_tileset   sprite_flame_whip_bank2_tile
     003F4F30  ___func_sprite_foxberry_ui_bank2   sprite_foxberry_ui_bank2_til
     003F4F30  _sprite_foxberry_ui_bank2_tilese   sprite_foxberry_ui_bank2_til
     003F4F52  ___func_sprite_foxberry_ui_tiles   sprite_foxberry_ui_tileset
     003F4F52  _sprite_foxberry_ui_tileset        sprite_foxberry_ui_tileset
     003F4F74  ___func_sprite_lava_tileset        sprite_lava_tileset
     003F4F74  _sprite_lava_tileset               sprite_lava_tileset
     003F4F96  ___func_sprite_metal_walls_bank2   sprite_metal_walls_bank2_til
     003F4F96  _sprite_metal_walls_bank2_tilese   sprite_metal_walls_bank2_til
     003F4FB8  ___func_sprite_metal_walls_tiles   sprite_metal_walls_tileset
     003F4FB8  _sprite_metal_walls_tileset        sprite_metal_walls_tileset
     003F4FDA  ___func_sprite_poison_bank2_tile   sprite_poison_bank2_tileset
     003F4FDA  _sprite_poison_bank2_tileset       sprite_poison_bank2_tileset
     003F4FFC  ___func_sprite_poison_tileset      sprite_poison_tileset
     003F4FFC  _sprite_poison_tileset             sprite_poison_tileset
     003F501E  ___func_sprite_potion_ui_bank2_t   sprite_potion_ui_bank2_tiles
     003F501E  _sprite_potion_ui_bank2_tileset    sprite_potion_ui_bank2_tiles
     003F5040  ___func_sprite_potion_ui_tileset   sprite_potion_ui_tileset
     003F5040  _sprite_potion_ui_tileset          sprite_potion_ui_tileset
     003F5062  ___func_sprite_toxic_tileset       sprite_toxic_tileset
ASxxxx Linker V03.00/V05.40 + sdld,  page 141.
Hexadecimal  [32-Bits]

Area                                    Addr        Size        Decimal Bytes (Attributes)
--------------------------------        ----        ----        ------- ----- ------------
_CODE_63                            003F4000    000017FB =        6139. bytes (REL,CON)

      Value  Global                              Global Defined In Module
      -----  --------------------------------   ------------------------
     003F5062  _sprite_toxic_tileset              sprite_toxic_tileset
     003F5084  ___func_sprite_unknown_key_copy_   sprite_unknown_key_copy_2__b
     003F5084  _sprite_unknown_key_copy_2__bank   sprite_unknown_key_copy_2__b
     003F50A6  ___func_sprite_unknown_key_copy_   sprite_unknown_key_copy_2__t
     003F50A6  _sprite_unknown_key_copy_2__tile   sprite_unknown_key_copy_2__t
     003F50C8  ___func_sprite_unknown_key_copy_   sprite_unknown_key_copy_bank
     003F50C8  _sprite_unknown_key_copy_bank2_t   sprite_unknown_key_copy_bank
     003F50EA  ___func_sprite_unknown_key_copy_   sprite_unknown_key_copy_tile
     003F50EA  _sprite_unknown_key_copy_tileset   sprite_unknown_key_copy_tile
     003F510C  ___func_sprite_water_tileset       sprite_water_tileset
     003F510C  _sprite_water_tileset              sprite_water_tileset
     003F512E  _spritesheet_none_metasprite       spritesheet_none
     003F5132  _spritesheet_none_metasprites      spritesheet_none
     003F5134  _spritesheet_none                  spritesheet_none
     003F5147  _trigger_100_interact              trigger_100_interact
     003F5148  GBVM$trigger_100_interact$423f19   trigger_100_interact
     003F514D  _trigger_101_interact              trigger_101_interact
     003F514E  GBVM$trigger_101_interact$0d653b   trigger_101_interact
     003F5153  GBVM$trigger_101_interact$946eaa   trigger_101_interact
     003F5158  _trigger_102_interact              trigger_102_interact
     003F5159  GBVM$trigger_102_interact$13719a   trigger_102_interact
     003F515E  GBVM$trigger_102_interact$7e6ef2   trigger_102_interact
     003F5163  _trigger_11_interact               trigger_11_interact
     003F5164  GBVM$trigger_11_interact$bf8e05d   trigger_11_interact
     003F5169  _trigger_12_interact               trigger_12_interact
     003F516A  GBVM$trigger_12_interact$7e46136   trigger_12_interact
     003F516F  GBVM$trigger_12_interact$b873ef6   trigger_12_interact
     003F5174  _trigger_125_interact              trigger_125_interact
     003F5175  GBVM$trigger_125_interact$333e17   trigger_125_interact
     003F517A  GBVM$trigger_125_interact$fc02da   trigger_125_interact
     003F517F  _trigger_126_interact              trigger_126_interact
     003F5180  GBVM$trigger_126_interact$a5f5e4   trigger_126_interact
     003F5185  GBVM$trigger_126_interact$9a953e   trigger_126_interact
     003F5189  GBVM$trigger_126_interact$d95da7   trigger_126_interact
     003F518E  GBVM$trigger_126_interact$3ff7a8   trigger_126_interact
     003F5193  _trigger_127_interact              trigger_127_interact
     003F5194  GBVM$trigger_127_interact$a65207   trigger_127_interact
     003F5199  GBVM$trigger_127_interact$234bd8   trigger_127_interact
     003F519D  GBVM$trigger_127_interact$c9bf9d   trigger_127_interact
     003F51A2  GBVM$trigger_127_interact$3169e6   trigger_127_interact
     003F51A7  _trigger_128_interact              trigger_128_interact
     003F51A8  GBVM$trigger_128_interact$d43cdc   trigger_128_interact
     003F51AD  GBVM$trigger_128_interact$9730f1   trigger_128_interact
     003F51B2  _trigger_129_interact              trigger_129_interact
     003F51B3  GBVM$trigger_129_interact$8928ff   trigger_129_interact
     003F51B8  GBVM$trigger_129_interact$5dead7   trigger_129_interact
     003F51BC  GBVM$trigger_129_interact$a2ed75   trigger_129_interact
     003F51C1  GBVM$trigger_129_interact$bcaba6   trigger_129_interact
     003F51C6  _trigger_13_interact               trigger_13_interact
     003F51C7  GBVM$trigger_13_interact$94e6a84   trigger_13_interact
     003F51CC  GBVM$trigger_13_interact$b3a03f9   trigger_13_interact
ASxxxx Linker V03.00/V05.40 + sdld,  page 142.
Hexadecimal  [32-Bits]

Area                                    Addr        Size        Decimal Bytes (Attributes)
--------------------------------        ----        ----        ------- ----- ------------
_CODE_63                            003F4000    000017FB =        6139. bytes (REL,CON)

      Value  Global                              Global Defined In Module
      -----  --------------------------------   ------------------------
     003F51D1  _trigger_130_interact              trigger_130_interact
     003F51D2  GBVM$trigger_130_interact$1f9cb4   trigger_130_interact
     003F51D7  GBVM$trigger_130_interact$372f6f   trigger_130_interact
     003F51DC  _trigger_131_interact              trigger_131_interact
     003F51DD  GBVM$trigger_131_interact$bd80bd   trigger_131_interact
     003F51E2  GBVM$trigger_131_interact$78e2f4   trigger_131_interact
     003F51E7  _trigger_132_interact              trigger_132_interact
     003F51E8  GBVM$trigger_132_interact$8bfa0d   trigger_132_interact
     003F51ED  GBVM$trigger_132_interact$efb675   trigger_132_interact
     003F51F2  _trigger_133_interact              trigger_133_interact
     003F51F3  GBVM$trigger_133_interact$dc745d   trigger_133_interact
     003F51F8  GBVM$trigger_133_interact$172f98   trigger_133_interact
     003F51FD  _trigger_134_interact              trigger_134_interact
     003F51FE  GBVM$trigger_134_interact$8bf3cb   trigger_134_interact
     003F5203  GBVM$trigger_134_interact$0d72f4   trigger_134_interact
     003F5208  _trigger_135_interact              trigger_135_interact
     003F5209  GBVM$trigger_135_interact$3db797   trigger_135_interact
     003F520E  GBVM$trigger_135_interact$d79107   trigger_135_interact
     003F5213  _trigger_136_interact              trigger_136_interact
     003F5214  GBVM$trigger_136_interact$d9ba92   trigger_136_interact
     003F5219  GBVM$trigger_136_interact$89aab8   trigger_136_interact
     003F521E  _trigger_137_interact              trigger_137_interact
     003F521F  GBVM$trigger_137_interact$9bb34e   trigger_137_interact
     003F5224  GBVM$trigger_137_interact$d519b8   trigger_137_interact
     003F5229  _trigger_138_interact              trigger_138_interact
     003F522A  GBVM$trigger_138_interact$5a4acd   trigger_138_interact
     003F522F  GBVM$trigger_138_interact$4da859   trigger_138_interact
     003F5234  _trigger_139_interact              trigger_139_interact
     003F5235  GBVM$trigger_139_interact$e7b0d9   trigger_139_interact
     003F523A  GBVM$trigger_139_interact$3cd7e2   trigger_139_interact
     003F523F  _trigger_14_interact               trigger_14_interact
     003F5240  GBVM$trigger_14_interact$d787a74   trigger_14_interact
     003F5245  GBVM$trigger_14_interact$e1890d9   trigger_14_interact
     003F524A  _trigger_140_interact              trigger_140_interact
     003F524B  GBVM$trigger_140_interact$3ae04d   trigger_140_interact
     003F5250  GBVM$trigger_140_interact$c003c5   trigger_140_interact
     003F5255  _trigger_141_interact              trigger_141_interact
     003F5256  GBVM$trigger_141_interact$4c90a7   trigger_141_interact
     003F525B  GBVM$trigger_141_interact$9885cd   trigger_141_interact
     003F5260  _trigger_142_interact              trigger_142_interact
     003F5261  GBVM$trigger_142_interact$1858c6   trigger_142_interact
     003F5266  GBVM$trigger_142_interact$3b0e3b   trigger_142_interact
     003F526B  _trigger_143_interact              trigger_143_interact
     003F526C  GBVM$trigger_143_interact$c29f49   trigger_143_interact
     003F5271  GBVM$trigger_143_interact$dabf7f   trigger_143_interact
     003F5276  _trigger_144_interact              trigger_144_interact
     003F5277  GBVM$trigger_144_interact$9a765d   trigger_144_interact
     003F527C  GBVM$trigger_144_interact$7e55e9   trigger_144_interact
     003F5281  _trigger_145_interact              trigger_145_interact
     003F5282  GBVM$trigger_145_interact$6e7924   trigger_145_interact
     003F5287  GBVM$trigger_145_interact$07ab17   trigger_145_interact
ASxxxx Linker V03.00/V05.40 + sdld,  page 143.
Hexadecimal  [32-Bits]

Area                                    Addr        Size        Decimal Bytes (Attributes)
--------------------------------        ----        ----        ------- ----- ------------
_CODE_63                            003F4000    000017FB =        6139. bytes (REL,CON)

      Value  Global                              Global Defined In Module
      -----  --------------------------------   ------------------------
     003F528C  _trigger_146_interact              trigger_146_interact
     003F528D  GBVM$trigger_146_interact$201afd   trigger_146_interact
     003F5292  GBVM$trigger_146_interact$636912   trigger_146_interact
     003F5297  _trigger_147_interact              trigger_147_interact
     003F5298  GBVM$trigger_147_interact$b9fef5   trigger_147_interact
     003F529D  GBVM$trigger_147_interact$292c82   trigger_147_interact
     003F52A2  _trigger_148_interact              trigger_148_interact
     003F52A3  GBVM$trigger_148_interact$1b3b4c   trigger_148_interact
     003F52A8  GBVM$trigger_148_interact$82b510   trigger_148_interact
     003F52AD  _trigger_149_interact              trigger_149_interact
     003F52AE  GBVM$trigger_149_interact$93480a   trigger_149_interact
     003F52B3  GBVM$trigger_149_interact$a0d7a4   trigger_149_interact
     003F52B8  _trigger_15_interact               trigger_15_interact
     003F52B9  GBVM$trigger_15_interact$0f354b0   trigger_15_interact
     003F52BE  GBVM$trigger_15_interact$75c6f72   trigger_15_interact
     003F52C3  _trigger_150_interact              trigger_150_interact
     003F52C4  GBVM$trigger_150_interact$85aa6d   trigger_150_interact
     003F52C9  GBVM$trigger_150_interact$4576fe   trigger_150_interact
     003F52CD  GBVM$trigger_150_interact$d2b2e3   trigger_150_interact
     003F52D2  GBVM$trigger_150_interact$f43c54   trigger_150_interact
     003F52D7  _trigger_151_interact              trigger_151_interact
     003F52D8  GBVM$trigger_151_interact$aec6c4   trigger_151_interact
     003F52DD  GBVM$trigger_151_interact$c19e43   trigger_151_interact
     003F52E2  _trigger_152_interact              trigger_152_interact
     003F52E3  GBVM$trigger_152_interact$68083f   trigger_152_interact
     003F52E8  GBVM$trigger_152_interact$7322b8   trigger_152_interact
     003F52ED  _trigger_153_interact              trigger_153_interact
     003F52EE  GBVM$trigger_153_interact$d4889f   trigger_153_interact
     003F52F3  GBVM$trigger_153_interact$00bb92   trigger_153_interact
     003F52F8  _trigger_154_interact              trigger_154_interact
     003F52F9  GBVM$trigger_154_interact$8ab484   trigger_154_interact
     003F52FE  GBVM$trigger_154_interact$191103   trigger_154_interact
     003F5303  _trigger_155_interact              trigger_155_interact
     003F5304  GBVM$trigger_155_interact$eaeb72   trigger_155_interact
     003F5309  GBVM$trigger_155_interact$16d34a   trigger_155_interact
     003F530E  _trigger_156_interact              trigger_156_interact
     003F530F  GBVM$trigger_156_interact$1de87e   trigger_156_interact
     003F5314  GBVM$trigger_156_interact$3f3574   trigger_156_interact
     003F5319  _trigger_157_interact              trigger_157_interact
     003F531A  GBVM$trigger_157_interact$2ae423   trigger_157_interact
     003F531F  GBVM$trigger_157_interact$a1ba1d   trigger_157_interact
     003F5324  _trigger_158_interact              trigger_158_interact
     003F5325  GBVM$trigger_158_interact$fd770c   trigger_158_interact
     003F532A  GBVM$trigger_158_interact$91a2e7   trigger_158_interact
     003F532F  _trigger_159_interact              trigger_159_interact
     003F5330  GBVM$trigger_159_interact$4b9394   trigger_159_interact
     003F5335  GBVM$trigger_159_interact$5f1e1a   trigger_159_interact
     003F533A  _trigger_16_interact               trigger_16_interact
     003F533B  GBVM$trigger_16_interact$a9366f4   trigger_16_interact
     003F5340  GBVM$trigger_16_interact$aab2ce2   trigger_16_interact
     003F5345  _trigger_161_interact              trigger_161_interact
ASxxxx Linker V03.00/V05.40 + sdld,  page 144.
Hexadecimal  [32-Bits]

Area                                    Addr        Size        Decimal Bytes (Attributes)
--------------------------------        ----        ----        ------- ----- ------------
_CODE_63                            003F4000    000017FB =        6139. bytes (REL,CON)

      Value  Global                              Global Defined In Module
      -----  --------------------------------   ------------------------
     003F5346  GBVM$trigger_161_interact$42bf36   trigger_161_interact
     003F534B  GBVM$trigger_161_interact$9c4c46   trigger_161_interact
     003F5350  _trigger_162_interact              trigger_162_interact
     003F5351  GBVM$trigger_162_interact$c4dc15   trigger_162_interact
     003F5356  GBVM$trigger_162_interact$e1ed9f   trigger_162_interact
     003F535B  _trigger_164_interact              trigger_164_interact
     003F535C  GBVM$trigger_164_interact$96a866   trigger_164_interact
     003F5361  GBVM$trigger_164_interact$0efb78   trigger_164_interact
     003F5366  _trigger_165_interact              trigger_165_interact
     003F5367  GBVM$trigger_165_interact$45c359   trigger_165_interact
     003F536C  GBVM$trigger_165_interact$bb8698   trigger_165_interact
     003F5371  _trigger_166_interact              trigger_166_interact
     003F5372  GBVM$trigger_166_interact$8558ef   trigger_166_interact
     003F5377  GBVM$trigger_166_interact$5316b8   trigger_166_interact
     003F537C  _trigger_167_interact              trigger_167_interact
     003F537D  GBVM$trigger_167_interact$fb5ff9   trigger_167_interact
     003F5382  GBVM$trigger_167_interact$70ca20   trigger_167_interact
     003F5387  _trigger_168_interact              trigger_168_interact
     003F5388  GBVM$trigger_168_interact$0afede   trigger_168_interact
     003F538D  GBVM$trigger_168_interact$dc55d0   trigger_168_interact
     003F5392  _trigger_169_interact              trigger_169_interact
     003F5393  GBVM$trigger_169_interact$e5547a   trigger_169_interact
     003F5398  GBVM$trigger_169_interact$0d4e2a   trigger_169_interact
     003F539D  _trigger_17_interact               trigger_17_interact
     003F539E  GBVM$trigger_17_interact$c71e353   trigger_17_interact
     003F53A3  _trigger_170_interact              trigger_170_interact
     003F53A4  GBVM$trigger_170_interact$1670de   trigger_170_interact
     003F53A9  GBVM$trigger_170_interact$74a3a6   trigger_170_interact
     003F53AE  _trigger_171_interact              trigger_171_interact
     003F53AF  GBVM$trigger_171_interact$b3886e   trigger_171_interact
     003F53B4  GBVM$trigger_171_interact$d9d6a1   trigger_171_interact
     003F53B9  _trigger_172_interact              trigger_172_interact
     003F53BA  GBVM$trigger_172_interact$07b140   trigger_172_interact
     003F53BF  GBVM$trigger_172_interact$ed0ca8   trigger_172_interact
     003F53C4  _trigger_173_interact              trigger_173_interact
     003F53C5  GBVM$trigger_173_interact$2ea5e2   trigger_173_interact
     003F53CA  GBVM$trigger_173_interact$603dbb   trigger_173_interact
     003F53CF  _trigger_18_interact               trigger_18_interact
     003F53D0  GBVM$trigger_18_interact$ddd74c6   trigger_18_interact
     003F53D5  GBVM$trigger_18_interact$f90ff5b   trigger_18_interact
     003F53DA  _trigger_187_interact              trigger_187_interact
     003F53DB  GBVM$trigger_187_interact$ea8274   trigger_187_interact
     003F53E6  GBVM$trigger_187_interact$23a771   trigger_187_interact
     003F53F0  _trigger_188_interact              trigger_188_interact
     003F53F1  GBVM$trigger_188_interact$f13957   trigger_188_interact
     003F53FC  GBVM$trigger_188_interact$f9223b   trigger_188_interact
     003F5406  _trigger_195_interact              trigger_195_interact
     003F5407  GBVM$trigger_195_interact$3795a4   trigger_195_interact
     003F5412  GBVM$trigger_195_interact$82793d   trigger_195_interact
     003F541C  _trigger_196_interact              trigger_196_interact
     003F541D  GBVM$trigger_196_interact$ff70f4   trigger_196_interact
ASxxxx Linker V03.00/V05.40 + sdld,  page 145.
Hexadecimal  [32-Bits]

Area                                    Addr        Size        Decimal Bytes (Attributes)
--------------------------------        ----        ----        ------- ----- ------------
_CODE_63                            003F4000    000017FB =        6139. bytes (REL,CON)

      Value  Global                              Global Defined In Module
      -----  --------------------------------   ------------------------
     003F5428  GBVM$trigger_196_interact$0d98e5   trigger_196_interact
     003F5432  _trigger_197_interact              trigger_197_interact
     003F5433  GBVM$trigger_197_interact$172d71   trigger_197_interact
     003F543E  GBVM$trigger_197_interact$3e4d41   trigger_197_interact
     003F5448  _trigger_198_interact              trigger_198_interact
     003F5449  GBVM$trigger_198_interact$3eb839   trigger_198_interact
     003F5454  GBVM$trigger_198_interact$92e553   trigger_198_interact
     003F545E  _trigger_199_interact              trigger_199_interact
     003F545F  GBVM$trigger_199_interact$08bcf5   trigger_199_interact
     003F546A  GBVM$trigger_199_interact$bcabb0   trigger_199_interact
     003F5474  _trigger_200_interact              trigger_200_interact
     003F5475  GBVM$trigger_200_interact$184ab3   trigger_200_interact
     003F5480  GBVM$trigger_200_interact$933099   trigger_200_interact
     003F548A  _trigger_201_interact              trigger_201_interact
     003F548B  GBVM$trigger_201_interact$aa24da   trigger_201_interact
     003F5496  GBVM$trigger_201_interact$8667c4   trigger_201_interact
     003F54A0  _trigger_202_interact              trigger_202_interact
     003F54A1  GBVM$trigger_202_interact$eef5e0   trigger_202_interact
     003F54AC  GBVM$trigger_202_interact$e44308   trigger_202_interact
     003F54B6  _trigger_203_interact              trigger_203_interact
     003F54B7  GBVM$trigger_203_interact$03dea4   trigger_203_interact
     003F54C2  GBVM$trigger_203_interact$fbffcb   trigger_203_interact
     003F54CC  _trigger_204_interact              trigger_204_interact
     003F54CD  GBVM$trigger_204_interact$49234a   trigger_204_interact
     003F54D9  _trigger_205_interact              trigger_205_interact
     003F54DA  GBVM$trigger_205_interact$f60949   trigger_205_interact
     003F54E6  _trigger_206_interact              trigger_206_interact
     003F54E7  GBVM$trigger_206_interact$b152d2   trigger_206_interact
     003F54F3  _trigger_207_interact              trigger_207_interact
     003F54F4  GBVM$trigger_207_interact$5a9ae8   trigger_207_interact
     003F5500  _trigger_208_interact              trigger_208_interact
     003F5501  GBVM$trigger_208_interact$a7d421   trigger_208_interact
     003F550D  _trigger_209_interact              trigger_209_interact
     003F550E  GBVM$trigger_209_interact$bd72f2   trigger_209_interact
     003F551A  _trigger_210_interact              trigger_210_interact
     003F551B  GBVM$trigger_210_interact$b84a90   trigger_210_interact
     003F5527  _trigger_211_interact              trigger_211_interact
     003F5528  GBVM$trigger_211_interact$6d342f   trigger_211_interact
     003F5534  _trigger_212_interact              trigger_212_interact
     003F5535  GBVM$trigger_212_interact$bb3197   trigger_212_interact
     003F5541  _trigger_214_interact              trigger_214_interact
     003F5542  GBVM$trigger_214_interact$5a14d5   trigger_214_interact
     003F554E  _trigger_216_interact              trigger_216_interact
     003F554F  GBVM$trigger_216_interact$c2322a   trigger_216_interact
     003F555B  _trigger_217_interact              trigger_217_interact
     003F555C  GBVM$trigger_217_interact$e465dd   trigger_217_interact
     003F5568  _trigger_218_interact              trigger_218_interact
     003F5569  GBVM$trigger_218_interact$735f73   trigger_218_interact
     003F5575  _trigger_227_interact              trigger_227_interact
     003F5576  GBVM$trigger_227_interact$01ae89   trigger_227_interact
     003F5581  GBVM$trigger_227_interact$bc86bf   trigger_227_interact
ASxxxx Linker V03.00/V05.40 + sdld,  page 146.
Hexadecimal  [32-Bits]

Area                                    Addr        Size        Decimal Bytes (Attributes)
--------------------------------        ----        ----        ------- ----- ------------
_CODE_63                            003F4000    000017FB =        6139. bytes (REL,CON)

      Value  Global                              Global Defined In Module
      -----  --------------------------------   ------------------------
     003F558B  _trigger_231_interact              trigger_231_interact
     003F558C  GBVM$trigger_231_interact$02907c   trigger_231_interact
     003F5597  GBVM$trigger_231_interact$3ac004   trigger_231_interact
     003F55A1  _trigger_232_interact              trigger_232_interact
     003F55A2  GBVM$trigger_232_interact$3797e4   trigger_232_interact
     003F55AD  GBVM$trigger_232_interact$3ce20c   trigger_232_interact
     003F55B7  _trigger_3_interact                trigger_3_interact
     003F55B8  GBVM$trigger_3_interact$cd1d3373   trigger_3_interact
     003F55BD  _trigger_49_interact               trigger_49_interact
     003F55BE  GBVM$trigger_49_interact$ebde614   trigger_49_interact
     003F55C3  _trigger_50_interact               trigger_50_interact
     003F55C4  GBVM$trigger_50_interact$be89a77   trigger_50_interact
     003F55C9  _trigger_51_interact               trigger_51_interact
     003F55CA  GBVM$trigger_51_interact$3bec865   trigger_51_interact
     003F55CF  _trigger_52_interact               trigger_52_interact
     003F55D0  GBVM$trigger_52_interact$511f6de   trigger_52_interact
     003F55D5  GBVM$trigger_52_interact$4206e37   trigger_52_interact
     003F55DA  _trigger_53_interact               trigger_53_interact
     003F55DB  GBVM$trigger_53_interact$8de7045   trigger_53_interact
     003F55E0  GBVM$trigger_53_interact$0eca8ea   trigger_53_interact
     003F55E5  _trigger_54_interact               trigger_54_interact
     003F55E6  GBVM$trigger_54_interact$6dbe148   trigger_54_interact
     003F55EB  GBVM$trigger_54_interact$9a6aacd   trigger_54_interact
     003F55F0  _trigger_55_interact               trigger_55_interact
     003F55F1  GBVM$trigger_55_interact$e27f56e   trigger_55_interact
     003F55F6  GBVM$trigger_55_interact$d4abc30   trigger_55_interact
     003F55FB  _trigger_56_interact               trigger_56_interact
     003F55FC  GBVM$trigger_56_interact$3a91a43   trigger_56_interact
     003F5601  GBVM$trigger_56_interact$3404cac   trigger_56_interact
     003F5606  _trigger_57_interact               trigger_57_interact
     003F5607  GBVM$trigger_57_interact$b045cea   trigger_57_interact
     003F560C  GBVM$trigger_57_interact$7388e39   trigger_57_interact
     003F5611  _trigger_58_interact               trigger_58_interact
     003F5612  GBVM$trigger_58_interact$6e7dd45   trigger_58_interact
     003F5617  GBVM$trigger_58_interact$265b8e7   trigger_58_interact
     003F561C  _trigger_59_interact               trigger_59_interact
     003F561D  GBVM$trigger_59_interact$dbc2432   trigger_59_interact
     003F5622  GBVM$trigger_59_interact$2dcae6d   trigger_59_interact
     003F5627  _trigger_60_interact               trigger_60_interact
     003F5628  GBVM$trigger_60_interact$b4c8971   trigger_60_interact
     003F562D  GBVM$trigger_60_interact$7d0b3d2   trigger_60_interact
     003F5632  _trigger_61_interact               trigger_61_interact
     003F5633  GBVM$trigger_61_interact$9049325   trigger_61_interact
     003F5638  _trigger_62_interact               trigger_62_interact
     003F5639  GBVM$trigger_62_interact$ba8af17   trigger_62_interact
     003F563E  _trigger_63_interact               trigger_63_interact
     003F563F  GBVM$trigger_63_interact$6edc9dc   trigger_63_interact
     003F5644  GBVM$trigger_63_interact$38e5c38   trigger_63_interact
     003F5649  _trigger_64_interact               trigger_64_interact
     003F564A  GBVM$trigger_64_interact$d1c8b40   trigger_64_interact
     003F564F  GBVM$trigger_64_interact$8536244   trigger_64_interact
ASxxxx Linker V03.00/V05.40 + sdld,  page 147.
Hexadecimal  [32-Bits]

Area                                    Addr        Size        Decimal Bytes (Attributes)
--------------------------------        ----        ----        ------- ----- ------------
_CODE_63                            003F4000    000017FB =        6139. bytes (REL,CON)

      Value  Global                              Global Defined In Module
      -----  --------------------------------   ------------------------
     003F5654  _trigger_65_interact               trigger_65_interact
     003F5655  GBVM$trigger_65_interact$135a55e   trigger_65_interact
     003F565A  _trigger_66_interact               trigger_66_interact
     003F565B  GBVM$trigger_66_interact$02e747c   trigger_66_interact
     003F5660  GBVM$trigger_66_interact$3bbf057   trigger_66_interact
     003F5665  _trigger_67_interact               trigger_67_interact
     003F5666  GBVM$trigger_67_interact$591690c   trigger_67_interact
     003F566B  GBVM$trigger_67_interact$57d01ec   trigger_67_interact
     003F5670  _trigger_70_interact               trigger_70_interact
     003F5671  GBVM$trigger_70_interact$f14fabc   trigger_70_interact
     003F567C  GBVM$trigger_70_interact$f559193   trigger_70_interact
     003F5686  _trigger_71_interact               trigger_71_interact
     003F5687  GBVM$trigger_71_interact$14eb71b   trigger_71_interact
     003F5692  GBVM$trigger_71_interact$6bde866   trigger_71_interact
     003F569C  _trigger_72_interact               trigger_72_interact
     003F569D  GBVM$trigger_72_interact$2ea158b   trigger_72_interact
     003F56A8  GBVM$trigger_72_interact$5d80ad7   trigger_72_interact
     003F56B2  _trigger_73_interact               trigger_73_interact
     003F56B3  GBVM$trigger_73_interact$d826763   trigger_73_interact
     003F56B8  _trigger_74_interact               trigger_74_interact
     003F56B9  GBVM$trigger_74_interact$6fdffb1   trigger_74_interact
     003F56BE  GBVM$trigger_74_interact$1969b1d   trigger_74_interact
     003F56C3  _trigger_75_interact               trigger_75_interact
     003F56C4  GBVM$trigger_75_interact$3edce75   trigger_75_interact
     003F56C9  GBVM$trigger_75_interact$14b12a9   trigger_75_interact
     003F56CE  _trigger_76_interact               trigger_76_interact
     003F56CF  GBVM$trigger_76_interact$6e4ebae   trigger_76_interact
     003F56D4  GBVM$trigger_76_interact$7c71113   trigger_76_interact
     003F56D9  _trigger_77_interact               trigger_77_interact
     003F56DA  GBVM$trigger_77_interact$febb448   trigger_77_interact
     003F56DF  GBVM$trigger_77_interact$f0e31ac   trigger_77_interact
     003F56E4  _trigger_78_interact               trigger_78_interact
     003F56E5  GBVM$trigger_78_interact$5db4497   trigger_78_interact
     003F56EA  GBVM$trigger_78_interact$027ccb1   trigger_78_interact
     003F56EF  _trigger_79_interact               trigger_79_interact
     003F56F0  GBVM$trigger_79_interact$370ff45   trigger_79_interact
     003F56F5  GBVM$trigger_79_interact$b1e4282   trigger_79_interact
     003F56FA  _trigger_82_interact               trigger_82_interact
     003F56FB  GBVM$trigger_82_interact$a76ec68   trigger_82_interact
     003F5706  GBVM$trigger_82_interact$0ec5113   trigger_82_interact
     003F5710  _trigger_83_interact               trigger_83_interact
     003F5711  GBVM$trigger_83_interact$c01e2c3   trigger_83_interact
     003F571C  GBVM$trigger_83_interact$7f7fabc   trigger_83_interact
     003F5726  _trigger_84_interact               trigger_84_interact
     003F5727  GBVM$trigger_84_interact$ab8db92   trigger_84_interact
     003F5732  GBVM$trigger_84_interact$60d8b61   trigger_84_interact
     003F573C  _trigger_85_interact               trigger_85_interact
     003F573D  GBVM$trigger_85_interact$a590859   trigger_85_interact
     003F5748  GBVM$trigger_85_interact$74851fc   trigger_85_interact
     003F5752  _trigger_86_interact               trigger_86_interact
     003F5753  GBVM$trigger_86_interact$e736fb5   trigger_86_interact
ASxxxx Linker V03.00/V05.40 + sdld,  page 148.
Hexadecimal  [32-Bits]

Area                                    Addr        Size        Decimal Bytes (Attributes)
--------------------------------        ----        ----        ------- ----- ------------
_CODE_63                            003F4000    000017FB =        6139. bytes (REL,CON)

      Value  Global                              Global Defined In Module
      -----  --------------------------------   ------------------------
     003F575E  GBVM$trigger_86_interact$5d1b0b4   trigger_86_interact
     003F5768  _trigger_87_interact               trigger_87_interact
     003F5769  GBVM$trigger_87_interact$eb9447d   trigger_87_interact
     003F5774  GBVM$trigger_87_interact$4156f67   trigger_87_interact
     003F577E  _trigger_88_interact               trigger_88_interact
     003F577F  GBVM$trigger_88_interact$9f229a2   trigger_88_interact
     003F578B  _trigger_89_interact               trigger_89_interact
     003F578C  GBVM$trigger_89_interact$c02fd33   trigger_89_interact
     003F5798  _trigger_90_interact               trigger_90_interact
     003F5799  GBVM$trigger_90_interact$acd8522   trigger_90_interact
     003F57A5  _trigger_93_interact               trigger_93_interact
     003F57A6  GBVM$trigger_93_interact$21fc203   trigger_93_interact
     003F57AB  _trigger_94_interact               trigger_94_interact
     003F57AC  GBVM$trigger_94_interact$3235300   trigger_94_interact
     003F57B1  GBVM$trigger_94_interact$9aeb410   trigger_94_interact
     003F57B6  _trigger_95_interact               trigger_95_interact
     003F57B7  GBVM$trigger_95_interact$158a84f   trigger_95_interact
     003F57BC  GBVM$trigger_95_interact$1a626db   trigger_95_interact
     003F57C1  _trigger_96_interact               trigger_96_interact
     003F57C2  GBVM$trigger_96_interact$3f0d397   trigger_96_interact
     003F57C7  _trigger_97_interact               trigger_97_interact
     003F57C8  GBVM$trigger_97_interact$025e6fd   trigger_97_interact
     003F57CD  GBVM$trigger_97_interact$712865e   trigger_97_interact
     003F57D2  _trigger_98_interact               trigger_98_interact
     003F57D3  GBVM$trigger_98_interact$41c36d4   trigger_98_interact
     003F57D8  GBVM$trigger_98_interact$5237e56   trigger_98_interact
     003F57DD  _trigger_99_interact               trigger_99_interact
     003F57DE  GBVM$trigger_99_interact$5b4fb20   trigger_99_interact
     003F57EA  _logo_init                         logo
     003F57FA  _logo_update                       logo

ASxxxx Linker V03.00/V05.40 + sdld,  page 149.
Hexadecimal  [32-Bits]

Area                                    Addr        Size        Decimal Bytes (Attributes)
--------------------------------        ----        ----        ------- ----- ------------
_CODE_33                            00214000    00003FFF =       16383. bytes (REL,CON)

      Value  Global                              Global Defined In Module
      -----  --------------------------------   ------------------------
     00214000  _scroll_init                       scroll
     0021402A  _scroll_reset                      scroll
     0021404A  _scroll_update                     scroll
     00214181  _scroll_viewport                   scroll
     0021461A  _scroll_repaint                    scroll
     0021462A  _scroll_render_rows                scroll
     002146C0  _scroll_queue_row                  scroll
     002146E2  _scroll_queue_col                  scroll
     0021472D  ___func_bg_luna_serenity_cave_up   bg_luna_serenity_cave_upper_
     0021472D  _bg_luna_serenity_cave_upper_til   bg_luna_serenity_cave_upper_
     002159ED  ___func_scene_34_collisions        scene_34_collisions
     002159ED  _scene_34_collisions               scene_34_collisions
     00217F6D  _script_input_0                    script_input_0
     00217F6F  GBVM$script_input_0$b44c6c9c_f7e   script_input_0
     00217F7A  GBVM$script_input_0$2ca5ebb9_aaa   script_input_0
     00217F8F  GBVM$script_input_0$d294b62c_55c   script_input_0
     00217F94  GBVM$script_input_0$f68e50bd_357   script_input_0
     00217F94  GBVM_END$script_input_0$2ca5ebb9   script_input_0
     00217FA5  GBVM$script_input_0$26cc6be3_b55   script_input_0
     00217FB3  GBVM$script_input_0$4759c9d9_c0f   script_input_0
     00217FBE  GBVM$script_input_0$4130e474_78e   script_input_0
     00217FCC  GBVM$script_input_0$40d7d519_6c0   script_input_0
     00217FD7  GBVM$script_input_0$b72ec239_cd8   script_input_0
     00217FE5  GBVM$script_input_0$0ba315d4_182   script_input_0
     00217FF0  GBVM$script_input_0$62a208f4_d35   script_input_0
     00217FFE  GBVM_END$script_input_0$f68e50bd   script_input_0

ASxxxx Linker V03.00/V05.40 + sdld,  page 150.
Hexadecimal  [32-Bits]

Area                                    Addr        Size        Decimal Bytes (Attributes)
--------------------------------        ----        ----        ------- ----- ------------
_CODE_59                            003B4000    00004000 =       16384. bytes (REL,CON)

      Value  Global                              Global Defined In Module
      -----  --------------------------------   ------------------------
     003B4000  _set_sgb_border                    sgb_border
     003B41EA  ___func_VM_PALETTE                 vm_palette
     003B41EA  _vm_load_palette                   vm_palette
     003B4393  _actor_23_interact                 actor_23_interact
     003B4396  GBVM$actor_23_interact$64b1d94c_   actor_23_interact
     003B43C1  GBVM$actor_23_interact$8d6ad284_   actor_23_interact
     003B43D3  GBVM$actor_23_interact$9936e7fb_   actor_23_interact
     003B43DF  GBVM$actor_23_interact$fbe3b140_   actor_23_interact
     003B43F1  GBVM$actor_23_interact$dd1d1271_   actor_23_interact
     003B43FD  GBVM$actor_23_interact$dd081f98_   actor_23_interact
     003B4404  GBVM$actor_23_interact$31aab5f4_   actor_23_interact
     003B444A  GBVM$actor_23_interact$db5868ca_   actor_23_interact
     003B444A  GBVM_END$actor_23_interact$fbe3b   actor_23_interact
     003B4455  GBVM$actor_23_interact$ad0acd2c_   actor_23_interact
     003B445D  GBVM$actor_23_interact$4ae2072a_   actor_23_interact
     003B445D  GBVM$actor_23_interact$f08a0e89_   actor_23_interact
     003B445D  GBVM_END$actor_23_interact$8d6ad   actor_23_interact
     003B4462  GBVM$actor_23_interact$072f11ab_   actor_23_interact
     003B4469  GBVM$actor_23_interact$e0539e7d_   actor_23_interact
     003B446D  GBVM$actor_23_interact$fb87fda9_   actor_23_interact
     003B447C  GBVM$actor_23_interact$64a5f887_   actor_23_interact
     003B4484  GBVM$actor_23_interact$54d9a33e_   actor_23_interact
     003B4484  GBVM_END$actor_23_interact$64a5f   actor_23_interact
     003B4496  GBVM$actor_23_interact$1b3b4242_   actor_23_interact
     003B4640  GBVM_END$actor_23_interact$4ae20   actor_23_interact
     003B4640  GBVM_END$actor_23_interact$54d9a   actor_23_interact
     003B4641  _actor_24_update                   actor_24_update
     003B4643  GBVM$actor_24_update$d5707fe6_0c   actor_24_update
     003B4658  GBVM$actor_24_update$64177c49_fd   actor_24_update
     003B466A  GBVM$actor_24_update$b46c31ce_50   actor_24_update
     003B4676  GBVM$actor_24_update$f99448fa_f8   actor_24_update
     003B46E0  GBVM$actor_24_update$537d62bc_72   actor_24_update
     003B46EB  GBVM$actor_24_update$534e63e9_c8   actor_24_update
     003B46F4  GBVM$actor_24_update$2c27a698_63   actor_24_update
     003B46FF  GBVM$actor_24_update$bfef7fc2_94   actor_24_update
     003B470A  GBVM$actor_24_update$bcdaa45f_8b   actor_24_update
     003B4715  GBVM$actor_24_update$9e0fa74f_4a   actor_24_update
     003B471D  GBVM$actor_24_update$901d9e06_ef   actor_24_update
     003B4728  GBVM$actor_24_update$3f0ac511_39   actor_24_update
     003B4728  GBVM_END$actor_24_update$b46c31c   actor_24_update
     003B4728  GBVM_END$actor_24_update$f99448f   actor_24_update
     003B4776  GBVM$actor_24_update$6453b480_9a   actor_24_update
     003B4794  GBVM$actor_24_update$af8b9915_25   actor_24_update
     003B47CE  GBVM_END$actor_24_update$64177c4   actor_24_update
     003B47CE  GBVM_END$actor_24_update$d5707fe   actor_24_update
     003B47D3  ___func_avatar_font_0              avatar_font_0
     003B49AF  _avatar_font_0                     avatar_font_0
     003B49B7  ___func_bg_earth_shuttle_bay_sec   bg_earth_shuttle_bay_secret_
     003B49B7  _bg_earth_shuttle_bay_secret_til   bg_earth_shuttle_bay_secret_
     003B4B47  ___func_bg_earth_shuttle_bay_sec   bg_earth_shuttle_bay_secret_
ASxxxx Linker V03.00/V05.40 + sdld,  page 151.
Hexadecimal  [32-Bits]

Area                                    Addr        Size        Decimal Bytes (Attributes)
--------------------------------        ----        ----        ------- ----- ------------
_CODE_59                            003B4000    00004000 =       16384. bytes (REL,CON)

      Value  Global                              Global Defined In Module
      -----  --------------------------------   ------------------------
     003B4B47  _bg_earth_shuttle_bay_secret_til   bg_earth_shuttle_bay_secret_
     003B4CD7  ___func_bg_luna_boss_room_tilema   bg_luna_boss_room_tilemap_at
     003B4CD7  _bg_luna_boss_room_tilemap_attr    bg_luna_boss_room_tilemap_at
     003B4E67  ___func_bg_luna_boss_room_tilema   bg_luna_boss_room_tilemap
     003B4E67  _bg_luna_boss_room_tilemap         bg_luna_boss_room_tilemap
     003B4FF7  ___func_bg_luna_serenity_forest_   bg_luna_serenity_forest_cgb_
     003B4FF7  _bg_luna_serenity_forest_cgb_til   bg_luna_serenity_forest_cgb_
     003B51B9  ___func_bg_menu_load_background_   bg_menu_load_background_cgb_
     003B51B9  _bg_menu_load_background_cgb_til   bg_menu_load_background_cgb_
     003B536B  ___func_bg_mercury_poison_storag   bg_mercury_poison_storage_cg
     003B536B  _bg_mercury_poison_storage_cgb_t   bg_mercury_poison_storage_cg
     003B551D  ___func_bg_mercury_throne_room_c   bg_mercury_throne_room_cgb_t
     003B551D  _bg_mercury_throne_room_cgb_tile   bg_mercury_throne_room_cgb_t
     003B570F  ___func_bg_settings_tilemap        bg_settings_tilemap
     003B570F  _bg_settings_tilemap               bg_settings_tilemap
     003B5877  ___func_bg_temporal_light_backgr   bg_temporal_light_backgroun_
     003B5877  _bg_temporal_light_backgroun_til   bg_temporal_light_backgroun_
     003B59DF  ___func_bg_temporal_light_backgr   bg_temporal_light_backgroun_
     003B59DF  _bg_temporal_light_backgroun_til   bg_temporal_light_backgroun_
     003B5B47  ___func_bg_title_tilemap_attr      bg_title_tilemap_attr
     003B5B47  _bg_title_tilemap_attr             bg_title_tilemap_attr
     003B5CAF  ___func_bg_title_tilemap           bg_title_tilemap
     003B5CAF  _bg_title_tilemap                  bg_title_tilemap
     003B5E17  ___func_bg_venus_defence_tunnel_   bg_venus_defence_tunnel_tile
     003B5E17  _bg_venus_defence_tunnel_tileset   bg_venus_defence_tunnel_tile
     003B5FC9  ___func_bg_venus_office_tilemap_   bg_venus_office_tilemap_attr
     003B5FC9  _bg_venus_office_tilemap_attr      bg_venus_office_tilemap_attr
     003B6131  ___func_bg_venus_office_tilemap    bg_venus_office_tilemap
     003B6131  _bg_venus_office_tilemap           bg_venus_office_tilemap
     003B6299  ___func_bg_venus_office_tileset    bg_venus_office_tileset
     003B6299  _bg_venus_office_tileset           bg_venus_office_tileset
     003B647B  ___func_scene_10_collisions        scene_10_collisions
     003B647B  _scene_10_collisions               scene_10_collisions
     003B660B  _scene_20_init                     scene_20_init
     003B660E  GBVM$scene_20_init$28e85165_0736   scene_20_init
     003B660E  GBVM$scene_20_init$f776fb96_bb71   scene_20_init
     003B6613  GBVM$scene_20_init$39481dca_25b7   scene_20_init
     003B661A  GBVM$scene_20_init$2b5404f8_e011   scene_20_init
     003B661A  GBVM_END$scene_20_init$28e85165_   scene_20_init
     003B6625  GBVM$scene_20_init$autofade$7ea2   scene_20_init
     003B6630  GBVM$scene_20_init$b83e81a2_881b   scene_20_init
     003B66CF  GBVM$scene_20_init$929b03d7_ee93   scene_20_init
     003B66F8  GBVM$scene_20_init$a1d41344_62a7   scene_20_init
     003B6755  GBVM$scene_20_init$0f4cf5af_d387   scene_20_init
     003B675E  GBVM$scene_20_init$1c65acaa_324b   scene_20_init
     003B6767  GBVM$scene_20_init$f9856882_b276   scene_20_init
     003B6777  GBVM$scene_20_init$f20bc07f_1a4f   scene_20_init
     003B677C  GBVM$scene_20_init$dc031d4f_fcce   scene_20_init
     003B67A0  _scene_21_init                     scene_21_init
     003B67A3  GBVM$scene_21_init$c20b9c13_25e6   scene_21_init
     003B67B8  GBVM$scene_21_init$21ae5f91_fc39   scene_21_init
ASxxxx Linker V03.00/V05.40 + sdld,  page 152.
Hexadecimal  [32-Bits]

Area                                    Addr        Size        Decimal Bytes (Attributes)
--------------------------------        ----        ----        ------- ----- ------------
_CODE_59                            003B4000    00004000 =       16384. bytes (REL,CON)

      Value  Global                              Global Defined In Module
      -----  --------------------------------   ------------------------
     003B67C0  GBVM$scene_21_init$autofade$01b4   scene_21_init
     003B67C0  GBVM_END$scene_21_init$c20b9c13_   scene_21_init
     003B67CB  GBVM$scene_21_init$c6fcc792_0822   scene_21_init
     003B67CB  GBVM$scene_21_init$fd3c9a3c_be0d   scene_21_init
     003B67D0  GBVM$scene_21_init$e815ede0_5930   scene_21_init
     003B67D7  GBVM$scene_21_init$3d220b3e_8ba2   scene_21_init
     003B67DB  GBVM$scene_21_init$ab849ef4_cdd8   scene_21_init
     003B67EA  GBVM$scene_21_init$41cdd18f_0641   scene_21_init
     003B67F2  GBVM$scene_21_init$853821c7_be8e   scene_21_init
     003B67F2  GBVM_END$scene_21_init$41cdd18f_   scene_21_init
     003B6804  GBVM$scene_21_init$6225b240_27c6   scene_21_init
     003B680F  GBVM$scene_21_init$a5ea3054_02fe   scene_21_init
     003B69B6  GBVM$scene_21_init$8fe18ff8_99d4   scene_21_init
     003B69C5  GBVM$scene_21_init$000484e8_6bba   scene_21_init
     003B69C5  GBVM$scene_21_init$714c7896_f9a3   scene_21_init
     003B69C5  GBVM_END$scene_21_init$853821c7_   scene_21_init
     003B69CA  GBVM$scene_21_init$7adcc5f2_7feb   scene_21_init
     003B69D1  GBVM$scene_21_init$219c7903_66cb   scene_21_init
     003B69D5  GBVM$scene_21_init$f77c4e97_5e6b   scene_21_init
     003B69E4  GBVM$scene_21_init$171a59d0_0a56   scene_21_init
     003B69EC  GBVM_END$scene_21_init$171a59d0_   scene_21_init
     003B69EC  GBVM_END$scene_21_init$714c7896_   scene_21_init
     003B69EC  GBVM_END$scene_21_init$fd3c9a3c_   scene_21_init
     003B69ED  _scene_23_init                     scene_23_init
     003B69F0  GBVM$scene_23_init$1b23b8e9_f1f1   scene_23_init
     003B6A05  GBVM$scene_23_init$8fc9d1a1_cda9   scene_23_init
     003B6A0D  GBVM$scene_23_init$autofade$2110   scene_23_init
     003B6A0D  GBVM_END$scene_23_init$1b23b8e9_   scene_23_init
     003B6A18  GBVM$scene_23_init$40eaeae9_5f3c   scene_23_init
     003B6A18  GBVM$scene_23_init$581d85a6_5191   scene_23_init
     003B6A1D  GBVM$scene_23_init$8aa24e33_956b   scene_23_init
     003B6A24  GBVM$scene_23_init$1f1d5441_3d42   scene_23_init
     003B6A28  GBVM$scene_23_init$4162655a_94c4   scene_23_init
     003B6A37  GBVM$scene_23_init$7725350a_a6c7   scene_23_init
     003B6A3F  GBVM$scene_23_init$d02e005f_fd0a   scene_23_init
     003B6A3F  GBVM_END$scene_23_init$7725350a_   scene_23_init
     003B6A51  GBVM$scene_23_init$32abbb82_fe57   scene_23_init
     003B6BFB  GBVM_END$scene_23_init$581d85a6_   scene_23_init
     003B6BFB  GBVM_END$scene_23_init$d02e005f_   scene_23_init
     003B6BFC  ___func_scene_28_collisions        scene_28_collisions
     003B6BFC  _scene_28_collisions               scene_28_collisions
     003B6D8C  ___func_scene_41_collisions        scene_41_collisions
     003B6D8C  _scene_41_collisions               scene_41_collisions
     003B6F1C  _scene_52_init                     scene_52_init
     003B6F1F  GBVM$scene_52_init$60adabb9_88b9   scene_52_init
     003B6F1F  GBVM$scene_52_init$67bbd5ed_025a   scene_52_init
     003B6F24  GBVM$scene_52_init$b5b08916_cc7e   scene_52_init
     003B6F2B  GBVM$scene_52_init$4b7a5a74_2189   scene_52_init
     003B6F2B  GBVM_END$scene_52_init$67bbd5ed_   scene_52_init
     003B6F36  GBVM$scene_52_init$49b6f97b_3a6d   scene_52_init
     003B6F46  GBVM$scene_52_init$70739c96_816a   scene_52_init
ASxxxx Linker V03.00/V05.40 + sdld,  page 153.
Hexadecimal  [32-Bits]

Area                                    Addr        Size        Decimal Bytes (Attributes)
--------------------------------        ----        ----        ------- ----- ------------
_CODE_59                            003B4000    00004000 =       16384. bytes (REL,CON)

      Value  Global                              Global Defined In Module
      -----  --------------------------------   ------------------------
     003B6F4B  GBVM$scene_52_init$autofade$3156   scene_52_init
     003B6F56  GBVM$scene_52_init$03aba021_5333   scene_52_init
     003B6FA7  GBVM$scene_52_init$2b52f125_d51f   scene_52_init
     003B6FB2  GBVM$scene_52_init$0a15947d_520c   scene_52_init
     003B7033  GBVM$scene_52_init$68f41cef_23f2   scene_52_init
     003B703E  GBVM$scene_52_init$074a5e6a_f360   scene_52_init
     003B70D8  GBVM$scene_52_init$0ea12c12_f0c0   scene_52_init
     003B70E3  GBVM$scene_52_init$2ec08031_3b44   scene_52_init
     003B7139  GBVM$scene_52_init$ddf14b89_a694   scene_52_init
     003B7142  GBVM$scene_52_init$6d3c3e33_c9e4   scene_52_init
     003B714B  GBVM$scene_52_init$0716756b_cd12   scene_52_init
     003B717E  _scene_54_init                     scene_54_init
     003B7181  GBVM$scene_54_init$1e6aee2e_da64   scene_54_init
     003B7196  GBVM$scene_54_init$beb008f5_27b7   scene_54_init
     003B719E  GBVM$scene_54_init$ca59197b_e8d0   scene_54_init
     003B719E  GBVM_END$scene_54_init$1e6aee2e_   scene_54_init
     003B71B3  GBVM$scene_54_init$3d653a87_c91b   scene_54_init
     003B71BB  GBVM$scene_54_init$2ae789ea_6180   scene_54_init
     003B71BB  GBVM_END$scene_54_init$ca59197b_   scene_54_init
     003B71D0  GBVM$scene_54_init$89c6a05e_cc15   scene_54_init
     003B71D8  GBVM$scene_54_init$autofade$6b16   scene_54_init
     003B71D8  GBVM_END$scene_54_init$2ae789ea_   scene_54_init
     003B71E3  GBVM$scene_54_init$d66c0632_eb0e   scene_54_init
     003B71F5  GBVM$scene_54_init$5e51f5ea_2b5a   scene_54_init
     003B72D4  GBVM$scene_54_init$d08d3f38_801a   scene_54_init
     003B72DF  GBVM$scene_54_init$9cc5fa0e_aad5   scene_54_init
     003B72EE  GBVM$scene_54_init$1b9bc904_cd8f   scene_54_init
     003B72EE  GBVM$scene_54_init$3f6ea86d_f818   scene_54_init
     003B72EE  GBVM_END$scene_54_init$d66c0632_   scene_54_init
     003B72F3  GBVM$scene_54_init$33ad0687_5cd9   scene_54_init
     003B72FA  GBVM$scene_54_init$6eb31dd3_e828   scene_54_init
     003B72FE  GBVM$scene_54_init$d3edc332_f51c   scene_54_init
     003B730D  GBVM$scene_54_init$2cb92e99_f0de   scene_54_init
     003B7315  GBVM_END$scene_54_init$1b9bc904_   scene_54_init
     003B7315  GBVM_END$scene_54_init$2cb92e99_   scene_54_init
     003B7316  _scene_9_init                      scene_9_init
     003B7319  GBVM$scene_9_init$fab4e62b_5f04_   scene_9_init
     003B731E  GBVM$scene_9_init$670d8c70_7159_   scene_9_init
     003B7325  GBVM$scene_9_init$autofade$a9686   scene_9_init
     003B7330  GBVM$scene_9_init$693ce7ea_2847_   scene_9_init
     003B7342  GBVM$scene_9_init$52d1e83f_7d12_   scene_9_init
     003B734D  GBVM$scene_9_init$d92366c3_c4be_   scene_9_init
     003B73E9  GBVM$scene_9_init$8d562ab0_c861_   scene_9_init
     003B74A1  GBVM$scene_9_init$f9939824_3fec_   scene_9_init
     003B74B0  GBVM$scene_9_init$05966631_6bfb_   scene_9_init
     003B74B0  GBVM$scene_9_init$77af7177_31e0_   scene_9_init
     003B74B0  GBVM_END$scene_9_init$693ce7ea_2   scene_9_init
     003B74B5  GBVM$scene_9_init$4910a9de_b905_   scene_9_init
     003B74BC  GBVM$scene_9_init$b4e55d3d_dbf2_   scene_9_init
     003B74C0  GBVM$scene_9_init$20a14970_4472_   scene_9_init
     003B74CF  GBVM$scene_9_init$4f5587e5_a3ce_   scene_9_init
ASxxxx Linker V03.00/V05.40 + sdld,  page 154.
Hexadecimal  [32-Bits]

Area                                    Addr        Size        Decimal Bytes (Attributes)
--------------------------------        ----        ----        ------- ----- ------------
_CODE_59                            003B4000    00004000 =       16384. bytes (REL,CON)

      Value  Global                              Global Defined In Module
      -----  --------------------------------   ------------------------
     003B74D7  GBVM_END$scene_9_init$4f5587e5_a   scene_9_init
     003B74D7  GBVM_END$scene_9_init$77af7177_3   scene_9_init
     003B74D8  GBVM$script_2$2ac23d5e_e2c4_4aee   script_2
     003B74D8  _script_2                          script_2
     003B74DD  GBVM$script_2$0a14d606_e80e_43cc   script_2
     003B74E2  GBVM$script_2$1e391671_be55_4103   script_2
     003B74F2  GBVM$script_2$af752c76_cecd_49b6   script_2
     003B74F7  GBVM$script_2$e78b7a6c_116d_4be9   script_2
     003B74FC  GBVM$script_2$23012e89_7753_48eb   script_2
     003B7503  GBVM$script_2$7a575551_1765_49df   script_2
     003B7508  GBVM$script_2$0c54bb19_ee72_4f0a   script_2
     003B750D  GBVM$script_2$5a762626_ec6e_455d   script_2
     003B751D  GBVM$script_2$40e1a042_f4f8_48dd   script_2
     003B7522  GBVM$script_2$c9e5a198_3e5a_4bc6   script_2
     003B7532  GBVM$script_2$2e64cca6_0fe8_431a   script_2
     003B7542  GBVM$script_2$fc05e57d_7691_46e3   script_2
     003B7552  GBVM$script_2$fe90c4d2_d48b_4a4e   script_2
     003B7562  GBVM$script_2$f0b5742b_c9ec_4001   script_2
     003B7567  GBVM$script_2$39098737_7b29_4d03   script_2
     003B756C  GBVM$script_2$0a49fdd8_ef25_4b39   script_2
     003B7571  GBVM$script_2$2a2957f5_135e_45f8   script_2
     003B7576  GBVM$script_2$0911d1aa_e01f_414c   script_2
     003B757B  GBVM$script_2$f662cea1_cfcb_4c5a   script_2
     003B7580  GBVM$script_2$39043347_86fb_401e   script_2
     003B7585  GBVM$script_2$4a9645cd_e341_46c5   script_2
     003B758A  GBVM$script_2$c11cb144_94c2_476a   script_2
     003B758F  GBVM$script_2$52730e6c_87ab_44b6   script_2
     003B759F  GBVM$script_2$eb76beae_d509_4f30   script_2
     003B75B1  _script_8                          script_8
     003B75B3  GBVM$script_8$be35414a_25fc_4a10   script_8
     003B75EE  GBVM$script_8$7474998d_0112_47b1   script_8
     003B763B  GBVM$script_8$40dbb8f0_06b2_4a3f   script_8
     003B7644  GBVM$script_8$86f465c6_e9a1_41ca   script_8
     003B764B  GBVM$script_8$6693528d_2f3a_4c76   script_8
     003B7674  GBVM$script_8$b1fe5215_c152_43f7   script_8
     003B76E1  GBVM$script_8$1280d886_32c9_4847   script_8
     003B76EA  GBVM$script_8$cc90e1a4_8ea6_463e   script_8
     003B76FE  GBVM$script_8$296624ba_64a4_4a06   script_8
     003B7711  GBVM$script_8$2d6b7438_7a60_4f51   script_8
     003B7751  GBVM$script_8$93c89fd8_d9d8_4e70   script_8
     003B7754  GBVM$script_8$9af19f4f_75e9_4298   script_8
     003B7758  GBVM_END$script_8$296624ba_64a4_   script_8
     003B775B  GBVM$script_8$e074a0e5_167f_480a   script_8
     003B776E  GBVM$script_8$3a3bfdde_f0ba_43bf   script_8
     003B77AE  GBVM$script_8$2af5c84e_f52c_4084   script_8
     003B77B1  GBVM$script_8$d973e586_1234_407c   script_8
     003B77B5  GBVM_END$script_8$e074a0e5_167f_   script_8
     003B77B8  GBVM$script_8$59faf5dd_ada5_4ecc   script_8
     003B77CB  GBVM$script_8$324bc800_f67b_4195   script_8
     003B780B  GBVM$script_8$7e7ac7b0_f57a_45e1   script_8
     003B780E  GBVM$script_8$2e314014_b6df_4681   script_8
ASxxxx Linker V03.00/V05.40 + sdld,  page 155.
Hexadecimal  [32-Bits]

Area                                    Addr        Size        Decimal Bytes (Attributes)
--------------------------------        ----        ----        ------- ----- ------------
_CODE_59                            003B4000    00004000 =       16384. bytes (REL,CON)

      Value  Global                              Global Defined In Module
      -----  --------------------------------   ------------------------
     003B7812  GBVM_END$script_8$59faf5dd_ada5_   script_8
     003B7815  GBVM_END$script_8$cc90e1a4_8ea6_   script_8
     003B7818  GBVM$script_8$8b9eeb15_9258_4d74   script_8
     003B784A  GBVM_END$script_8$1280d886_32c9_   script_8
     003B784A  GBVM_END$script_8$40dbb8f0_06b2_   script_8
     003B784E  _script_9                          script_9
     003B7850  GBVM$script_9$a5214e45_66a8_48a1   script_9
     003B7881  GBVM$script_9$494abb76_4bff_439f   script_9
     003B78F1  GBVM$script_9$fbf9cbec_00f2_443f   script_9
     003B7902  GBVM$script_9$9e14f49f_f3e7_4daa   script_9
     003B7937  GBVM$script_9$41863a92_f54c_4415   script_9
     003B794A  GBVM$script_9$9431fe06_9779_4d76   script_9
     003B797C  GBVM$script_9$239648b0_ecfa_436e   script_9
     003B7980  GBVM$script_9$92e960d9_2511_4992   script_9
     003B7982  GBVM$script_9$56d2581e_bfda_4104   script_9
     003B79B4  GBVM$script_9$3d67491a_d05e_4fc5   script_9
     003B79B5  GBVM_END$script_9$41863a92_f54c_   script_9
     003B79B8  GBVM$script_9$f3bb9379_095c_436d   script_9
     003B79CB  GBVM$script_9$ee6c9e87_4f74_4a33   script_9
     003B79FD  GBVM$script_9$a8ea8b35_dd3b_4091   script_9
     003B7A01  GBVM$script_9$f653b45d_9724_4c8a   script_9
     003B7A03  GBVM$script_9$5116b4ac_f148_4dad   script_9
     003B7A35  GBVM$script_9$f3ab5c93_86f4_4f78   script_9
     003B7A36  GBVM_END$script_9$f3bb9379_095c_   script_9
     003B7A39  GBVM$script_9$5e9f51c3_36a9_4183   script_9
     003B7A4C  GBVM$script_9$a81d77c4_d0ff_4e51   script_9
     003B7A7E  GBVM$script_9$f913734b_d704_4aec   script_9
     003B7A82  GBVM$script_9$b445ec9a_d101_4392   script_9
     003B7A84  GBVM$script_9$f4d8370f_3400_4ddf   script_9
     003B7AB6  GBVM$script_9$8f168683_e282_49f8   script_9
     003B7AB7  GBVM_END$script_9$5e9f51c3_36a9_   script_9
     003B7ABA  GBVM_END$script_9$fbf9cbec_00f2_   script_9
     003B7ABE  _script_input_25                   script_input_25
     003B7AC0  GBVM$script_input_25$f7b630ec_4d   script_input_25
     003B7ACB  GBVM$script_input_25$3f9a9f0d_c2   script_input_25
     003B7C36  GBVM$script_input_25$d7e27dd3_d0   script_input_25
     003B7C69  ___func_sprite_ember_phoenix_cop   sprite_ember_phoenix_copy
     003B7C69  _sprite_ember_phoenix_copy_metas   sprite_ember_phoenix_copy
     003B7C89  _sprite_ember_phoenix_copy_metas   sprite_ember_phoenix_copy
     003B7CA5  _sprite_ember_phoenix_copy_metas   sprite_ember_phoenix_copy
     003B7CC1  _sprite_ember_phoenix_copy_metas   sprite_ember_phoenix_copy
     003B7CD9  _sprite_ember_phoenix_copy_metas   sprite_ember_phoenix_copy
     003B7CF5  _sprite_ember_phoenix_copy_metas   sprite_ember_phoenix_copy
     003B7D11  _sprite_ember_phoenix_copy_metas   sprite_ember_phoenix_copy
     003B7D31  _sprite_ember_phoenix_copy_metas   sprite_ember_phoenix_copy
     003B7D51  _sprite_ember_phoenix_copy_metas   sprite_ember_phoenix_copy
     003B7D6D  _sprite_ember_phoenix_copy_metas   sprite_ember_phoenix_copy
     003B7D85  _sprite_ember_phoenix_copy_metas   sprite_ember_phoenix_copy
     003B7D9D  _sprite_ember_phoenix_copy_metas   sprite_ember_phoenix_copy
     003B7DB9  _sprite_ember_phoenix_copy_metas   sprite_ember_phoenix_copy
     003B7DE1  _sprite_ember_phoenix_copy_anima   sprite_ember_phoenix_copy
ASxxxx Linker V03.00/V05.40 + sdld,  page 156.
Hexadecimal  [32-Bits]

Area                                    Addr        Size        Decimal Bytes (Attributes)
--------------------------------        ----        ----        ------- ----- ------------
_CODE_59                            003B4000    00004000 =       16384. bytes (REL,CON)

      Value  Global                              Global Defined In Module
      -----  --------------------------------   ------------------------
     003B7DF1  _sprite_ember_phoenix_copy_anima   sprite_ember_phoenix_copy
     003B7DF3  _sprite_ember_phoenix_copy         sprite_ember_phoenix_copy
     003B7E06  _trigger_192_interact              trigger_192_interact
     003B7E07  GBVM$trigger_192_interact$1be6ad   trigger_192_interact
     003B7E0D  _trigger_215_interact              trigger_215_interact
     003B7E0E  GBVM$trigger_215_interact$207bc3   trigger_215_interact
     003B7E20  GBVM$trigger_215_interact$33f0aa   trigger_215_interact
     003B7E2B  GBVM$trigger_215_interact$cfb995   trigger_215_interact
     003B7EF5  GBVM$trigger_215_interact$89f239   trigger_215_interact
     003B7F00  GBVM$trigger_215_interact$f998a6   trigger_215_interact
     003B7F0C  GBVM$trigger_215_interact$d7ae6d   trigger_215_interact
     003B7FFF  GBVM_END$trigger_215_interact$20   trigger_215_interact

ASxxxx Linker V03.00/V05.40 + sdld,  page 157.
Hexadecimal  [32-Bits]

Area                                    Addr        Size        Decimal Bytes (Attributes)
--------------------------------        ----        ----        ------- ----- ------------
_CODE_30                            001E4000    00003FFF =       16383. bytes (REL,CON)

      Value  Global                              Global Defined In Module
      -----  --------------------------------   ------------------------
     001E4000  ___func_VM_ACTOR                   vm_actor
     001E4000  _vm_actor_move_to                  vm_actor
     001E499C  _vm_actor_move_cancel              vm_actor
     001E49D2  _vm_actor_activate                 vm_actor
     001E4A23  _vm_actor_deactivate               vm_actor
     001E4A74  _vm_actor_begin_update             vm_actor
     001E4AFB  _vm_actor_terminate_update         vm_actor
     001E4B42  _vm_actor_set_dir                  vm_actor
     001E4B8B  _vm_actor_set_anim                 vm_actor
     001E4C19  _vm_actor_set_pos                  vm_actor
     001E4C93  _vm_actor_get_pos                  vm_actor
     001E4D02  _vm_actor_get_dir                  vm_actor
     001E4D7C  _vm_actor_get_angle                vm_actor
     001E4DFD  _vm_actor_emote                    vm_actor
     001E4EC1  _vm_actor_set_bounds               vm_actor
     001E4F1F  _vm_actor_set_spritesheet          vm_actor
     001E4FE9  _vm_actor_replace_tile             vm_actor
     001E5054  _vm_actor_set_anim_tick            vm_actor
     001E5092  _vm_actor_set_move_speed           vm_actor
     001E50D0  _vm_actor_set_anim_frame           vm_actor
     001E5114  _vm_actor_get_anim_frame           vm_actor
     001E515E  _vm_actor_set_anim_set             vm_actor
     001E51E6  _vm_actor_set_spritesheet_by_ref   vm_actor
     001E52F3  _vm_actor_set_flags                vm_actor
     001E53A1  ___func_scene_25_collisions        scene_25_collisions
     001E53A1  _scene_25_collisions               scene_25_collisions
     001E7921  _script_timer_0                    script_timer_0
     001E7923  GBVM$script_timer_0$760e9e45_6da   script_timer_0
     001E7933  _adventure_init                    adventure
     001E7948  _adventure_update                  adventure
ASxxxx Linker V03.00/V05.40 + sdld,  page 158.
Hexadecimal  [32-Bits]

Area                                    Addr        Size        Decimal Bytes (Attributes)
--------------------------------        ----        ----        ------- ----- ------------
_CODE_29                            001D4000    00004000 =       16384. bytes (REL,CON)

      Value  Global                              Global Defined In Module
      -----  --------------------------------   ------------------------
     001D4000  ___func_VM_GAMEBOY                 vm_gameboy
     001D4000  _vm_set_sprites_visible            vm_gameboy
     001D4017  _vm_input_wait                     vm_gameboy
     001D4040  _vm_context_prepare                vm_gameboy
     001D406B  _vm_input_attach                   vm_gameboy
     001D4081  _vm_input_detach                   vm_gameboy
     001D4095  _vm_input_get                      vm_gameboy
     001D40C9  _vm_fade                           vm_gameboy
     001D40F9  _vm_timer_prepare                  vm_gameboy
     001D4124  _vm_timer_set                      vm_gameboy
     001D413F  _vm_timer_stop                     vm_gameboy
     001D4153  _vm_timer_reset                    vm_gameboy
     001D416A  _vm_get_tile_xy                    vm_gameboy
     001D4240  _vm_replace_tile                   vm_gameboy
     001D42EB  _vm_poll                           vm_gameboy
     001D43BD  _vm_set_sprite_mode                vm_gameboy
     001D43D1  _vm_replace_tile_xy                vm_gameboy
     001D45B1  _vm_rumble                         vm_gameboy
     001D45D1  _vm_load_tileset                   vm_gameboy
     001D46A2  ___func_bg_mercury_landing_site_   bg_mercury_landing_site_cgb_
     001D46A2  _bg_mercury_landing_site_cgb_til   bg_mercury_landing_site_cgb_
     001D5A6B  _song_featherfire_cedric_Data      song_featherfire_cedric_Data
     001D5A80  ___func_scene_22_collisions        scene_22_collisions
     001D5A80  _scene_22_collisions               scene_22_collisions
ASxxxx Linker V03.00/V05.40 + sdld,  page 159.
Hexadecimal  [32-Bits]

Area                                    Addr        Size        Decimal Bytes (Attributes)
--------------------------------        ----        ----        ------- ----- ------------
_CODE_32                            00204000    00003FFF =       16383. bytes (REL,CON)

      Value  Global                              Global Defined In Module
      -----  --------------------------------   ------------------------
     00204000  ___func_VM_UI                      vm_ui
     00204000  _vm_display_text                   vm_ui
     0020406E  _vm_switch_text_layer              vm_ui
     00204088  _vm_overlay_setpos                 vm_ui
     002040A2  _vm_overlay_wait                   vm_ui
     00204132  _vm_overlay_move_to                vm_ui
     00204176  _vm_overlay_set_scroll             vm_ui
     002041AF  _vm_overlay_clear                  vm_ui
     00204281  _vm_overlay_show                   vm_ui
     002042CF  _vm_choice                         vm_ui
     002043EA  _vm_set_font                       vm_ui
     00204419  _vm_overlay_scroll                 vm_ui
     0020447A  _vm_overlay_set_submap             vm_ui
     002044E6  _vm_overlay_set_submap_ex          vm_ui
     002045E7  _vm_overlay_set_map                vm_ui
     00204746  _vm_set_text_sound                 vm_ui
     0020475F  ___func_bg_earth_burnclaw_forest   bg_earth_burnclaw_forest_ca_
     0020475F  _bg_earth_burnclaw_forest_ca_til   bg_earth_burnclaw_forest_ca_
     00205A1F  ___func_scene_33_collisions        scene_33_collisions
     00205A1F  _scene_33_collisions               scene_33_collisions
     00207F9F  ___func_scene_51_triggers          scene_51_triggers
     00207F9F  _scene_51_triggers                 scene_51_triggers

ASxxxx Linker V03.00/V05.40 + sdld,  page 160.
Hexadecimal  [32-Bits]

Area                                    Addr        Size        Decimal Bytes (Attributes)
--------------------------------        ----        ----        ------- ----- ------------
_CODE_5                             00054000    00004000 =       16384. bytes (REL,CON)

      Value  Global                              Global Defined In Module
      -----  --------------------------------   ------------------------
     00054000  _actor_0_update                    actor_0_update
     00054002  GBVM$actor_0_update$2917f059_d45   actor_0_update
     00054007  GBVM$actor_0_update$7d7100de_22e   actor_0_update
     00054013  GBVM$actor_0_update$6876beb6_5d0   actor_0_update
     00054028  ___func_bg_earth_distortion_moun   bg_earth_distortion_mountai_
     00054028  _bg_earth_distortion_mountai_til   bg_earth_distortion_mountai_
     000568C8  _scene_40_init                     scene_40_init
     000568CB  GBVM$scene_40_init$954de526_5c5b   scene_40_init
     000568D3  GBVM$scene_40_init$854afb5b_3b67   scene_40_init
     000568DB  GBVM$scene_40_init$673e26cc_9136   scene_40_init
     000568E3  GBVM$scene_40_init$autofade$9148   scene_40_init
     000568EE  GBVM$scene_40_init$1375ecf0_5781   scene_40_init
     000568FF  GBVM$scene_40_init$eb92025a_8873   scene_40_init
     0005690A  GBVM$scene_40_init$c35e5f07_da5d   scene_40_init
     0005690A  GBVM$scene_40_init$dc842c29_9ab7   scene_40_init
     0005690F  GBVM$scene_40_init$873d4478_b1d2   scene_40_init
     00056916  GBVM$scene_40_init$15a9206a_3284   scene_40_init
     00056916  GBVM_END$scene_40_init$dc842c29_   scene_40_init
     00056B60  GBVM$scene_40_init$0ffb2bdb_7c1b   scene_40_init
     00056B6B  GBVM$scene_40_init$78863150_6ce8   scene_40_init
     00056C9C  GBVM$scene_40_init$d4669ed6_a320   scene_40_init
     00056CA7  GBVM$scene_40_init$b4358f61_7fd2   scene_40_init
     00056CB2  GBVM$scene_40_init$404cc38f_6892   scene_40_init
     00056DD9  GBVM$scene_40_init$5e589997_482d   scene_40_init
     00056DE4  GBVM$scene_40_init$5f43fc9d_a550   scene_40_init
     00056DEF  GBVM$scene_40_init$72cb7a6d_3ad5   scene_40_init
     00056F29  GBVM$scene_40_init$0b805314_b123   scene_40_init
     00056F34  GBVM$scene_40_init$1f3b89a7_75c8   scene_40_init
     00056F3F  GBVM$scene_40_init$aaa2c146_19a1   scene_40_init
     00056F7C  GBVM$scene_40_init$6c59bb7f_6fee   scene_40_init
     00056F86  GBVM$scene_40_init$30cde568_2bab   scene_40_init
     00056F97  GBVM$scene_40_init$b47279cb_7ff1   scene_40_init
     00056FA3  GBVM$scene_40_init$6fd732cb_24e2   scene_40_init
     00056FB9  GBVM$scene_40_init$2ff46f25_dea2   scene_40_init
     00056FC4  GBVM$scene_40_init$8d8881ee_826b   scene_40_init
     00056FC4  GBVM$scene_40_init$e316829c_3723   scene_40_init
     00056FC9  GBVM$scene_40_init$81aba7b5_e1b1   scene_40_init
     00056FD0  GBVM$scene_40_init$57abc20c_bef2   scene_40_init
     00056FD0  GBVM_END$scene_40_init$e316829c_   scene_40_init
     00056FDB  GBVM$scene_40_init$e4b54d6a_7079   scene_40_init
     00056FFE  GBVM$scene_40_init$083d2f45_bdc5   scene_40_init
     00057009  GBVM$scene_40_init$956112f1_4698   scene_40_init
     00057050  GBVM$scene_40_init$e685b6f8_d604   scene_40_init
     000570D0  GBVM$scene_40_init$4620e522_c83f   scene_40_init
     000570D8  GBVM$scene_40_init$a2404acc_7029   scene_40_init
     000570FB  GBVM$scene_40_init$100d2ef6_70ae   scene_40_init
     00057103  GBVM$scene_40_init$c1b3dfc2_c8f6   scene_40_init
     0005710D  GBVM$scene_40_init$9612b10b_b344   scene_40_init
     0005711E  GBVM$scene_40_init$e9f2cb0d_9f81   scene_40_init
     0005712A  GBVM$scene_40_init$4b44a020_8249   scene_40_init
ASxxxx Linker V03.00/V05.40 + sdld,  page 161.
Hexadecimal  [32-Bits]

Area                                    Addr        Size        Decimal Bytes (Attributes)
--------------------------------        ----        ----        ------- ----- ------------
_CODE_5                             00054000    00004000 =       16384. bytes (REL,CON)

      Value  Global                              Global Defined In Module
      -----  --------------------------------   ------------------------
     00057140  GBVM$scene_40_init$1cd343f1_752b   scene_40_init
     0005714B  GBVM$scene_40_init$d6640278_c12c   scene_40_init
     00057153  GBVM$scene_40_init$726efccb_b9fb   scene_40_init
     00057153  GBVM$scene_40_init$d8e3a823_45d0   scene_40_init
     00057158  GBVM$scene_40_init$9bcb2906_ecf9   scene_40_init
     0005715F  GBVM$scene_40_init$3fb05804_1289   scene_40_init
     0005715F  GBVM_END$scene_40_init$726efccb_   scene_40_init
     0005716B  GBVM$scene_40_init$90209b65_7395   scene_40_init
     000571A3  GBVM$scene_40_init$f655a8f8_2b01   scene_40_init
     000571AF  GBVM$scene_40_init$9b187804_3471   scene_40_init
     000571BA  GBVM$scene_40_init$b31ac417_a628   scene_40_init
     000571C2  GBVM$scene_40_init$32a16881_5ca4   scene_40_init
     000571CD  GBVM$scene_40_init$d7da7990_f448   scene_40_init
     000572AE  GBVM$scene_40_init$970da2ee_4a21   scene_40_init
     000572B9  GBVM$scene_40_init$61364211_ef28   scene_40_init
     0005730A  GBVM$scene_40_init$d01e7164_6c84   scene_40_init
     00057313  GBVM$scene_40_init$17666e2e_d3b7   scene_40_init
     00057336  GBVM$scene_40_init$64b2be46_8829   scene_40_init
     00057342  GBVM$scene_40_init$69401576_d005   scene_40_init
     0005735E  GBVM$scene_40_init$0afa3a5c_7f0b   scene_40_init
     0005736A  GBVM$scene_40_init$35d3d361_2f8b   scene_40_init
     00057379  GBVM$scene_40_init$6a918804_ac88   scene_40_init
     00057384  GBVM$scene_40_init$bee11d38_bfab   scene_40_init
     000573BE  GBVM$scene_40_init$b6769c71_d4f1   scene_40_init
     000573C9  GBVM$scene_40_init$5506c0a1_c181   scene_40_init
     00057467  GBVM$scene_40_init$bc77d18a_abb2   scene_40_init
     0005746F  GBVM$scene_40_init$29dc75c6_30ee   scene_40_init
     0005746F  GBVM$scene_40_init$75228a6e_e4b1   scene_40_init
     00057474  GBVM$scene_40_init$5da9ec67_59b8   scene_40_init
     0005747B  GBVM$scene_40_init$16d2a114_c6ff   scene_40_init
     0005747B  GBVM_END$scene_40_init$29dc75c6_   scene_40_init
     00057486  GBVM$scene_40_init$215ed01b_63e0   scene_40_init
     000574DF  GBVM$scene_40_init$c3e635cb_83ca   scene_40_init
     000574EA  GBVM$scene_40_init$67d28c5a_68e4   scene_40_init
     000575BF  GBVM$scene_40_init$4c5beaf3_6ce9   scene_40_init
     000575CA  GBVM$scene_40_init$8ec0e410_fe1e   scene_40_init
     00057620  GBVM$scene_40_init$e3646232_ca1f   scene_40_init
     0005762B  GBVM$scene_40_init$05694795_5807   scene_40_init
     00057688  GBVM$scene_40_init$5377da09_18de   scene_40_init
     00057693  GBVM$scene_40_init$7c73c50c_6195   scene_40_init
     000577A0  GBVM$scene_40_init$024bd7a3_a4ca   scene_40_init
     000577AB  GBVM$scene_40_init$d5314e90_14af   scene_40_init
     0005784C  GBVM$scene_40_init$61408b7b_ed78   scene_40_init
     00057857  GBVM$scene_40_init$f8db08b0_2272   scene_40_init
     00057862  GBVM$scene_40_init$be7b89a9_bea4   scene_40_init
     00057907  GBVM$scene_40_init$39db4799_7066   scene_40_init
     0005793F  GBVM$scene_40_init$f9f20145_642a   scene_40_init
     00057955  GBVM$scene_40_init$75807587_727d   scene_40_init
     0005796B  GBVM$scene_40_init$f125f236_38db   scene_40_init
     00057981  GBVM$scene_40_init$f10449e1_6fbf   scene_40_init
     000579A4  GBVM$scene_40_init$d998f3b1_b174   scene_40_init
ASxxxx Linker V03.00/V05.40 + sdld,  page 162.
Hexadecimal  [32-Bits]

Area                                    Addr        Size        Decimal Bytes (Attributes)
--------------------------------        ----        ----        ------- ----- ------------
_CODE_5                             00054000    00004000 =       16384. bytes (REL,CON)

      Value  Global                              Global Defined In Module
      -----  --------------------------------   ------------------------
     000579AD  GBVM$scene_40_init$db4cd721_266b   scene_40_init
     000579B8  GBVM$scene_40_init$881c56f6_c384   scene_40_init
     00057A3D  GBVM$scene_40_init$5c31fab3_a60b   scene_40_init
     00057A48  GBVM$scene_40_init$b071575e_dc2f   scene_40_init
     00057B1D  GBVM$scene_40_init$80afc98a_0b5b   scene_40_init
     00057B40  GBVM$scene_40_init$2af0c7d6_a08a   scene_40_init
     00057B4B  GBVM$scene_40_init$23cd68bd_79fe   scene_40_init
     00057BD6  GBVM$scene_40_init$d682393f_462a   scene_40_init
     00057BF2  GBVM$scene_40_init$fb3a4382_4082   scene_40_init
     00057BFE  GBVM$scene_40_init$66163a68_6c0c   scene_40_init
     00057C09  GBVM$scene_40_init$6bfe30cc_1812   scene_40_init
     00057C15  GBVM$scene_40_init$0d71f08b_2ef1   scene_40_init
     00057C20  GBVM$scene_40_init$4052b434_29e9   scene_40_init
     00057CA4  GBVM$scene_40_init$452f966d_2c41   scene_40_init
     00057CAF  GBVM$scene_40_init$26732594_2fbb   scene_40_init
     00057FCD  GBVM$scene_40_init$79a97002_0424   scene_40_init
ASxxxx Linker V03.00/V05.40 + sdld,  page 163.
Hexadecimal  [32-Bits]

Area                                    Addr        Size        Decimal Bytes (Attributes)
--------------------------------        ----        ----        ------- ----- ------------
_CODE_47                            002F4000    00004000 =       16384. bytes (REL,CON)

      Value  Global                              Global Defined In Module
      -----  --------------------------------   ------------------------
     002F4000  _actor_10_update                   actor_10_update
     002F4002  GBVM$actor_10_update$d0d58bd5_3a   actor_10_update
     002F400E  GBVM$actor_10_update$6cff51cd_de   actor_10_update
     002F4023  ___func_bg_earth_shuttle_bay_til   bg_earth_shuttle_bay_tilemap
     002F4023  _bg_earth_shuttle_bay_tilemap_at   bg_earth_shuttle_bay_tilemap
     002F6122  _song_unknown_wilds_Data           song_unknown_wilds_Data
     002F6137  _scene_39_init                     scene_39_init
     002F613A  GBVM$scene_39_init$f55d2ad8_43d6   scene_39_init
     002F6144  GBVM$scene_39_init$8eaea16a_2e4f   scene_39_init
     002F6144  GBVM$scene_39_init$d7b02846_75af   scene_39_init
     002F6149  GBVM$scene_39_init$dd5b0c2c_b952   scene_39_init
     002F6150  GBVM$scene_39_init$604dc43e_ce0e   scene_39_init
     002F6150  GBVM_END$scene_39_init$d7b02846_   scene_39_init
     002F615B  GBVM$scene_39_init$autofade$e02d   scene_39_init
     002F6166  GBVM$scene_39_init$537ba374_ca46   scene_39_init
     002F62A5  GBVM$scene_39_init$54c2adc8_ae56   scene_39_init
     002F62B0  GBVM$scene_39_init$c423d2db_c521   scene_39_init
     002F6351  GBVM$scene_39_init$72558018_e2ea   scene_39_init
     002F635C  GBVM$scene_39_init$c74e95a9_5527   scene_39_init
     002F646B  GBVM$scene_39_init$46d80010_ea43   scene_39_init
     002F6476  GBVM$scene_39_init$50948e47_484f   scene_39_init
     002F654F  GBVM$scene_39_init$cf82d49a_4bfc   scene_39_init
     002F655A  GBVM$scene_39_init$dda73199_4e54   scene_39_init
     002F66E1  GBVM$scene_39_init$321384cd_3767   scene_39_init
     002F66EC  GBVM$scene_39_init$4257d46e_a637   scene_39_init
     002F6736  GBVM$scene_39_init$e2232b34_ccaa   scene_39_init
     002F6741  GBVM$scene_39_init$6c85301b_7a41   scene_39_init
     002F6823  GBVM$scene_39_init$670411ed_8fd2   scene_39_init
     002F682E  GBVM$scene_39_init$4b5cd694_549f   scene_39_init
     002F687D  GBVM$scene_39_init$9e1029dc_128b   scene_39_init
     002F695C  GBVM$scene_39_init$f5b69d70_0c3e   scene_39_init
     002F6967  GBVM$scene_39_init$70df9c4c_5e83   scene_39_init
     002F69BD  GBVM$scene_39_init$a456e663_41bd   scene_39_init
     002F69E0  GBVM$scene_39_init$dc575e48_5143   scene_39_init
     002F69EB  GBVM$scene_39_init$a4f9f4a7_f628   scene_39_init
     002F6A6E  GBVM$scene_39_init$edc57554_a006   scene_39_init
     002F6A79  GBVM$scene_39_init$d6530768_fe65   scene_39_init
     002F6AB9  GBVM$scene_39_init$edf4428d_9630   scene_39_init
     002F6AEA  GBVM$scene_39_init$844e9f5c_0056   scene_39_init
     002F6AF5  GBVM$scene_39_init$5e429b6c_d6c6   scene_39_init
     002F6BB6  GBVM$scene_39_init$871450fb_f6a7   scene_39_init
     002F6BC1  GBVM$scene_39_init$16eac245_a9e1   scene_39_init
     002F6C5C  GBVM$scene_39_init$0cfe4788_ef1b   scene_39_init
     002F6C67  GBVM$scene_39_init$d8dc5c49_3863   scene_39_init
     002F6CA5  GBVM$scene_39_init$b7fd9bb3_0078   scene_39_init
     002F6CB0  GBVM$scene_39_init$58fc7c56_31f9   scene_39_init
     002F6D54  GBVM$scene_39_init$77c30f7c_ed10   scene_39_init
     002F6D82  GBVM$scene_39_init$a06f66d9_b891   scene_39_init
     002F6D8D  GBVM$scene_39_init$09c5f7fd_2185   scene_39_init
     002F6E0A  GBVM$scene_39_init$df48e500_85f4   scene_39_init
ASxxxx Linker V03.00/V05.40 + sdld,  page 164.
Hexadecimal  [32-Bits]

Area                                    Addr        Size        Decimal Bytes (Attributes)
--------------------------------        ----        ----        ------- ----- ------------
_CODE_47                            002F4000    00004000 =       16384. bytes (REL,CON)

      Value  Global                              Global Defined In Module
      -----  --------------------------------   ------------------------
     002F6E2D  GBVM$scene_39_init$7ab6fe09_ec3e   scene_39_init
     002F6E36  GBVM$scene_39_init$b771e65d_5a15   scene_39_init
     002F6E42  GBVM$scene_39_init$f3eb48d5_ac1f   scene_39_init
     002F6E4C  GBVM$scene_39_init$d4caebc5_acda   scene_39_init
     002F6E57  GBVM$scene_39_init$c342786f_cb5e   scene_39_init
     002F71B1  GBVM$scene_39_init$92930c7c_c53f   scene_39_init
     002F71BD  GBVM$scene_39_init$a46a41ba_1841   scene_39_init
     002F71C8  GBVM$scene_39_init$de0905a3_f293   scene_39_init
     002F71D3  GBVM$scene_39_init$43687d83_037d   scene_39_init
     002F71DE  GBVM$scene_39_init$a8f18c92_2373   scene_39_init
     002F7215  GBVM$scene_39_init$7bc2987a_3538   scene_39_init
     002F7221  GBVM$scene_39_init$a557a8c1_e324   scene_39_init
     002F722D  GBVM$scene_39_init$92fbb05d_d0b9   scene_39_init
     002F7260  _scene_41_init                     scene_41_init
     002F7263  GBVM$scene_41_init$08a3653f_dbd9   scene_41_init
     002F7263  GBVM$scene_41_init$ce83df3a_c3aa   scene_41_init
     002F7268  GBVM$scene_41_init$86e589b1_4463   scene_41_init
     002F726F  GBVM$scene_41_init$autofade$b27c   scene_41_init
     002F726F  GBVM_END$scene_41_init$ce83df3a_   scene_41_init
     002F727A  GBVM$scene_41_init$56104cf3_5b54   scene_41_init
     002F727A  GBVM$scene_41_init$9e91c250_5e15   scene_41_init
     002F727F  GBVM$scene_41_init$56fdd7a1_7601   scene_41_init
     002F7286  GBVM$scene_41_init$3c867db6_2fa2   scene_41_init
     002F7295  GBVM$scene_41_init$96bd75e8_ebbf   scene_41_init
     002F72A9  GBVM$scene_41_init$4fdafc33_ba53   scene_41_init
     002F72B1  GBVM$scene_41_init$28b007f4_8ece   scene_41_init
     002F72B1  GBVM_END$scene_41_init$4fdafc33_   scene_41_init
     002F72B1  GBVM_END$scene_41_init$56104cf3_   scene_41_init
     002F72B3  GBVM$scene_41_init$b71a26bd_e148   scene_41_init
     002F72BE  GBVM$scene_41_init$14e68600_03f5   scene_41_init
     002F7353  GBVM$scene_41_init$f5dc3fdf_a9a6   scene_41_init
     002F735E  GBVM$scene_41_init$d5e50e41_5ba8   scene_41_init
     002F7445  GBVM$scene_41_init$82cbed77_e278   scene_41_init
     002F7450  GBVM$scene_41_init$8e7f169a_c638   scene_41_init
     002F765C  GBVM$scene_41_init$c6ecb84f_96e4   scene_41_init
     002F7667  GBVM$scene_41_init$b01d7617_5004   scene_41_init
     002F7672  GBVM$scene_41_init$8bec445c_e6f2   scene_41_init
     002F772D  GBVM$scene_41_init$29e2ac53_d9db   scene_41_init
     002F7738  GBVM$scene_41_init$e649b96a_c71e   scene_41_init
     002F77D3  GBVM$scene_41_init$7a1124c7_667e   scene_41_init
     002F77DE  GBVM$scene_41_init$779c044c_0238   scene_41_init
     002F77E9  GBVM$scene_41_init$16c697e8_1eb8   scene_41_init
     002F7955  GBVM$scene_41_init$f1fd1828_0a8e   scene_41_init
     002F7960  GBVM$scene_41_init$971346d2_b01e   scene_41_init
     002F79E7  GBVM$scene_41_init$6b31d560_2663   scene_41_init
     002F79F2  GBVM$scene_41_init$70cd64fc_cbcd   scene_41_init
     002F7A6C  GBVM$scene_41_init$05d6db76_e43b   scene_41_init
     002F7A77  GBVM$scene_41_init$49199229_161b   scene_41_init
     002F7C3B  GBVM$scene_41_init$317a88fd_a08e   scene_41_init
     002F7C46  GBVM$scene_41_init$9394f343_634c   scene_41_init
     002F7D78  GBVM$scene_41_init$7d026382_c3a7   scene_41_init
ASxxxx Linker V03.00/V05.40 + sdld,  page 165.
Hexadecimal  [32-Bits]

Area                                    Addr        Size        Decimal Bytes (Attributes)
--------------------------------        ----        ----        ------- ----- ------------
_CODE_47                            002F4000    00004000 =       16384. bytes (REL,CON)

      Value  Global                              Global Defined In Module
      -----  --------------------------------   ------------------------
     002F7D83  GBVM$scene_41_init$97cb5e2a_7356   scene_41_init
     002F7DBB  GBVM$scene_41_init$5f577985_710c   scene_41_init
     002F7DC6  GBVM$scene_41_init$0edb54c2_28b6   scene_41_init
     002F7ED5  GBVM$scene_41_init$cb48976f_6f0e   scene_41_init
     002F7EE0  GBVM$scene_41_init$b34d33f8_871d   scene_41_init
     002F7EEB  GBVM$scene_41_init$3255f92c_4f4a   scene_41_init
     002F7F86  GBVM$scene_41_init$088fcd14_1fb8   scene_41_init
     002F7FB8  GBVM$scene_41_init$0ee9537e_0c3a   scene_41_init
     002F7FB8  GBVM$scene_41_init$66f13212_3fab   scene_41_init
     002F7FBD  GBVM$scene_41_init$2b153d75_a191   scene_41_init
     002F7FC4  GBVM$scene_41_init$28a5800e_2517   scene_41_init
     002F7FC4  GBVM$scene_41_init$618bcbae_a456   scene_41_init
     002F7FC4  GBVM_END$scene_41_init$0ee9537e_   scene_41_init
     002F7FC9  GBVM$scene_41_init$fcb5c235_0577   scene_41_init
     002F7FD0  GBVM$scene_41_init$82c01580_7eab   scene_41_init
     002F7FD4  GBVM$scene_41_init$d2de14e0_412e   scene_41_init
     002F7FE3  GBVM$scene_41_init$d6071f4c_25ad   scene_41_init
     002F7FF7  GBVM$scene_41_init$471d716e_54aa   scene_41_init
     002F7FFF  GBVM_END$scene_41_init$471d716e_   scene_41_init
     002F7FFF  GBVM_END$scene_41_init$618bcbae_   scene_41_init

ASxxxx Linker V03.00/V05.40 + sdld,  page 166.
Hexadecimal  [32-Bits]

Area                                    Addr        Size        Decimal Bytes (Attributes)
--------------------------------        ----        ----        ------- ----- ------------
_CODE_36                            00244000    00004000 =       16384. bytes (REL,CON)

      Value  Global                              Global Defined In Module
      -----  --------------------------------   ------------------------
     00244000  _actor_2_interact                  actor_2_interact
     00244001  GBVM$actor_2_interact$5641c9ed_a   actor_2_interact
     0024400C  GBVM$actor_2_interact$0a53bc0a_6   actor_2_interact
     0024413D  ___func_bg_luna_serenity_forest_   bg_luna_serenity_forest_tile
     0024413D  _bg_luna_serenity_forest_tilemap   bg_luna_serenity_forest_tile
     002453FD  ___func_scene_37_collisions        scene_37_collisions
     002453FD  _scene_37_collisions               scene_37_collisions
     0024797D  GBVM$script_3$e432847a_2979_48de   script_3
     0024797D  _script_3                          script_3
     002479C5  GBVM$script_3$8d9f49d6_28f3_4915   script_3
     002479FE  GBVM$script_3$a316f9f2_5a8b_435f   script_3
     00247A10  GBVM$script_3$15f72bc4_cccd_4f97   script_3
     00247A1C  GBVM$script_3$73e5c50a_6faf_419b   script_3
     00247A2A  GBVM$script_3$96dbef84_dbb3_4e06   script_3
     00247A5B  GBVM_END$script_3$a316f9f2_5a8b_   script_3
     00247A5E  GBVM$script_3$a9283ca4_88ef_4c41   script_3
     00247A70  GBVM$script_3$337fe998_1a31_4f4b   script_3
     00247A7C  GBVM$script_3$5110e8eb_66b9_4cec   script_3
     00247A8A  GBVM$script_3$dea69a00_1faa_49f1   script_3
     00247ABB  GBVM_END$script_3$a9283ca4_88ef_   script_3
     00247ABE  GBVM$script_3$6b7887de_1da4_4c93   script_3
     00247AD0  GBVM$script_3$09bada5d_fc1d_4a49   script_3
     00247ADC  GBVM$script_3$a09cb5f3_2933_49f6   script_3
     00247AEA  GBVM$script_3$872ff167_7d91_4ecb   script_3
     00247B1B  GBVM_END$script_3$6b7887de_1da4_   script_3
     00247B1E  GBVM$script_3$2c95c715_b066_40e0   script_3
     00247B30  GBVM$script_3$2685fd11_953b_4f69   script_3
     00247B3C  GBVM$script_3$40803c77_2f84_44dd   script_3
     00247B4A  GBVM$script_3$9bbfcdff_a491_4285   script_3
     00247B7B  GBVM_END$script_3$2c95c715_b066_   script_3
     00247B7E  GBVM$script_3$dbfa907a_ce29_46e0   script_3
     00247B90  GBVM$script_3$234f38be_5406_415a   script_3
     00247B9C  GBVM$script_3$e156bb21_98c6_49ef   script_3
     00247BAA  GBVM$script_3$3e5dc818_1e13_4c65   script_3
     00247BDB  GBVM_END$script_3$dbfa907a_ce29_   script_3
     00247BDE  GBVM$script_3$98202729_0b24_4a63   script_3
     00247BF0  GBVM$script_3$be061df6_bc9b_4a19   script_3
     00247BFC  GBVM$script_3$2ca6d389_888c_436c   script_3
     00247C0A  GBVM$script_3$e87aa45e_2553_4b8c   script_3
     00247C3B  GBVM_END$script_3$98202729_0b24_   script_3
     00247C3E  GBVM$script_3$e481a987_ef75_4a32   script_3
     00247C50  GBVM$script_3$d7771ca3_5be0_41e5   script_3
     00247C5C  GBVM$script_3$4a9dd325_79ec_4314   script_3
     00247C6A  GBVM$script_3$02a98ebe_f19c_4245   script_3
     00247C9B  GBVM_END$script_3$e481a987_ef75_   script_3
     00247C9E  GBVM$script_3$0f5d02d9_1175_4843   script_3
     00247CB0  GBVM$script_3$08516917_164f_4113   script_3
     00247CBC  GBVM$script_3$e2bbdc57_0d1e_4658   script_3
     00247CCA  GBVM$script_3$bd4ba952_f8e8_4c21   script_3
     00247CFB  GBVM_END$script_3$0f5d02d9_1175_   script_3
ASxxxx Linker V03.00/V05.40 + sdld,  page 167.
Hexadecimal  [32-Bits]

Area                                    Addr        Size        Decimal Bytes (Attributes)
--------------------------------        ----        ----        ------- ----- ------------
_CODE_36                            00244000    00004000 =       16384. bytes (REL,CON)

      Value  Global                              Global Defined In Module
      -----  --------------------------------   ------------------------
     00247CFE  GBVM$script_3$fd05ed0d_f162_4169   script_3
     00247D10  GBVM$script_3$e2e88dc7_b350_4cc2   script_3
     00247D1C  GBVM$script_3$5619e118_e462_4b8b   script_3
     00247D2A  GBVM$script_3$2aeefd49_d953_4c17   script_3
     00247D5B  GBVM_END$script_3$fd05ed0d_f162_   script_3
     00247D5E  GBVM$script_3$3a7a7bbd_2112_4a84   script_3
     00247D70  GBVM$script_3$49b5896d_b866_47d0   script_3
     00247D7C  GBVM$script_3$de9db726_7d73_435a   script_3
     00247D8A  GBVM$script_3$6c73c1ab_8ad7_47bd   script_3
     00247DBB  GBVM_END$script_3$3a7a7bbd_2112_   script_3
     00247DBE  GBVM$script_3$5bc1d743_c043_4920   script_3
     00247DD0  GBVM$script_3$ba1ad159_006d_487c   script_3
     00247DDC  GBVM$script_3$06de2907_0845_4e1c   script_3
     00247DEA  GBVM$script_3$e5bcf381_81c3_407c   script_3
     00247E1B  GBVM_END$script_3$5bc1d743_c043_   script_3
     00247E1E  GBVM$script_3$8a95aafb_9eca_48a0   script_3
     00247E30  GBVM$script_3$473d4507_09a2_416e   script_3
     00247E3C  GBVM$script_3$907cea48_c294_43f0   script_3
     00247E4A  GBVM$script_3$16ba4815_a977_4360   script_3
     00247E7B  GBVM_END$script_3$8a95aafb_9eca_   script_3
     00247E7E  GBVM$script_3$8820936a_4964_4f54   script_3
     00247E90  GBVM$script_3$da38170c_7850_4b36   script_3
     00247E9C  GBVM$script_3$b2756e2d_2d33_43bc   script_3
     00247EAA  GBVM$script_3$d719b87c_276c_4279   script_3
     00247EDB  GBVM_END$script_3$8820936a_4964_   script_3
     00247EDE  GBVM$script_3$0cc59e30_d309_4aed   script_3
     00247EF0  GBVM$script_3$a127edb5_7222_466a   script_3
     00247EFC  GBVM$script_3$c4fe302a_8444_470f   script_3
     00247F0A  GBVM$script_3$a1a2f9b6_b8d3_449f   script_3
     00247F3B  GBVM_END$script_3$0cc59e30_d309_   script_3
     00247F3E  GBVM$script_3$2acf81d8_9072_453c   script_3
     00247F50  GBVM$script_3$7f3e8296_8693_44a5   script_3
     00247F5C  GBVM$script_3$3fd1d571_b461_42f0   script_3
     00247F6A  GBVM$script_3$84c4b924_5488_4ed5   script_3
     00247F9B  GBVM_END$script_3$2acf81d8_9072_   script_3
     00247F9E  GBVM$script_3$89273c25_5f2e_4a04   script_3
     00247FB0  GBVM$script_3$8ae0657c_3bb8_45ed   script_3
     00247FBC  GBVM$script_3$37ac53f0_727f_4266   script_3
     00247FCA  GBVM$script_3$1b81a4f5_b535_406f   script_3
     00247FFB  GBVM_END$script_3$89273c25_5f2e_   script_3
     00247FFE  GBVM_END$script_3$e432847a_2979_   script_3

ASxxxx Linker V03.00/V05.40 + sdld,  page 168.
Hexadecimal  [32-Bits]

Area                                    Addr        Size        Decimal Bytes (Attributes)
--------------------------------        ----        ----        ------- ----- ------------
_CODE_40                            00284000    00003FFF =       16383. bytes (REL,CON)

      Value  Global                              Global Defined In Module
      -----  --------------------------------   ------------------------
     00284000  _actor_46_update                   actor_46_update
     00284002  GBVM$actor_46_update$653ef305_6a   actor_46_update
     00284014  GBVM$actor_46_update$2e53a236_a6   actor_46_update
     0028401F  GBVM$actor_46_update$7aa486c8_74   actor_46_update
     0028402A  GBVM$actor_46_update$170b8dcf_e0   actor_46_update
     0028413B  GBVM$actor_46_update$8b77b54b_10   actor_46_update
     00284146  GBVM$actor_46_update$36406e05_ef   actor_46_update
     002841D1  GBVM$actor_46_update$b7512e02_3c   actor_46_update
     002841DC  GBVM$actor_46_update$3db2bc47_0d   actor_46_update
     00284279  GBVM$actor_46_update$fa3c8ffa_ae   actor_46_update
     00284284  GBVM$actor_46_update$6420741e_bd   actor_46_update
     00284352  GBVM$actor_46_update$c2b7ec12_29   actor_46_update
     0028435D  GBVM$actor_46_update$97027fe1_94   actor_46_update
     00284470  GBVM$actor_46_update$b44ef76c_d0   actor_46_update
     0028447B  GBVM$actor_46_update$3c2bdebc_eb   actor_46_update
     002844C5  GBVM$actor_46_update$22a73cc1_1f   actor_46_update
     002844D0  GBVM$actor_46_update$239d2bb7_ac   actor_46_update
     00284518  GBVM$actor_46_update$24f4b783_94   actor_46_update
     0028454D  GBVM$actor_46_update$7c8f6076_d8   actor_46_update
     00284559  GBVM$actor_46_update$543f6912_6c   actor_46_update
     00284559  GBVM$actor_46_update$eb2e79d4_ad   actor_46_update
     0028455E  GBVM$actor_46_update$ae1bda31_3e   actor_46_update
     00284565  GBVM$actor_46_update$ec7bb5f3_98   actor_46_update
     00284565  GBVM_END$actor_46_update$eb2e79d   actor_46_update
     00284579  GBVM$actor_46_update$6c88d940_c4   actor_46_update
     00284584  GBVM$actor_46_update$8cf73e56_27   actor_46_update
     002845A2  GBVM$actor_46_update$5dd6e5dd_23   actor_46_update
     002845D0  GBVM$actor_46_update$7bfb6e99_24   actor_46_update
     002845DB  GBVM$actor_46_update$936e021d_bf   actor_46_update
     002845E3  GBVM$actor_46_update$1c489df6_fb   actor_46_update
     002845EB  GBVM$actor_46_update$a7e710ea_10   actor_46_update
     002845F7  GBVM$actor_46_update$ed5e75c9_b8   actor_46_update
     0028462F  GBVM$actor_46_update$8c7bfc3e_3b   actor_46_update
     0028462F  GBVM_END$actor_46_update$a7e710e   actor_46_update
     0028463A  GBVM$actor_46_update$7119e32f_03   actor_46_update
     00284649  GBVM_END$actor_46_update$653ef30   actor_46_update
     00284649  GBVM_END$actor_46_update$7c8f607   actor_46_update
     00284649  GBVM_END$actor_46_update$ec7bb5f   actor_46_update
     0028464E  ___func_bg_level_1_tilemap         bg_level_1_tilemap
     0028464E  _bg_level_1_tilemap                bg_level_1_tilemap
     002847B6  ___func_bg_venus_ac_ventilation_   bg_venus_ac_ventilation_tile
     002847B6  _bg_venus_ac_ventilation_tilemap   bg_venus_ac_ventilation_tile
     00285A76  ___func_bg_venus_ac_ventilation_   bg_venus_ac_ventilation_tile
     00285A76  _bg_venus_ac_ventilation_tilemap   bg_venus_ac_ventilation_tile
     00286D36  ___func_bg_venus_ac_ventilation2   bg_venus_ac_ventilation2_til
     00286D36  _bg_venus_ac_ventilation2_tilema   bg_venus_ac_ventilation2_til
     00287FF6  ___func_scene_47_sprites           scene_47_sprites
     00287FF6  _scene_47_sprites                  scene_47_sprites
ASxxxx Linker V03.00/V05.40 + sdld,  page 169.
Hexadecimal  [32-Bits]

Area                                    Addr        Size        Decimal Bytes (Attributes)
--------------------------------        ----        ----        ------- ----- ------------
_CODE_28                            001C4000    00003FFF =       16383. bytes (REL,CON)

      Value  Global                              Global Defined In Module
      -----  --------------------------------   ------------------------
     001C4000  _actor_63_update                   actor_63_update
     001C4002  GBVM$actor_63_update$65017f25_6f   actor_63_update
     001C400B  GBVM$actor_63_update$28f51f84_b0   actor_63_update
     001C401B  GBVM$actor_63_update$b578934a_c5   actor_63_update
     001C4027  GBVM$actor_63_update$c5b309cb_f3   actor_63_update
     001C4031  GBVM_END$actor_63_update$65017f2   actor_63_update
     001C4036  ___func_bg_mercury_viewing_area_   bg_mercury_viewing_area_tile
     001C4036  _bg_mercury_viewing_area_tilemap   bg_mercury_viewing_area_tile
     001C7A2D  _song_featherfire_ember_Data       song_featherfire_ember_Data
     001C7A42  _script_7                          script_7
     001C7A44  GBVM$script_7$17af3244_31dd_4acc   script_7
     001C7A50  GBVM$script_7$f1ae24eb_0eb5_4a14   script_7
     001C7A9D  GBVM$script_7$a78e6c25_e531_4695   script_7
     001C7B16  GBVM$script_7$7e626319_92dc_4bf9   script_7
     001C7B16  GBVM_END$script_7$17af3244_31dd_   script_7
     001C7B22  GBVM$script_7$000a988b_437c_4380   script_7
     001C7B55  GBVM$script_7$fd017f72_f9bf_4525   script_7
     001C7B5A  GBVM$script_7$954e17c7_ff3b_4939   script_7
     001C7B5B  GBVM$script_7$517865cd_6f3c_41b9   script_7
     001C7B5B  GBVM_END$script_7$7e626319_92dc_   script_7
     001C7B93  GBVM$script_7$7d432278_890a_4ad8   script_7
     001C7BDE  GBVM$script_7$e88a630e_d036_44e3   script_7
     001C7BEA  GBVM$script_7$f2486867_a19e_405a   script_7
     001C7BEF  GBVM$script_7$4650171e_9e92_4245   script_7
     001C7BF0  GBVM$script_7$cdcac5d4_aceb_4133   script_7
     001C7BF0  GBVM_END$script_7$e88a630e_d036_   script_7
     001C7BFD  GBVM$script_7$ff921270_af9d_40e6   script_7
     001C7C10  GBVM$script_7$524f1c18_212e_44e4   script_7
     001C7C20  GBVM$script_7$7ed1a807_5700_4fcd   script_7
     001C7C4A  GBVM$script_7$cbadc6fb_8268_4916   script_7
     001C7C4F  GBVM$script_7$1fa70bb4_6023_4349   script_7
     001C7C5E  GBVM_END$script_7$524f1c18_212e_   script_7
     001C7C61  GBVM$script_7$dd111f9a_cacd_4229   script_7
     001C7CA3  GBVM$script_7$7590f397_be57_4f86   script_7
     001C7CEE  GBVM$script_7$80ab1167_5265_4b3d   script_7
     001C7CF7  GBVM$script_7$62d00a17_195f_4513   script_7
     001C7CFC  GBVM$script_7$11970ada_c2f0_4ecf   script_7
     001C7D00  GBVM$script_7$e389bcb2_db81_4272   script_7
     001C7D10  GBVM$script_7$5328a89c_13a6_4407   script_7
     001C7D39  GBVM$script_7$af4c0d3e_1617_4981   script_7
     001C7D3E  GBVM$script_7$379d7a79_3685_46ce   script_7
     001C7D4D  GBVM_END$script_7$80ab1167_5265_   script_7
     001C7D4D  GBVM_END$script_7$e389bcb2_db81_   script_7
     001C7D4D  GBVM_END$script_7$ff921270_af9d_   script_7
     001C7D50  GBVM$script_7$d0e5cea0_74c4_4239   script_7
     001C7D63  GBVM$script_7$596e4f8b_8691_4e58   script_7
     001C7D73  GBVM$script_7$9f64c343_97d2_4322   script_7
     001C7D9D  GBVM$script_7$cc42eca6_a2dc_4e0e   script_7
     001C7DA2  GBVM$script_7$af210996_2b1d_49b1   script_7
     001C7DB1  GBVM_END$script_7$596e4f8b_8691_   script_7
ASxxxx Linker V03.00/V05.40 + sdld,  page 170.
Hexadecimal  [32-Bits]

Area                                    Addr        Size        Decimal Bytes (Attributes)
--------------------------------        ----        ----        ------- ----- ------------
_CODE_28                            001C4000    00003FFF =       16383. bytes (REL,CON)

      Value  Global                              Global Defined In Module
      -----  --------------------------------   ------------------------
     001C7DB4  GBVM$script_7$9de73976_4290_45a8   script_7
     001C7DF6  GBVM$script_7$341a2feb_9e19_47a6   script_7
     001C7E41  GBVM$script_7$9d4c9dbc_5d5b_4df3   script_7
     001C7E4A  GBVM$script_7$a7b8bb00_6a9b_4f93   script_7
     001C7E4F  GBVM$script_7$f1d03009_e4d1_4a0d   script_7
     001C7E53  GBVM$script_7$748491d9_6beb_47f9   script_7
     001C7E63  GBVM$script_7$0860e8cc_c606_4310   script_7
     001C7E8C  GBVM$script_7$7e0429fa_17be_41cb   script_7
     001C7E91  GBVM$script_7$008dc0ed_1a8c_41dd   script_7
     001C7EA0  GBVM_END$script_7$748491d9_6beb_   script_7
     001C7EA0  GBVM_END$script_7$9d4c9dbc_5d5b_   script_7
     001C7EA0  GBVM_END$script_7$d0e5cea0_74c4_   script_7
     001C7EA3  GBVM$script_7$89098bbf_efc9_4559   script_7
     001C7EB6  GBVM$script_7$228aa96b_dd43_43f0   script_7
     001C7EC6  GBVM$script_7$1058400c_e0fe_4c85   script_7
     001C7EF0  GBVM$script_7$ee1c4851_0ca7_43b4   script_7
     001C7EF5  GBVM$script_7$5daa79a4_b054_4329   script_7
     001C7F04  GBVM_END$script_7$228aa96b_dd43_   script_7
     001C7F07  GBVM$script_7$27876d54_2d72_4278   script_7
     001C7F49  GBVM$script_7$3a147719_873b_4f92   script_7
     001C7F94  GBVM$script_7$32e9d04d_6b86_4d06   script_7
     001C7F9D  GBVM$script_7$0f498d2a_0387_453b   script_7
     001C7FA2  GBVM$script_7$f0aaf037_96a2_43ec   script_7
     001C7FA6  GBVM$script_7$77652250_443d_48f2   script_7
     001C7FB6  GBVM$script_7$661d9e6d_ed4d_4082   script_7
     001C7FDF  GBVM$script_7$284140b9_b9f4_469a   script_7
     001C7FE4  GBVM$script_7$146e3305_efdd_4fb7   script_7
     001C7FE8  GBVM$script_7$autofade$f3a6d99e_   script_7
     001C7FF3  GBVM_END$script_7$32e9d04d_6b86_   script_7
     001C7FF3  GBVM_END$script_7$77652250_443d_   script_7
     001C7FF3  GBVM_END$script_7$89098bbf_efc9_   script_7
     001C7FF6  GBVM$script_7$4d291eef_62d4_4a6c   script_7
     001C7FF6  GBVM_END$script_7$cdcac5d4_aceb_   script_7

ASxxxx Linker V03.00/V05.40 + sdld,  page 171.
Hexadecimal  [32-Bits]

Area                                    Addr        Size        Decimal Bytes (Attributes)
--------------------------------        ----        ----        ------- ----- ------------
_CODE_16                            00104000    00004000 =       16384. bytes (REL,CON)

      Value  Global                              Global Defined In Module
      -----  --------------------------------   ------------------------
     00104000  _actor_64_interact                 actor_64_interact
     00104001  GBVM$actor_64_interact$1084a8fb_   actor_64_interact
     0010400C  GBVM$actor_64_interact$30782f92_   actor_64_interact
     00104014  ___func_bg_luna_peryil_s_house_t   bg_luna_peryil_s_house_tilem
     00104014  _bg_luna_peryil_s_house_tilemap    bg_luna_peryil_s_house_tilem
     00105914  ___func_bg_luna_water_heater_til   bg_luna_water_heater_tilemap
     00105914  _bg_luna_water_heater_tilemap      bg_luna_water_heater_tilemap
     00107E94  ___func_scene_43_actors            scene_43_actors
     00107E94  _scene_43_actors                   scene_43_actors
ASxxxx Linker V03.00/V05.40 + sdld,  page 172.
Hexadecimal  [32-Bits]

Area                                    Addr        Size        Decimal Bytes (Attributes)
--------------------------------        ----        ----        ------- ----- ------------
_CODE_17                            00114000    00004000 =       16384. bytes (REL,CON)

      Value  Global                              Global Defined In Module
      -----  --------------------------------   ------------------------
     00114000  _actor_65_interact                 actor_65_interact
     00114001  GBVM$actor_65_interact$9477d877_   actor_65_interact
     0011400C  GBVM$actor_65_interact$a63de27c_   actor_65_interact
     00114014  ___func_bg_mercury_landing_site_   bg_mercury_landing_site_tile
     00114014  _bg_mercury_landing_site_tilemap   bg_mercury_landing_site_tile
     00116594  ___func_scene_17_collisions        scene_17_collisions
     00116594  _scene_17_collisions               scene_17_collisions
     00117E94  ___func_scene_6_actors             scene_6_actors
     00117E94  _scene_6_actors                    scene_6_actors
ASxxxx Linker V03.00/V05.40 + sdld,  page 173.
Hexadecimal  [32-Bits]

Area                                    Addr        Size        Decimal Bytes (Attributes)
--------------------------------        ----        ----        ------- ----- ------------
_CODE_31                            001F4000    00004000 =       16384. bytes (REL,CON)

      Value  Global                              Global Defined In Module
      -----  --------------------------------   ------------------------
     001F4000  ___func_bg_earth_burnclaw_forest   bg_earth_burnclaw_forest_ca_
     001F4000  _bg_earth_burnclaw_forest_ca_til   bg_earth_burnclaw_forest_ca_
     001F52C0  ___func_bg_earth_burnclaw_forest   bg_earth_burnclaw_forest_cr_
     001F52C0  _bg_earth_burnclaw_forest_cr_til   bg_earth_burnclaw_forest_cr_
     001F5A52  ___func_scene_28_projectiles       scene_28_projectiles
     001F5A52  _scene_28_projectiles              scene_28_projectiles
     001F5A80  ___func_scene_31_collisions        scene_31_collisions
     001F5A80  _scene_31_collisions               scene_31_collisions

ASxxxx Linker V03.00/V05.40 + sdld,  page 174.
Hexadecimal  [32-Bits]

Area                                    Addr        Size        Decimal Bytes (Attributes)
--------------------------------        ----        ----        ------- ----- ------------
_CODE_7                             00074000    00003FFF =       16383. bytes (REL,CON)

      Value  Global                              Global Defined In Module
      -----  --------------------------------   ------------------------
     00074000  ___func_bg_earth_burnclaw_forest   bg_earth_burnclaw_forest_til
     00074000  _bg_earth_burnclaw_forest_tilema   bg_earth_burnclaw_forest_til
     000767D8  ___func_bg_placeholder_tileset     bg_placeholder_tileset
     000767D8  _bg_placeholder_tileset            bg_placeholder_tileset
     0007697A  ___func_bg_warning_tileset         bg_warning_tileset
     0007697A  _bg_warning_tileset                bg_warning_tileset
     00077FFC  ___func_scene_1_sprites            scene_1_sprites
     00077FFC  _scene_1_sprites                   scene_1_sprites

ASxxxx Linker V03.00/V05.40 + sdld,  page 175.
Hexadecimal  [32-Bits]

Area                                    Addr        Size        Decimal Bytes (Attributes)
--------------------------------        ----        ----        ------- ----- ------------
_CODE_8                             00084000    00004000 =       16384. bytes (REL,CON)

      Value  Global                              Global Defined In Module
      -----  --------------------------------   ------------------------
     00084000  ___func_bg_earth_burnclaw_forest   bg_earth_burnclaw_forest_til
     00084000  _bg_earth_burnclaw_forest_tilema   bg_earth_burnclaw_forest_til
     000867D8  ___func_sprite_ember_foxphoenix    sprite_ember_foxphoenix
     000867D8  _sprite_ember_foxphoenix_metaspr   sprite_ember_foxphoenix
     000867F0  _sprite_ember_foxphoenix_metaspr   sprite_ember_foxphoenix
     00086808  _sprite_ember_foxphoenix_metaspr   sprite_ember_foxphoenix
     00086820  _sprite_ember_foxphoenix_metaspr   sprite_ember_foxphoenix
     00086838  _sprite_ember_foxphoenix_metaspr   sprite_ember_foxphoenix
     00086850  _sprite_ember_foxphoenix_metaspr   sprite_ember_foxphoenix
     00086868  _sprite_ember_foxphoenix_metaspr   sprite_ember_foxphoenix
     0008686C  _sprite_ember_foxphoenix_metaspr   sprite_ember_foxphoenix
     00086884  _sprite_ember_foxphoenix_metaspr   sprite_ember_foxphoenix
     0008689C  _sprite_ember_foxphoenix_metaspr   sprite_ember_foxphoenix
     000868B4  _sprite_ember_foxphoenix_metaspr   sprite_ember_foxphoenix
     000868D0  _sprite_ember_foxphoenix_metaspr   sprite_ember_foxphoenix
     000868E8  _sprite_ember_foxphoenix_metaspr   sprite_ember_foxphoenix
     00086900  _sprite_ember_foxphoenix_metaspr   sprite_ember_foxphoenix
     00086918  _sprite_ember_foxphoenix_metaspr   sprite_ember_foxphoenix
     00086930  _sprite_ember_foxphoenix_metaspr   sprite_ember_foxphoenix
     00086952  _sprite_ember_foxphoenix_animati   sprite_ember_foxphoenix
     00086962  _sprite_ember_foxphoenix_animati   sprite_ember_foxphoenix
     00086964  _sprite_ember_foxphoenix           sprite_ember_foxphoenix
     00086977  ___func_tileset_hud_ui             tileset_hud_ui
     00086977  _tileset_hud_ui                    tileset_hud_ui
     00087FF9  _trigger_180_interact              trigger_180_interact
     00087FFA  GBVM$trigger_180_interact$5f6850   trigger_180_interact

ASxxxx Linker V03.00/V05.40 + sdld,  page 176.
Hexadecimal  [32-Bits]

Area                                    Addr        Size        Decimal Bytes (Attributes)
--------------------------------        ----        ----        ------- ----- ------------
_CODE_55                            00374000    00004000 =       16384. bytes (REL,CON)

      Value  Global                              Global Defined In Module
      -----  --------------------------------   ------------------------
     00374000  ___func_bg_earth_burnclaw_forest   bg_earth_burnclaw_forest_til
     00374000  _bg_earth_burnclaw_forest_tilese   bg_earth_burnclaw_forest_til
     00374602  ___func_bg_mercury_projectile_pl   bg_mercury_projectile_platf_
     00374602  _bg_mercury_projectile_platf_til   bg_mercury_projectile_platf_
     00374E04  ___func_bg_mercury_throne_room_t   bg_mercury_throne_room_tiles
     00374E04  _bg_mercury_throne_room_tileset    bg_mercury_throne_room_tiles
     00375606  ___func_bg_mercury_viewing_area_   bg_mercury_viewing_area_tile
     00375606  _bg_mercury_viewing_area_tileset   bg_mercury_viewing_area_tile
     00375E08  ___func_bg_settings_tileset        bg_settings_tileset
     00375E08  _bg_settings_tileset               bg_settings_tileset
     003763BA  ___func_scene_12_collisions        scene_12_collisions
     003763BA  _scene_12_collisions               scene_12_collisions
     003769FA  ___func_scene_32_collisions        scene_32_collisions
     003769FA  _scene_32_collisions               scene_32_collisions
     0037703A  ___func_scene_51_collisions        scene_51_collisions
     0037703A  _scene_51_collisions               scene_51_collisions
     0037767A  ___func_sprite_ember_stationary    sprite_ember_stationary
     0037767A  _sprite_ember_stationary_metaspr   sprite_ember_stationary
     00377696  _sprite_ember_stationary_metaspr   sprite_ember_stationary
     003776B2  _sprite_ember_stationary_metaspr   sprite_ember_stationary
     003776CE  _sprite_ember_stationary_metaspr   sprite_ember_stationary
     003776EA  _sprite_ember_stationary_metaspr   sprite_ember_stationary
     00377706  _sprite_ember_stationary_metaspr   sprite_ember_stationary
     00377722  _sprite_ember_stationary_metaspr   sprite_ember_stationary
     0037773E  _sprite_ember_stationary_metaspr   sprite_ember_stationary
     0037775A  _sprite_ember_stationary_metaspr   sprite_ember_stationary
     0037775E  _sprite_ember_stationary_metaspr   sprite_ember_stationary
     0037777A  _sprite_ember_stationary_metaspr   sprite_ember_stationary
     00377796  _sprite_ember_stationary_metaspr   sprite_ember_stationary
     003777AE  _sprite_ember_stationary_metaspr   sprite_ember_stationary
     003777CA  _sprite_ember_stationary_metaspr   sprite_ember_stationary
     003777E6  _sprite_ember_stationary_metaspr   sprite_ember_stationary
     0037780C  _sprite_ember_stationary_animati   sprite_ember_stationary
     0037781C  _sprite_ember_stationary_animati   sprite_ember_stationary
     0037781E  _sprite_ember_stationary           sprite_ember_stationary
     00377831  _trigger_183_interact              trigger_183_interact
     00377832  GBVM$trigger_183_interact$6b40a8   trigger_183_interact
     00377838  _shmup_init                        shmup
     003778D5  _shmup_update                      shmup
ASxxxx Linker V03.00/V05.40 + sdld,  page 177.
Hexadecimal  [32-Bits]

Area                                    Addr        Size        Decimal Bytes (Attributes)
--------------------------------        ----        ----        ------- ----- ------------
_CODE_53                            00354000    00004000 =       16384. bytes (REL,CON)

      Value  Global                              Global Defined In Module
      -----  --------------------------------   ------------------------
     00354000  ___func_bg_earth_distortion_moun   bg_earth_distortion_mountai_
     00354000  _bg_earth_distortion_mountai_til   bg_earth_distortion_mountai_
     00354802  ___func_bg_earth_level_1_intro_t   bg_earth_level_1_intro_tiles
     00354802  _bg_earth_level_1_intro_tileset    bg_earth_level_1_intro_tiles
     00355004  ___func_bg_earth_shuttle_bay_til   bg_earth_shuttle_bay_tileset
     00355004  _bg_earth_shuttle_bay_tileset      bg_earth_shuttle_bay_tileset
     00355806  ___func_bg_level_1_tileset         bg_level_1_tileset
     00355806  _bg_level_1_tileset                bg_level_1_tileset
     00356008  ___func_scene_49_collisions        scene_49_collisions
     00356008  _scene_49_collisions               scene_49_collisions
     00356968  ___func_scene_50_collisions        scene_50_collisions
     00356968  _scene_50_collisions               scene_50_collisions
     003572C8  _scene_53_init                     scene_53_init
     003572CB  GBVM$scene_53_init$bfd9351f_e69c   scene_53_init
     003572CB  GBVM$scene_53_init$cf859bb4_bee4   scene_53_init
     003572D0  GBVM$scene_53_init$05fbb027_4b9c   scene_53_init
     003572D7  GBVM$scene_53_init$autofade$ad10   scene_53_init
     003572D7  GBVM_END$scene_53_init$cf859bb4_   scene_53_init
     003572E2  GBVM$scene_53_init$e7d10682_8e20   scene_53_init
     003573A4  GBVM$scene_53_init$27da731f_70fb   scene_53_init
     0035743F  GBVM$scene_53_init$e9666d08_b9dd   scene_53_init
     00357596  GBVM$scene_53_init$b46175d7_757b   scene_53_init
     00357632  GBVM$scene_53_init$292c98fc_3c33   scene_53_init
     00357676  GBVM$scene_53_init$abb1fa3c_d5cc   scene_53_init
     00357681  GBVM$scene_53_init$d0fb81b3_d361   scene_53_init
     0035768D  GBVM$scene_53_init$945a5f33_4593   scene_53_init
     00357698  GBVM$scene_53_init$d7c3f033_edec   scene_53_init
     003576E0  GBVM$scene_53_init$10caa2bd_c6ce   scene_53_init
     00357786  GBVM$scene_53_init$3662676e_d43e   scene_53_init
     00357792  GBVM$scene_53_init$af7e3faa_1075   scene_53_init
     0035779E  GBVM$scene_53_init$9c662436_a8a7   scene_53_init
     003577D1  _script_11                         script_11
     003577D3  GBVM$script_11$ec26213a_33ce_43c   script_11
     003577D6  GBVM$script_11$a5a3515b_c9e2_4be   script_11
     003577D6  GBVM$script_11$c1e225a8_8275_4a6   script_11
     003577DB  GBVM$script_11$9b590c9d_f82c_4f8   script_11
     003577E2  GBVM$script_11$f718c3a9_2a7e_459   script_11
     003577E2  GBVM_END$script_11$c1e225a8_8275   script_11
     00357850  GBVM$script_11$20ac33ff_d7fe_462   script_11
     00357868  GBVM$script_11$a7cac1bd_cff4_4b8   script_11
     0035787A  GBVM$script_11$0728c166_94d6_4c7   script_11
     0035788C  GBVM$script_11$c8074562_9c61_48c   script_11
     0035789E  GBVM$script_11$cf11ae46_5282_4bb   script_11
     003578B0  GBVM$script_11$e848bdea_d828_4e6   script_11
     003578C5  GBVM$script_11$46befe59_963d_40f   script_11
     00357949  GBVM$script_11$db43fd8f_232d_426   script_11
     00357969  GBVM$script_11$2922179f_8243_4c3   script_11
     0035799E  GBVM$script_11$d9d5ec36_9f82_48b   script_11
     003579D3  GBVM$script_11$35902759_fd4b_4bf   script_11
     00357A08  GBVM$script_11$ba489704_fde5_49c   script_11
ASxxxx Linker V03.00/V05.40 + sdld,  page 178.
Hexadecimal  [32-Bits]

Area                                    Addr        Size        Decimal Bytes (Attributes)
--------------------------------        ----        ----        ------- ----- ------------
_CODE_53                            00354000    00004000 =       16384. bytes (REL,CON)

      Value  Global                              Global Defined In Module
      -----  --------------------------------   ------------------------
     00357A3D  GBVM$script_11$d4b0e6f4_5731_4ec   script_11
     00357A72  GBVM$script_11$776c9eac_718b_46d   script_11
     00357ABA  GBVM$script_11$79be28d1_d0fe_457   script_11
     00357AEF  GBVM_END$script_11$db43fd8f_232d   script_11
     00357AEF  GBVM_END$script_11$e848bdea_d828   script_11
     00357AF2  GBVM$script_11$b843a8e3_de11_40e   script_11
     00357B66  GBVM$script_11$f1143c0c_4f50_4d5   script_11
     00357B82  GBVM$script_11$b3074941_7794_440   script_11
     00357BB7  GBVM$script_11$6575aa79_03f2_42b   script_11
     00357BEC  GBVM$script_11$c8edd12c_b5e3_435   script_11
     00357C21  GBVM$script_11$2012a567_c818_4d8   script_11
     00357C56  GBVM$script_11$4dd1f847_3e96_4e5   script_11
     00357C8B  GBVM_END$script_11$cf11ae46_5282   script_11
     00357C8B  GBVM_END$script_11$f1143c0c_4f50   script_11
     00357C8E  GBVM$script_11$9d7ef191_270a_436   script_11
     00357CEF  GBVM$script_11$3917bd3a_407c_452   script_11
     00357D07  GBVM$script_11$12e46a58_62fd_405   script_11
     00357D3C  GBVM$script_11$abfd0060_e76e_4eb   script_11
     00357D71  GBVM$script_11$1a48ae5f_d50b_465   script_11
     00357DA6  GBVM$script_11$8eaa7b06_7535_405   script_11
     00357DDB  GBVM_END$script_11$3917bd3a_407c   script_11
     00357DDB  GBVM_END$script_11$c8074562_9c61   script_11
     00357DDE  GBVM$script_11$3d47fdcf_7c83_4aa   script_11
     00357E2F  GBVM$script_11$52958085_bbdd_46d   script_11
     00357E43  GBVM$script_11$8825724d_db06_44d   script_11
     00357E78  GBVM$script_11$9a7d6f32_f977_45f   script_11
     00357EAD  GBVM$script_11$beb3be87_f23a_462   script_11
     00357EE2  GBVM_END$script_11$0728c166_94d6   script_11
     00357EE2  GBVM_END$script_11$52958085_bbdd   script_11
     00357EE5  GBVM$script_11$87cd8387_af10_434   script_11
     00357F17  GBVM_END$script_11$a7cac1bd_cff4   script_11
     00357F1A  GBVM$script_11$b683d859_6491_418   script_11
     00357F1E  GBVM$script_11$4247664a_a288_466   script_11
     00357F53  GBVM$script_11$0b6f0b73_280d_44b   script_11
     00357F57  GBVM$script_11$a9960f99_6214_450   script_11
     00357F8C  GBVM$script_11$91dd3aff_4b7c_481   script_11
     00357F8D  GBVM$script_11$72233b14_b15c_474   script_11
     00357FBF  GBVM$script_11$84c9578a_403b_479   script_11
     00357FF1  GBVM$script_11$0bd72537_ef24_403   script_11
     00357FF5  GBVM_END$script_11$20ac33ff_d7fe   script_11
     00357FF9  _trigger_182_interact              trigger_182_interact
     00357FFA  GBVM$trigger_182_interact$79f326   trigger_182_interact

ASxxxx Linker V03.00/V05.40 + sdld,  page 179.
Hexadecimal  [32-Bits]

Area                                    Addr        Size        Decimal Bytes (Attributes)
--------------------------------        ----        ----        ------- ----- ------------
_CODE_11                            000B4000    00004000 =       16384. bytes (REL,CON)

      Value  Global                              Global Defined In Module
      -----  --------------------------------   ------------------------
     000B4000  ___func_bg_earth_level_1_intro_t   bg_earth_level_1_intro_tilem
     000B4000  _bg_earth_level_1_intro_tilemap_   bg_earth_level_1_intro_tilem
     000B5807  _song_featherfire_depresed_0_Dat   song_featherfire_depresed_0_
     000B581C  ___func_scene_11_collisions        scene_11_collisions
     000B581C  _scene_11_collisions               scene_11_collisions
     000B7FF4  ___func_scene_6_sprites            scene_6_sprites
     000B7FF4  _scene_6_sprites                   scene_6_sprites

ASxxxx Linker V03.00/V05.40 + sdld,  page 180.
Hexadecimal  [32-Bits]

Area                                    Addr        Size        Decimal Bytes (Attributes)
--------------------------------        ----        ----        ------- ----- ------------
_CODE_12                            000C4000    00004000 =       16384. bytes (REL,CON)

      Value  Global                              Global Defined In Module
      -----  --------------------------------   ------------------------
     000C4000  ___func_bg_earth_level_1_intro_t   bg_earth_level_1_intro_tilem
     000C4000  _bg_earth_level_1_intro_tilemap    bg_earth_level_1_intro_tilem
     000C5807  _song_featherfire_depresed0_Data   song_featherfire_depresed0_D
     000C581C  ___func_scene_14_collisions        scene_14_collisions
     000C581C  _scene_14_collisions               scene_14_collisions
     000C7FF4  GBVM$script_input_2$66b44a34_877   script_input_2
     000C7FF4  _script_input_2                    script_input_2

ASxxxx Linker V03.00/V05.40 + sdld,  page 181.
Hexadecimal  [32-Bits]

Area                                    Addr        Size        Decimal Bytes (Attributes)
--------------------------------        ----        ----        ------- ----- ------------
_CODE_48                            00304000    00004000 =       16384. bytes (REL,CON)

      Value  Global                              Global Defined In Module
      -----  --------------------------------   ------------------------
     00304000  ___func_bg_earth_shuttle_bay_til   bg_earth_shuttle_bay_tilemap
     00304000  _bg_earth_shuttle_bay_tilemap      bg_earth_shuttle_bay_tilemap
     00305F7F  _song_uncertain_wilds_0_Data       song_uncertain_wilds_0_Data
     00306EBB  _song_wolf_city_distiortion__Dat   song_wolf_city_distiortion__
     00306ED0  ___func_scene_30_sprites           scene_30_sprites
     00306ED0  _scene_30_sprites                  scene_30_sprites
     00306ED3  ___func_scene_9_collisions         scene_9_collisions
     00306ED3  _scene_9_collisions                scene_9_collisions
     00307F3B  _script_input_26                   script_input_26
     00307F3D  GBVM$script_input_26$d6f51d27_bb   script_input_26
     00307F48  GBVM$script_input_26$ccf15131_c7   script_input_26
     00307FD8  GBVM$script_input_26$0330ad0d_26   script_input_26
     00307FD8  GBVM$script_input_26$ff0c4822_ce   script_input_26
     00307FDD  GBVM$script_input_26$0e8287ea_8c   script_input_26
     00307FE4  GBVM$script_input_26$5659be43_81   script_input_26
     00307FE8  GBVM$script_input_26$d458f2e8_ba   script_input_26
     00307FF7  GBVM$script_input_26$56deaa63_cb   script_input_26
     00307FFF  GBVM_END$script_input_26$0330ad0   script_input_26
     00307FFF  GBVM_END$script_input_26$56deaa6   script_input_26

ASxxxx Linker V03.00/V05.40 + sdld,  page 182.
Hexadecimal  [32-Bits]

Area                                    Addr        Size        Decimal Bytes (Attributes)
--------------------------------        ----        ----        ------- ----- ------------
_CODE_9                             00094000    00004000 =       16384. bytes (REL,CON)

      Value  Global                              Global Defined In Module
      -----  --------------------------------   ------------------------
     00094000  ___func_bg_earth_shuttle_bay_upp   bg_earth_shuttle_bay_upper_t
     00094000  _bg_earth_shuttle_bay_upper_tile   bg_earth_shuttle_bay_upper_t
     000967D8  ___func_scene_19_sprites           scene_19_sprites
     000967D8  _scene_19_sprites                  scene_19_sprites
     000967DB  ___func_sprite_perlite_animated    sprite_perlite_animated
     000967DB  _sprite_perlite_animated_metaspr   sprite_perlite_animated
     000967F7  _sprite_perlite_animated_metaspr   sprite_perlite_animated
     00096813  _sprite_perlite_animated_metaspr   sprite_perlite_animated
     0009682F  _sprite_perlite_animated_metaspr   sprite_perlite_animated
     0009684B  _sprite_perlite_animated_metaspr   sprite_perlite_animated
     00096867  _sprite_perlite_animated_metaspr   sprite_perlite_animated
     00096883  _sprite_perlite_animated_metaspr   sprite_perlite_animated
     0009689F  _sprite_perlite_animated_metaspr   sprite_perlite_animated
     000968BB  _sprite_perlite_animated_metaspr   sprite_perlite_animated
     000968D7  _sprite_perlite_animated_metaspr   sprite_perlite_animated
     000968F3  _sprite_perlite_animated_metaspr   sprite_perlite_animated
     0009690F  _sprite_perlite_animated_metaspr   sprite_perlite_animated
     0009692B  _sprite_perlite_animated_metaspr   sprite_perlite_animated
     00096947  _sprite_perlite_animated_metaspr   sprite_perlite_animated
     00096969  _sprite_perlite_animated_animati   sprite_perlite_animated
     00096979  _sprite_perlite_animated_animati   sprite_perlite_animated
     0009697B  _sprite_perlite_animated           sprite_perlite_animated
     0009698E  _platform_init                     platform
     00096B08  _platform_update                   platform
ASxxxx Linker V03.00/V05.40 + sdld,  page 183.
Hexadecimal  [32-Bits]

Area                                    Addr        Size        Decimal Bytes (Attributes)
--------------------------------        ----        ----        ------- ----- ------------
_CODE_41                            00294000    00003FFF =       16383. bytes (REL,CON)

      Value  Global                              Global Defined In Module
      -----  --------------------------------   ------------------------
     00294000  ___func_bg_earth_shuttle_bay_wat   bg_earth_shuttle_bay_water_t
     00294000  _bg_earth_shuttle_bay_water_tile   bg_earth_shuttle_bay_water_t
     00294640  ___func_bg_level_2_tilemap_attr    bg_level_2_tilemap_attr
     00294640  _bg_level_2_tilemap_attr           bg_level_2_tilemap_attr
     002947A8  ___func_bg_venus_ac_ventilation2   bg_venus_ac_ventilation2_til
     002947A8  _bg_venus_ac_ventilation2_tilema   bg_venus_ac_ventilation2_til
     00295A68  ___func_bg_venus_office_access_t   bg_venus_office_access_tilem
     00295A68  _bg_venus_office_access_tilemap_   bg_venus_office_access_tilem
     00296D28  ___func_bg_venus_office_access_t   bg_venus_office_access_tilem
     00296D28  _bg_venus_office_access_tilemap    bg_venus_office_access_tilem
     00297FE8  ___func_scene_11_projectiles       scene_11_projectiles
     00297FE8  _scene_11_projectiles              scene_11_projectiles
ASxxxx Linker V03.00/V05.40 + sdld,  page 184.
Hexadecimal  [32-Bits]

Area                                    Addr        Size        Decimal Bytes (Attributes)
--------------------------------        ----        ----        ------- ----- ------------
_CODE_42                            002A4000    00003FFF =       16383. bytes (REL,CON)

      Value  Global                              Global Defined In Module
      -----  --------------------------------   ------------------------
     002A4000  ___func_bg_earth_shuttle_bay_wat   bg_earth_shuttle_bay_water_t
     002A4000  _bg_earth_shuttle_bay_water_tile   bg_earth_shuttle_bay_water_t
     002A4640  ___func_bg_level_2_tilemap         bg_level_2_tilemap
     002A4640  _bg_level_2_tilemap                bg_level_2_tilemap
     002A47A8  ___func_bg_venus_police_departme   bg_venus_police_department__
     002A47A8  _bg_venus_police_department__til   bg_venus_police_department__
     002A5A68  ___func_bg_venus_police_departme   bg_venus_police_department__
     002A5A68  _bg_venus_police_department__til   bg_venus_police_department__
     002A6D28  ___func_scene_12_projectiles       scene_12_projectiles
     002A6D28  _scene_12_projectiles              scene_12_projectiles
     002A6D3F  ___func_scene_15_collisions        scene_15_collisions
     002A6D3F  _scene_15_collisions               scene_15_collisions
ASxxxx Linker V03.00/V05.40 + sdld,  page 185.
Hexadecimal  [32-Bits]

Area                                    Addr        Size        Decimal Bytes (Attributes)
--------------------------------        ----        ----        ------- ----- ------------
_CODE_18                            00124000    00004000 =       16384. bytes (REL,CON)

      Value  Global                              Global Defined In Module
      -----  --------------------------------   ------------------------
     00124000  ___func_bg_game_menu_tilemap_att   bg_game_menu_tilemap_attr
     00124000  _bg_game_menu_tilemap_attr         bg_game_menu_tilemap_attr
     00124168  ___func_bg_mercury_landing_site_   bg_mercury_landing_site_tile
     00124168  _bg_mercury_landing_site_tilemap   bg_mercury_landing_site_tile
     001266E8  ___func_scene_14_triggers          scene_14_triggers
     001266E8  _scene_14_triggers                 scene_14_triggers
     00126700  ___func_scene_19_collisions        scene_19_collisions
     00126700  _scene_19_collisions               scene_19_collisions

ASxxxx Linker V03.00/V05.40 + sdld,  page 186.
Hexadecimal  [32-Bits]

Area                                    Addr        Size        Decimal Bytes (Attributes)
--------------------------------        ----        ----        ------- ----- ------------
_CODE_19                            00134000    00004000 =       16384. bytes (REL,CON)

      Value  Global                              Global Defined In Module
      -----  --------------------------------   ------------------------
     00134000  ___func_bg_game_menu_tilemap       bg_game_menu_tilemap
     00134000  _bg_game_menu_tilemap              bg_game_menu_tilemap
     00134168  ___func_bg_mercury_overflow_pass   bg_mercury_overflow_passage_
     00134168  _bg_mercury_overflow_passage_til   bg_mercury_overflow_passage_
     001366E8  ___func_scene_15_triggers          scene_15_triggers
     001366E8  _scene_15_triggers                 scene_15_triggers
     00136700  ___func_scene_20_collisions        scene_20_collisions
     00136700  _scene_20_collisions               scene_20_collisions

ASxxxx Linker V03.00/V05.40 + sdld,  page 187.
Hexadecimal  [32-Bits]

Area                                    Addr        Size        Decimal Bytes (Attributes)
--------------------------------        ----        ----        ------- ----- ------------
_CODE_20                            00144000    00004000 =       16384. bytes (REL,CON)

      Value  Global                              Global Defined In Module
      -----  --------------------------------   ------------------------
     00144000  ___func_bg_hud_ui_tilemap_attr     bg_hud_ui_tilemap_attr
     00144000  _bg_hud_ui_tilemap_attr            bg_hud_ui_tilemap_attr
     00144168  ___func_bg_mercury_overflow_pass   bg_mercury_overflow_passage_
     00144168  _bg_mercury_overflow_passage_til   bg_mercury_overflow_passage_
     001466E8  ___func_scene_27_triggers          scene_27_triggers
     001466E8  _scene_27_triggers                 scene_27_triggers
     00146700  ___func_scene_29_collisions        scene_29_collisions
     00146700  _scene_29_collisions               scene_29_collisions

ASxxxx Linker V03.00/V05.40 + sdld,  page 188.
Hexadecimal  [32-Bits]

Area                                    Addr        Size        Decimal Bytes (Attributes)
--------------------------------        ----        ----        ------- ----- ------------
_CODE_21                            00154000    00004000 =       16384. bytes (REL,CON)

      Value  Global                              Global Defined In Module
      -----  --------------------------------   ------------------------
     00154000  ___func_bg_hud_ui_tilemap          bg_hud_ui_tilemap
     00154000  _bg_hud_ui_tilemap                 bg_hud_ui_tilemap
     00154168  ___func_bg_mercury_poison_proces   bg_mercury_poison_processin_
     00154168  _bg_mercury_poison_processin_til   bg_mercury_poison_processin_
     001566E8  ___func_scene_30_collisions        scene_30_collisions
     001566E8  _scene_30_collisions               scene_30_collisions
     00157FE8  ___func_scene_43_triggers          scene_43_triggers
     00157FE8  _scene_43_triggers                 scene_43_triggers

ASxxxx Linker V03.00/V05.40 + sdld,  page 189.
Hexadecimal  [32-Bits]

Area                                    Addr        Size        Decimal Bytes (Attributes)
--------------------------------        ----        ----        ------- ----- ------------
_CODE_54                            00364000    00004000 =       16384. bytes (REL,CON)

      Value  Global                              Global Defined In Module
      -----  --------------------------------   ------------------------
     00364000  ___func_bg_hud_ui_tileset          bg_hud_ui_tileset
     00364000  _bg_hud_ui_tileset                 bg_hud_ui_tileset
     003647F2  ___func_bg_luna_peryil_s_house_t   bg_luna_peryil_s_house_tiles
     003647F2  _bg_luna_peryil_s_house_tileset    bg_luna_peryil_s_house_tiles
     00364FF4  ___func_bg_luna_serenity_forest_   bg_luna_serenity_forest_tile
     00364FF4  _bg_luna_serenity_forest_tileset   bg_luna_serenity_forest_tile
     003657F6  ___func_bg_menu_load_background_   bg_menu_load_background_tile
     003657F6  _bg_menu_load_background_tileset   bg_menu_load_background_tile
     00365FF8  ___func_bg_mercury_landing_site_   bg_mercury_landing_site_tile
     00365FF8  _bg_mercury_landing_site_tileset   bg_mercury_landing_site_tile
     003667FA  ___func_bg_mercury_overflow_pass   bg_mercury_overflow_passage_
     003667FA  _bg_mercury_overflow_passage_til   bg_mercury_overflow_passage_
     00366FFC  ___func_bg_mercury_poison_proces   bg_mercury_poison_processin_
     00366FFC  _bg_mercury_poison_processin_til   bg_mercury_poison_processin_
     003677FE  ___func_bg_mercury_poison_storag   bg_mercury_poison_storage_ti
     003677FE  _bg_mercury_poison_storage_tiles   bg_mercury_poison_storage_ti

ASxxxx Linker V03.00/V05.40 + sdld,  page 190.
Hexadecimal  [32-Bits]

Area                                    Addr        Size        Decimal Bytes (Attributes)
--------------------------------        ----        ----        ------- ----- ------------
_CODE_22                            00164000    00004000 =       16384. bytes (REL,CON)

      Value  Global                              Global Defined In Module
      -----  --------------------------------   ------------------------
     00164000  ___func_bg_jems_background_tilem   bg_jems_background_tilemap_a
     00164000  _bg_jems_background_tilemap_attr   bg_jems_background_tilemap_a
     00164168  ___func_bg_mercury_poison_proces   bg_mercury_poison_processin_
     00164168  _bg_mercury_poison_processin_til   bg_mercury_poison_processin_
     001666E8  ___func_scene_39_collisions        scene_39_collisions
     001666E8  _scene_39_collisions               scene_39_collisions
     00167FE8  GBVM$script_timer_90$2b6f7f6c_cf   script_timer_90
     00167FE8  _script_timer_90                   script_timer_90
     00167FF3  GBVM$script_timer_90$fc6128d1_35   script_timer_90
ASxxxx Linker V03.00/V05.40 + sdld,  page 191.
Hexadecimal  [32-Bits]

Area                                    Addr        Size        Decimal Bytes (Attributes)
--------------------------------        ----        ----        ------- ----- ------------
_CODE_23                            00174000    00003FFF =       16383. bytes (REL,CON)

      Value  Global                              Global Defined In Module
      -----  --------------------------------   ------------------------
     00174000  ___func_bg_jems_background_tilem   bg_jems_background_tilemap
     00174000  _bg_jems_background_tilemap        bg_jems_background_tilemap
     00174168  ___func_bg_mercury_poison_storag   bg_mercury_poison_storage_ti
     00174168  _bg_mercury_poison_storage_tilem   bg_mercury_poison_storage_ti
     001766E8  ___func_scene_1_projectiles        scene_1_projectiles
     001766E8  _scene_1_projectiles               scene_1_projectiles
     001766FF  ___func_scene_52_collisions        scene_52_collisions
     001766FF  _scene_52_collisions               scene_52_collisions

ASxxxx Linker V03.00/V05.40 + sdld,  page 192.
Hexadecimal  [32-Bits]

Area                                    Addr        Size        Decimal Bytes (Attributes)
--------------------------------        ----        ----        ------- ----- ------------
_CODE_35                            00234000    00004000 =       16384. bytes (REL,CON)

      Value  Global                              Global Defined In Module
      -----  --------------------------------   ------------------------
     00234000  ___func_bg_jems_background_tiles   bg_jems_background_tileset
     00234000  _bg_jems_background_tileset        bg_jems_background_tileset
     002346A2  ___func_bg_luna_serenity_forest_   bg_luna_serenity_forest_tile
     002346A2  _bg_luna_serenity_forest_tilemap   bg_luna_serenity_forest_tile
     00235962  ___func_scene_36_collisions        scene_36_collisions
     00235962  _scene_36_collisions               scene_36_collisions
     00237EE2  ___func_scene_43_sprites           scene_43_sprites
     00237EE2  _scene_43_sprites                  scene_43_sprites
     00237EEB  ___func_sprite_flare_static        sprite_flare_static
     00237EEB  _sprite_flare_static_metasprite_   sprite_flare_static
     00237EEF  _sprite_flare_static_metasprite_   sprite_flare_static
     00237F07  _sprite_flare_static_metasprite_   sprite_flare_static
     00237F1B  _sprite_flare_static_metasprite_   sprite_flare_static
     00237F33  _sprite_flare_static_metasprite_   sprite_flare_static
     00237F4B  _sprite_flare_static_metasprite_   sprite_flare_static
     00237F63  _sprite_flare_static_metasprite_   sprite_flare_static
     00237F7B  _sprite_flare_static_metasprite_   sprite_flare_static
     00237F93  _sprite_flare_static_metasprite_   sprite_flare_static
     00237FAF  _sprite_flare_static_metasprites   sprite_flare_static
     00237FC9  _sprite_flare_static_animations    sprite_flare_static
     00237FE9  _sprite_flare_static_animations_   sprite_flare_static
     00237FED  _sprite_flare_static               sprite_flare_static

ASxxxx Linker V03.00/V05.40 + sdld,  page 193.
Hexadecimal  [32-Bits]

Area                                    Addr        Size        Decimal Bytes (Attributes)
--------------------------------        ----        ----        ------- ----- ------------
_CODE_24                            00184000    00003FFF =       16383. bytes (REL,CON)

      Value  Global                              Global Defined In Module
      -----  --------------------------------   ------------------------
     00184000  ___func_bg_level_1_tilemap_attr    bg_level_1_tilemap_attr
     00184000  _bg_level_1_tilemap_attr           bg_level_1_tilemap_attr
     00184168  ___func_bg_mercury_poison_storag   bg_mercury_poison_storage_ti
     00184168  _bg_mercury_poison_storage_tilem   bg_mercury_poison_storage_ti
     001866E8  ___func_scene_10_projectiles       scene_10_projectiles
     001866E8  _scene_10_projectiles              scene_10_projectiles
     001866FF  ___func_scene_53_collisions        scene_53_collisions
     001866FF  _scene_53_collisions               scene_53_collisions

ASxxxx Linker V03.00/V05.40 + sdld,  page 194.
Hexadecimal  [32-Bits]

Area                                    Addr        Size        Decimal Bytes (Attributes)
--------------------------------        ----        ----        ------- ----- ------------
_CODE_46                            002E4000    00003FFF =       16383. bytes (REL,CON)

      Value  Global                              Global Defined In Module
      -----  --------------------------------   ------------------------
     002E4000  ___func_bg_level_2_cgb_tileset     bg_level_2_cgb_tileset
     002E4000  _bg_level_2_cgb_tileset            bg_level_2_cgb_tileset
     002E5AE9  _song_wolfsbane_castle_copy_Data   song_wolfsbane_castle_copy_D
     002E5AFE  ___func_scene_29_sprites           scene_29_sprites
     002E5AFE  _scene_29_sprites                  scene_29_sprites
     002E5B01  ___func_scene_55_collisions        scene_55_collisions
     002E5B01  _scene_55_collisions               scene_55_collisions
     002E6DC1  _script_4                          script_4
     002E6DC3  GBVM$script_4$d52fc7b0_e708_4cd0   script_4
     002E6DCB  GBVM$script_4$0b7ab9c0_81dc_4216   script_4
     002E6DD6  GBVM$script_4$5b0c1d39_4913_483d   script_4
     002E6DDF  GBVM$script_4$642ba3de_32eb_4d24   script_4
     002E6DE8  GBVM$script_4$44b8c0ed_889d_440c   script_4
     002E6DF4  GBVM$script_4$8d65dabe_acfd_4639   script_4
     002E6DFF  GBVM$script_4$47737594_6f08_4306   script_4
     002E6E08  GBVM$script_4$b5d89750_1d34_42a0   script_4
     002E6E11  GBVM$script_4$d2832696_219f_489e   script_4
     002E6E1D  GBVM$script_4$7df2146d_4715_4f89   script_4
     002E6E29  GBVM$script_4$523b0dd1_e0e4_4c50   script_4
     002E6E34  GBVM$script_4$a8724ba4_35e0_4448   script_4
     002E6E34  GBVM_END$script_4$5b0c1d39_4913_   script_4
     002E6E34  GBVM_END$script_4$7df2146d_4715_   script_4
     002E6E3D  GBVM$script_4$3992f813_34c6_4f88   script_4
     002E6E46  GBVM$script_4$fae90f34_5115_4a14   script_4
     002E6E52  GBVM$script_4$1716b419_ee59_4219   script_4
     002E6E5D  GBVM$script_4$eee5cf70_52c3_4397   script_4
     002E6E71  GBVM$script_4$792032b3_391d_4b9b   script_4
     002E6E7A  GBVM$script_4$c7b0215f_0bab_492e   script_4
     002E6E83  GBVM$script_4$39cf87f7_7ff7_453d   script_4
     002E6E98  GBVM$script_4$042de0b8_87c8_4dda   script_4
     002E6EA3  GBVM$script_4$85e18ccd_db1f_443f   script_4
     002E6EA3  GBVM_END$script_4$39cf87f7_7ff7_   script_4
     002E6EB2  GBVM$script_4$5fb731df_a590_47ec   script_4
     002E6EBB  GBVM$script_4$5f7d230d_a691_41e6   script_4
     002E6EC4  GBVM$script_4$e3f02028_71e6_4971   script_4
     002E6ED9  GBVM$script_4$61f392b9_bd57_4765   script_4
     002E6EE4  GBVM$script_4$5b0fb4c4_1eec_4a10   script_4
     002E6EE4  GBVM_END$script_4$e3f02028_71e6_   script_4
     002E6EF3  GBVM$script_4$41859f36_5adf_4980   script_4
     002E6EFC  GBVM$script_4$68da1301_8de9_4813   script_4
     002E6F05  GBVM$script_4$1fdcb5f2_ab32_4ef1   script_4
     002E6F14  GBVM$script_4$3ccfda2a_c5a5_44c8   script_4
     002E6F14  GBVM_END$script_4$eee5cf70_52c3_   script_4
     002E6F20  GBVM$script_4$ba513672_8e1e_4a47   script_4
     002E6F2B  GBVM$script_4$9fcd0eb4_729a_4ec2   script_4
     002E6F2B  GBVM_END$script_4$3ccfda2a_c5a5_   script_4
     002E6F2B  GBVM_END$script_4$a8724ba4_35e0_   script_4
     002E6F34  GBVM$script_4$f7466622_ee11_430f   script_4
     002E6F3D  GBVM$script_4$b1bdc298_9a4f_4049   script_4
     002E6F49  GBVM$script_4$5d19d8e8_708e_4862   script_4
ASxxxx Linker V03.00/V05.40 + sdld,  page 195.
Hexadecimal  [32-Bits]

Area                                    Addr        Size        Decimal Bytes (Attributes)
--------------------------------        ----        ----        ------- ----- ------------
_CODE_46                            002E4000    00003FFF =       16383. bytes (REL,CON)

      Value  Global                              Global Defined In Module
      -----  --------------------------------   ------------------------
     002E6F54  GBVM$script_4$66df7572_9063_4fe1   script_4
     002E6F68  GBVM$script_4$21c2546f_352f_497e   script_4
     002E6F71  GBVM$script_4$29f75467_7630_4eaf   script_4
     002E6F7A  GBVM$script_4$eedf3b9c_0ba6_4676   script_4
     002E6F8F  GBVM$script_4$46f28b9b_7dbd_426a   script_4
     002E6F9A  GBVM$script_4$0f892524_0b9a_4551   script_4
     002E6F9A  GBVM_END$script_4$eedf3b9c_0ba6_   script_4
     002E6FA9  GBVM$script_4$1c8fafbb_7bab_4df5   script_4
     002E6FB2  GBVM$script_4$4b7f6cb2_fe87_45fa   script_4
     002E6FBB  GBVM$script_4$038ffbcc_fe74_4933   script_4
     002E6FCA  GBVM$script_4$7ca388a7_f7ab_4d0e   script_4
     002E6FD3  GBVM$script_4$72f1a86f_5e09_4c3c   script_4
     002E6FDC  GBVM$script_4$4b1d3a94_ff57_433a   script_4
     002E6FF1  GBVM$script_4$5d0c4d2e_ea3d_4b6a   script_4
     002E6FFC  GBVM$script_4$4984b25e_bad5_4ae3   script_4
     002E6FFC  GBVM_END$script_4$4b1d3a94_ff57_   script_4
     002E700B  GBVM$script_4$06992baf_d552_4582   script_4
     002E700B  GBVM_END$script_4$66df7572_9063_   script_4
     002E7017  GBVM$script_4$d8c540ff_f9bb_47b4   script_4
     002E7022  GBVM$script_4$1ac621a8_2f90_478c   script_4
     002E7022  GBVM_END$script_4$06992baf_d552_   script_4
     002E7022  GBVM_END$script_4$9fcd0eb4_729a_   script_4
     002E702B  GBVM$script_4$abce7acb_1554_4045   script_4
     002E7034  GBVM$script_4$0ea5bfdb_427f_4680   script_4
     002E7040  GBVM$script_4$7c5ca30c_f754_4d98   script_4
     002E704B  GBVM$script_4$46897bfd_b21b_4f70   script_4
     002E705F  GBVM$script_4$9e91672c_5f35_43ea   script_4
     002E7068  GBVM$script_4$9ceb0cb2_953c_4689   script_4
     002E7071  GBVM$script_4$af2a4a9d_6418_401a   script_4
     002E7080  GBVM$script_4$a9e0155d_a65c_4725   script_4
     002E7089  GBVM$script_4$a67edea4_665e_4440   script_4
     002E7092  GBVM$script_4$a8d689e8_ca47_4979   script_4
     002E70A7  GBVM$script_4$505c5e86_cae3_44e3   script_4
     002E70B2  GBVM$script_4$acfa848d_b354_4580   script_4
     002E70B2  GBVM_END$script_4$a8d689e8_ca47_   script_4
     002E70C1  GBVM$script_4$ecbed649_2f92_4ca7   script_4
     002E70CA  GBVM$script_4$fab6d03a_f8f8_46a3   script_4
     002E70D3  GBVM$script_4$5397c1b3_8c71_4eb2   script_4
     002E70E8  GBVM$script_4$a80deedc_0b23_4a73   script_4
     002E70F3  GBVM$script_4$30839377_6ce7_4f2f   script_4
     002E70F3  GBVM_END$script_4$5397c1b3_8c71_   script_4
     002E7102  GBVM$script_4$e11bc4fa_fdbd_4c98   script_4
     002E7102  GBVM_END$script_4$46897bfd_b21b_   script_4
     002E710E  GBVM$script_4$cdbd2743_898d_4519   script_4
     002E7119  GBVM$script_4$38cfa40d_aeb5_4b39   script_4
     002E7119  GBVM$script_4$d3b1213a_50da_48fd   script_4
     002E7119  GBVM_END$script_4$1ac621a8_2f90_   script_4
     002E7119  GBVM_END$script_4$e11bc4fa_fdbd_   script_4
     002E713D  GBVM$script_4$7859ef74_f8b8_4b71   script_4
     002E7161  GBVM$script_4$8ff74924_f676_4588   script_4
     002E7185  GBVM$script_4$7dec4251_b367_4ebe   script_4
ASxxxx Linker V03.00/V05.40 + sdld,  page 196.
Hexadecimal  [32-Bits]

Area                                    Addr        Size        Decimal Bytes (Attributes)
--------------------------------        ----        ----        ------- ----- ------------
_CODE_46                            002E4000    00003FFF =       16383. bytes (REL,CON)

      Value  Global                              Global Defined In Module
      -----  --------------------------------   ------------------------
     002E71A9  GBVM$script_4$6922054f_bca2_4160   script_4
     002E71A9  GBVM_END$script_4$d3b1213a_50da_   script_4
     002E71BB  GBVM$script_4$9de9777c_1f5c_4e10   script_4
     002E71C7  GBVM$script_4$8f97711c_e758_4816   script_4
     002E71D6  GBVM$script_4$75008d85_2e63_4867   script_4
     002E71DB  GBVM$script_4$6e0a4dbc_5efe_4000   script_4
     002E71E0  GBVM$script_4$b85f6b30_3d67_4d44   script_4
     002E71E0  GBVM_END$script_4$6922054f_bca2_   script_4
     002E7209  GBVM$script_4$46ff4f2f_09b9_49c0   script_4
     002E722D  GBVM$script_4$4fb45874_ff63_4ede   script_4
     002E7251  GBVM$script_4$0b179d0e_1e9e_4e13   script_4
     002E7275  GBVM$script_4$9434b28f_8141_4f0b   script_4
     002E729C  GBVM$script_4$0657e47e_2f82_43c8   script_4
     002E729C  GBVM$script_4$6cfd0970_2ace_4540   script_4
     002E72C0  GBVM$script_4$3c5a0d96_0549_4942   script_4
     002E72E4  GBVM$script_4$6b42652f_4749_4227   script_4
     002E7308  GBVM$script_4$f845f8c3_d186_4d79   script_4
     002E732C  GBVM_END$script_4$0657e47e_2f82_   script_4
     002E732F  GBVM$script_4$600f606b_5a26_4155   script_4
     002E732F  GBVM$script_4$a248461f_3af3_4ef4   script_4
     002E7353  GBVM$script_4$fea26c17_9d4c_4ae5   script_4
     002E7377  GBVM$script_4$8a4fb296_e561_406a   script_4
     002E739B  GBVM$script_4$f78da972_afea_4427   script_4
     002E73BF  GBVM_END$script_4$a248461f_3af3_   script_4
     002E73C2  GBVM$script_4$61f8775a_8f85_4633   script_4
     002E73C2  GBVM$script_4$7938a8fa_0259_469f   script_4
     002E73E6  GBVM$script_4$92674351_ec71_4883   script_4
     002E740A  GBVM$script_4$c7768943_8ccf_46b0   script_4
     002E742E  GBVM$script_4$c7c976bf_a8d8_4e1d   script_4
     002E7452  GBVM_END$script_4$7938a8fa_0259_   script_4
     002E7455  GBVM$script_4$9c27970f_3d29_42d8   script_4
     002E7455  GBVM$script_4$a8800ef2_dac9_4332   script_4
     002E7479  GBVM$script_4$8ed94012_b422_4438   script_4
     002E749D  GBVM$script_4$03cbfa77_2ff1_43ab   script_4
     002E74C1  GBVM$script_4$757f3fe1_ecb5_4ced   script_4
     002E74E5  GBVM_END$script_4$a8800ef2_dac9_   script_4
     002E74E8  GBVM$script_4$276d41f1_a9ed_4dbc   script_4
     002E74E8  GBVM$script_4$7941f002_d00f_4dc6   script_4
     002E750C  GBVM$script_4$4db7a94a_612d_4817   script_4
     002E7530  GBVM$script_4$045ef79c_a7ff_4f70   script_4
     002E7554  GBVM$script_4$a29b2b2b_8d10_4e02   script_4
     002E7578  GBVM_END$script_4$276d41f1_a9ed_   script_4
     002E757B  GBVM$script_4$0d09fb9e_2476_4083   script_4
     002E757B  GBVM$script_4$32e122fc_cd2e_4719   script_4
     002E759F  GBVM$script_4$f2da8cfe_c7e8_4302   script_4
     002E75C3  GBVM$script_4$06ee4c79_737a_4997   script_4
     002E75E7  GBVM$script_4$b623edfb_6eb5_4b24   script_4
     002E760B  GBVM_END$script_4$0d09fb9e_2476_   script_4
     002E760E  GBVM$script_4$8b86f584_c7b3_4bed   script_4
     002E760E  GBVM$script_4$f19e227a_52e5_4342   script_4
     002E7632  GBVM$script_4$2a61d7e3_abd2_4766   script_4
ASxxxx Linker V03.00/V05.40 + sdld,  page 197.
Hexadecimal  [32-Bits]

Area                                    Addr        Size        Decimal Bytes (Attributes)
--------------------------------        ----        ----        ------- ----- ------------
_CODE_46                            002E4000    00003FFF =       16383. bytes (REL,CON)

      Value  Global                              Global Defined In Module
      -----  --------------------------------   ------------------------
     002E7656  GBVM$script_4$e972f1e8_850c_407e   script_4
     002E767A  GBVM$script_4$5efbbac4_f69f_493f   script_4
     002E769E  GBVM_END$script_4$f19e227a_52e5_   script_4
     002E76A1  GBVM$script_4$69a37201_caeb_47ea   script_4
     002E76A1  GBVM$script_4$da3e0f8c_e01c_4770   script_4
     002E76C5  GBVM$script_4$3f703bb5_4e8b_42ce   script_4
     002E76E9  GBVM$script_4$8d4c2921_a83d_4787   script_4
     002E770D  GBVM$script_4$041cdd18_fed9_4983   script_4
     002E7731  GBVM_END$script_4$da3e0f8c_e01c_   script_4
     002E7734  GBVM$script_4$df405958_94af_467b   script_4
     002E7734  GBVM$script_4$f915e432_88e1_46d6   script_4
     002E7758  GBVM$script_4$9b17bc36_0fdb_451a   script_4
     002E777C  GBVM$script_4$11e1bb9f_ec8f_4d18   script_4
     002E77A0  GBVM$script_4$d42ab61d_c447_4a27   script_4
     002E77C4  GBVM_END$script_4$f915e432_88e1_   script_4
     002E77C7  GBVM$script_4$5ff7042f_02c7_412e   script_4
     002E77C7  GBVM_END$script_4$b85f6b30_3d67_   script_4
     002E77F0  GBVM$script_4$1337ac19_2e4d_4e1c   script_4
     002E7814  GBVM$script_4$bc7fb181_a24b_4207   script_4
     002E7838  GBVM$script_4$45ac226d_bcb0_4dd7   script_4
     002E785C  GBVM$script_4$5f3ad2d9_c6f1_42ef   script_4
     002E7883  GBVM$script_4$5d60f05e_d5e5_4d3c   script_4
     002E7883  GBVM$script_4$c36018a1_2ee2_4da1   script_4
     002E78A7  GBVM$script_4$94fdf5a0_22bf_4555   script_4
     002E78CB  GBVM$script_4$702b83e4_a6b6_4abb   script_4
     002E78EF  GBVM$script_4$3eabd73b_4f4a_4888   script_4
     002E7913  GBVM_END$script_4$c36018a1_2ee2_   script_4
     002E7916  GBVM$script_4$f0697436_f669_46ee   script_4
     002E7916  GBVM$script_4$f515db0b_65be_4b62   script_4
     002E793A  GBVM$script_4$e9a308f7_6bd5_4b3c   script_4
     002E795E  GBVM$script_4$4289d09a_1d1a_4b52   script_4
     002E7982  GBVM$script_4$4133ae37_81e0_4200   script_4
     002E79A6  GBVM_END$script_4$f0697436_f669_   script_4
     002E79A9  GBVM$script_4$16caee91_9264_4b92   script_4
     002E79A9  GBVM$script_4$2ba045b9_13b0_4b3e   script_4
     002E79CD  GBVM$script_4$e9150c3f_01ae_4084   script_4
     002E79F1  GBVM$script_4$3d0482c3_8099_4170   script_4
     002E7A15  GBVM$script_4$3a513d90_a731_4c58   script_4
     002E7A39  GBVM_END$script_4$2ba045b9_13b0_   script_4
     002E7A3C  GBVM$script_4$6dab0f67_fbca_45db   script_4
     002E7A3C  GBVM$script_4$ab4b3343_d45f_4f46   script_4
     002E7A60  GBVM$script_4$d2829a33_20eb_4921   script_4
     002E7A84  GBVM$script_4$8bff37ae_5d19_46c4   script_4
     002E7AA8  GBVM$script_4$ba14df90_6127_4df3   script_4
     002E7ACC  GBVM_END$script_4$ab4b3343_d45f_   script_4
     002E7ACF  GBVM$script_4$9b897059_9560_4847   script_4
     002E7ACF  GBVM$script_4$f160c941_178e_4a9e   script_4
     002E7AF3  GBVM$script_4$4a3ea85b_ff19_4835   script_4
     002E7B17  GBVM$script_4$29494597_4453_4c26   script_4
     002E7B3B  GBVM$script_4$3c02fea8_0c81_431f   script_4
     002E7B5F  GBVM_END$script_4$f160c941_178e_   script_4
ASxxxx Linker V03.00/V05.40 + sdld,  page 198.
Hexadecimal  [32-Bits]

Area                                    Addr        Size        Decimal Bytes (Attributes)
--------------------------------        ----        ----        ------- ----- ------------
_CODE_46                            002E4000    00003FFF =       16383. bytes (REL,CON)

      Value  Global                              Global Defined In Module
      -----  --------------------------------   ------------------------
     002E7B62  GBVM$script_4$babbc17d_b821_45ca   script_4
     002E7B62  GBVM$script_4$fc23c175_072f_4e4b   script_4
     002E7B86  GBVM$script_4$fd028ab2_d313_420f   script_4
     002E7BAA  GBVM$script_4$282cc7a3_effe_4873   script_4
     002E7BCE  GBVM$script_4$64e05816_1276_4030   script_4
     002E7BF2  GBVM_END$script_4$babbc17d_b821_   script_4
     002E7BF5  GBVM$script_4$ceeb9e72_dc86_4eb2   script_4
     002E7BF5  GBVM$script_4$e48eaf3a_25cc_42e2   script_4
     002E7C19  GBVM$script_4$bfd23d26_99db_47a2   script_4
     002E7C3D  GBVM$script_4$3decd457_ac16_47ea   script_4
     002E7C61  GBVM$script_4$1454f25d_64cc_4d36   script_4
     002E7C85  GBVM_END$script_4$ceeb9e72_dc86_   script_4
     002E7C88  GBVM$script_4$6379f4b7_55f8_4167   script_4
     002E7C88  GBVM$script_4$8c8d9f3b_38f8_4e0a   script_4
     002E7CAC  GBVM$script_4$aafe68f1_c212_48e7   script_4
     002E7CD0  GBVM$script_4$8d37a588_f499_4b27   script_4
     002E7CF4  GBVM$script_4$79184150_ba89_42d0   script_4
     002E7D18  GBVM_END$script_4$6379f4b7_55f8_   script_4
     002E7D1B  GBVM$script_4$24d20b79_f056_413b   script_4
     002E7D1B  GBVM$script_4$df8e671e_7dce_4979   script_4
     002E7D3F  GBVM$script_4$a14b07f9_2aa6_41cb   script_4
     002E7D63  GBVM$script_4$42ca799a_7078_42ee   script_4
     002E7D87  GBVM$script_4$9514d0e2_5336_4094   script_4
     002E7DAB  GBVM_END$script_4$df8e671e_7dce_   script_4
     002E7DAE  GBVM$script_4$734633e2_f02f_4354   script_4
     002E7DAE  GBVM_END$script_4$5ff7042f_02c7_   script_4
     002E7DC2  GBVM$script_4$838cd7a0_0b40_49d0   script_4
     002E7DC2  GBVM$script_4$f6f426c3_d9f3_4d7a   script_4
     002E7DE6  GBVM$script_4$8da44086_1c3d_4633   script_4
     002E7E0A  GBVM$script_4$ff4a622c_7dcf_4e40   script_4
     002E7E2E  GBVM$script_4$91d320ad_3de5_4899   script_4
     002E7E52  GBVM_END$script_4$f6f426c3_d9f3_   script_4
     002E7E55  GBVM$script_4$7614db9e_b825_41de   script_4
     002E7E55  GBVM$script_4$7eaefbfa_5e38_4b93   script_4
     002E7E79  GBVM$script_4$cc99479c_ce9d_4f05   script_4
     002E7E9D  GBVM$script_4$d8237fbd_af53_46d9   script_4
     002E7EC1  GBVM$script_4$0eea0637_8620_4960   script_4
     002E7EE5  GBVM_END$script_4$7eaefbfa_5e38_   script_4
     002E7EE8  GBVM$script_4$adf226ea_ead7_45fd   script_4
     002E7EE8  GBVM$script_4$e3b11a99_14de_4bc3   script_4
     002E7F0C  GBVM$script_4$efcd75ae_8f22_4d9e   script_4
     002E7F30  GBVM$script_4$0b5a2c62_6cf8_45db   script_4
     002E7F54  GBVM$script_4$846844c6_d45e_4558   script_4
     002E7F78  GBVM_END$script_4$e3b11a99_14de_   script_4
     002E7F7B  GBVM$script_4$3c82d008_5937_4f29   script_4
     002E7F7B  GBVM_END$script_4$734633e2_f02f_   script_4
     002E7F90  GBVM$script_4$096b015e_c034_4da9   script_4
     002E7FC9  GBVM$script_4$9517bf0e_8b95_4e02   script_4
     002E7FFB  GBVM_END$script_4$3c82d008_5937_   script_4
ASxxxx Linker V03.00/V05.40 + sdld,  page 199.
Hexadecimal  [32-Bits]

Area                                    Addr        Size        Decimal Bytes (Attributes)
--------------------------------        ----        ----        ------- ----- ------------
_CODE_51                            00334000    00003FFF =       16383. bytes (REL,CON)

      Value  Global                              Global Defined In Module
      -----  --------------------------------   ------------------------
     00334000  ___func_bg_level_2_tileset         bg_level_2_tileset
     00334000  _bg_level_2_tileset                bg_level_2_tileset
     00334872  ___func_bg_mercury_throne_room_t   bg_mercury_throne_room_tilem
     00334872  _bg_mercury_throne_room_tilemap    bg_mercury_throne_room_tilem
     003354F2  ___func_bg_venus_defence_tunnel_   bg_venus_defence_tunnel_tile
     003354F2  _bg_venus_defence_tunnel_tilemap   bg_venus_defence_tunnel_tile
     00335E52  _scene_28_init                     scene_28_init
     00335E55  GBVM$scene_28_init$autofade$5c97   scene_28_init
     00335E60  GBVM$scene_28_init$414e930a_624c   scene_28_init
     00335E69  GBVM$scene_28_init$4453fe7e_eac1   scene_28_init
     00335E7B  GBVM$scene_28_init$cb37b8d6_0908   scene_28_init
     00335E90  GBVM$scene_28_init$b4ac85be_ca4c   scene_28_init
     00335E9B  GBVM$scene_28_init$466104a3_fbb3   scene_28_init
     00335EA6  GBVM$scene_28_init$d0c4c94d_988a   scene_28_init
     00335EB2  GBVM$scene_28_init$51f172cd_d077   scene_28_init
     00335EF2  GBVM$scene_28_init$143a03d9_0b3f   scene_28_init
     00335EFD  GBVM$scene_28_init$a7c46fe8_83e8   scene_28_init
     00335F08  GBVM$scene_28_init$c4b5bf58_f843   scene_28_init
     00335F95  GBVM$scene_28_init$0580068f_a1f4   scene_28_init
     00335FA0  GBVM$scene_28_init$a117d620_8d5d   scene_28_init
     00336005  GBVM$scene_28_init$13f21aa7_02d0   scene_28_init
     00336012  GBVM$scene_28_init$30508f02_5d43   scene_28_init
     0033601E  GBVM$scene_28_init$45f5d1ee_b406   scene_28_init
     0033601E  GBVM$scene_28_init$ec96ae9c_3d4b   scene_28_init
     00336023  GBVM$scene_28_init$5b7dca85_ebcf   scene_28_init
     0033602A  GBVM$scene_28_init$4583e121_7697   scene_28_init
     0033602A  GBVM_END$scene_28_init$45f5d1ee_   scene_28_init
     00336032  GBVM_END$scene_28_init$4583e121_   scene_28_init
     00336035  GBVM$scene_28_init$e68e57e5_db1c   scene_28_init
     0033607E  GBVM$scene_28_init$b5fef343_234e   scene_28_init
     00336089  GBVM$scene_28_init$6c43ae2e_ffa1   scene_28_init
     003360C5  GBVM$scene_28_init$2a4afdcf_0b5a   scene_28_init
     003360E3  GBVM$scene_28_init$edd680ae_4a08   scene_28_init
     0033610E  GBVM$scene_28_init$8d375543_42af   scene_28_init
     0033610E  GBVM$scene_28_init$e2a447b2_ba1c   scene_28_init
     00336113  GBVM$scene_28_init$6a20d169_5c79   scene_28_init
     0033611E  GBVM$scene_28_init$d2c6a574_07bb   scene_28_init
     00336129  GBVM$scene_28_init$c46964fd_ea1d   scene_28_init
     0033612E  GBVM$scene_28_init$32b40e73_8bcb   scene_28_init
     0033613D  GBVM$scene_28_init$11306fef_18af   scene_28_init
     00336148  GBVM$scene_28_init$35f31524_798c   scene_28_init
     0033619A  GBVM$scene_28_init$6f19341b_71e1   scene_28_init
     003361A5  GBVM$scene_28_init$707e9021_3444   scene_28_init
     00336224  GBVM$scene_28_init$07b4694d_d6db   scene_28_init
     0033622F  GBVM$scene_28_init$c437f5e3_fce6   scene_28_init
     0033627F  GBVM$scene_28_init$d6ff4654_d6a0   scene_28_init
     0033628C  GBVM$scene_28_init$f73eda2b_2918   scene_28_init
     00336297  GBVM$scene_28_init$5bcb2823_dded   scene_28_init
     00336314  GBVM$scene_28_init$5bdaa3c0_dab7   scene_28_init
     0033631F  GBVM$scene_28_init$45de8c66_dd66   scene_28_init
ASxxxx Linker V03.00/V05.40 + sdld,  page 200.
Hexadecimal  [32-Bits]

Area                                    Addr        Size        Decimal Bytes (Attributes)
--------------------------------        ----        ----        ------- ----- ------------
_CODE_51                            00334000    00003FFF =       16383. bytes (REL,CON)

      Value  Global                              Global Defined In Module
      -----  --------------------------------   ------------------------
     00336371  GBVM$scene_28_init$0192c78e_9991   scene_28_init
     0033637C  GBVM$scene_28_init$0ab84f62_d1a6   scene_28_init
     003363BB  GBVM$scene_28_init$bbf5bf7f_d945   scene_28_init
     003363C6  GBVM$scene_28_init$b608dd38_3a78   scene_28_init
     003363D1  GBVM$scene_28_init$fe0e12cf_5649   scene_28_init
     00336421  GBVM$scene_28_init$a1697edb_9332   scene_28_init
     00336426  GBVM$scene_28_init$c0d63c7e_3143   scene_28_init
     0033642B  GBVM$scene_28_init$67adc82e_cdb1   scene_28_init
     0033643A  GBVM$scene_28_init$78627b8d_eb25   scene_28_init
     00336445  GBVM$scene_28_init$bf327fb8_1b2e   scene_28_init
     00336510  GBVM$scene_28_init$ebbb5649_5c70   scene_28_init
     0033651B  GBVM$scene_28_init$0640be1f_7a09   scene_28_init
     00336557  GBVM$scene_28_init$b1391135_022a   scene_28_init
     00336569  GBVM$scene_28_init$01b858d7_00f0   scene_28_init
     00336578  GBVM$scene_28_init$c42050fd_f45c   scene_28_init
     003365BB  GBVM$scene_28_init$f5adaac7_b125   scene_28_init
     003365BB  GBVM_END$scene_28_init$b1391135_   scene_28_init
     003365C0  GBVM$scene_28_init$6e5e8be9_3b92   scene_28_init
     003365CB  GBVM$scene_28_init$7fec4487_5b1a   scene_28_init
     003365D6  GBVM$scene_28_init$b8e5c2c6_429c   scene_28_init
     003365E1  GBVM$scene_28_init$9504fddb_c8c3   scene_28_init
     0033666B  GBVM$scene_28_init$a90bc139_0152   scene_28_init
     00336670  GBVM$scene_28_init$0a0db7dc_ad27   scene_28_init
     0033667F  GBVM$scene_28_init$c2169b05_7511   scene_28_init
     0033668A  GBVM$scene_28_init$9ad28066_27fb   scene_28_init
     003366F3  GBVM$scene_28_init$405abc7e_e912   scene_28_init
     003366FE  GBVM$scene_28_init$42b3b2d6_3b8a   scene_28_init
     00336752  GBVM$scene_28_init$9c164ed6_c735   scene_28_init
     0033675D  GBVM$scene_28_init$18a36f12_4a2c   scene_28_init
     003367AB  GBVM$scene_28_init$97b51a4b_72cf   scene_28_init
     003367B6  GBVM$scene_28_init$3ddce9f5_a653   scene_28_init
     003367C1  GBVM$scene_28_init$176afa23_ae46   scene_28_init
     003367C6  GBVM$scene_28_init$fc631b50_9ad8   scene_28_init
     003367CB  GBVM$scene_28_init$224172a8_eab2   scene_28_init
     003367DA  GBVM_END$scene_28_init$d6ff4654_   scene_28_init
     003367DD  GBVM_END$scene_28_init$13f21aa7_   scene_28_init
     003367DD  GBVM_END$scene_28_init$cb37b8d6_   scene_28_init
     003367E0  GBVM$scene_28_init$2e84f888_3c29   scene_28_init
     003367F2  GBVM$scene_28_init$56677d52_031b   scene_28_init
     003367FD  GBVM$scene_28_init$47018be1_260d   scene_28_init
     0033684E  GBVM$scene_28_init$723b42b1_6e50   scene_28_init
     00336859  GBVM$scene_28_init$ddef7b2f_02a9   scene_28_init
     003368E8  GBVM$scene_28_init$7acc6362_d40b   scene_28_init
     003368F3  GBVM$scene_28_init$820e651b_9ae2   scene_28_init
     00336944  GBVM$scene_28_init$a74fd93e_f98f   scene_28_init
     00336950  GBVM$scene_28_init$44ab26dd_46a7   scene_28_init
     00336950  GBVM$scene_28_init$a93eae1d_1ee7   scene_28_init
     00336955  GBVM$scene_28_init$780c2270_9fdf   scene_28_init
     0033695C  GBVM_END$scene_28_init$44ab26dd_   scene_28_init
     0033695F  GBVM$scene_28_init$dffe584d_c825   scene_28_init
     0033695F  GBVM_END$scene_28_init$2e84f888_   scene_28_init
ASxxxx Linker V03.00/V05.40 + sdld,  page 201.
Hexadecimal  [32-Bits]

Area                                    Addr        Size        Decimal Bytes (Attributes)
--------------------------------        ----        ----        ------- ----- ------------
_CODE_51                            00334000    00003FFF =       16383. bytes (REL,CON)

      Value  Global                              Global Defined In Module
      -----  --------------------------------   ------------------------
     00336967  GBVM$scene_28_init$a36cb747_6cef   scene_28_init
     00336967  GBVM_END$scene_28_init$4453fe7e_   scene_28_init
     00336967  GBVM_END$scene_28_init$dffe584d_   scene_28_init
     0033696F  GBVM$scene_28_init$c3a63284_3f5c   scene_28_init
     0033696F  GBVM$scene_28_init$ff73beab_8651   scene_28_init
     0033696F  GBVM_END$scene_28_init$414e930a_   scene_28_init
     00336974  GBVM$scene_28_init$f984863e_a517   scene_28_init
     0033697B  GBVM$scene_28_init$f068123f_4a00   scene_28_init
     0033697F  GBVM$scene_28_init$bf7293d7_1072   scene_28_init
     0033698E  GBVM$scene_28_init$3237a1a6_84ee   scene_28_init
     003369A2  GBVM$scene_28_init$99f43948_36e5   scene_28_init
     003369AA  GBVM$scene_28_init$32edaa4a_334e   scene_28_init
     003369AA  GBVM$scene_28_init$e9812124_771a   scene_28_init
     003369AA  GBVM_END$scene_28_init$99f43948_   scene_28_init
     003369AA  GBVM_END$scene_28_init$ff73beab_   scene_28_init
     003369AF  GBVM$scene_28_init$ff417f2a_21b2   scene_28_init
     003369B6  GBVM$scene_28_init$9437cd75_f042   scene_28_init
     003369B6  GBVM$scene_28_init$bd12aeea_3b0c   scene_28_init
     003369B6  GBVM_END$scene_28_init$e9812124_   scene_28_init
     003369BB  GBVM$scene_28_init$3277bb27_3c75   scene_28_init
     003369C2  GBVM$scene_28_init$f3d83c5d_75a0   scene_28_init
     003369C6  GBVM$scene_28_init$7ddf6923_3490   scene_28_init
     003369D5  GBVM$scene_28_init$204914b3_1e8d   scene_28_init
     003369E9  GBVM$scene_28_init$882750b0_372b   scene_28_init
     003369F1  GBVM_END$scene_28_init$882750b0_   scene_28_init
     003369F1  GBVM_END$scene_28_init$bd12aeea_   scene_28_init
     003369F2  _scene_29_init                     scene_29_init
     003369F5  GBVM$scene_29_init$cc413b0e_a935   scene_29_init
     003369FD  GBVM$scene_29_init$40d8de98_1898   scene_29_init
     003369FD  GBVM$scene_29_init$d5a68be0_d9d5   scene_29_init
     00336A02  GBVM$scene_29_init$7dafa10c_0da3   scene_29_init
     00336A09  GBVM$scene_29_init$560b620d_2903   scene_29_init
     00336A09  GBVM_END$scene_29_init$40d8de98_   scene_29_init
     00336A15  GBVM$scene_29_init$6e8eb3a4_2c4a   scene_29_init
     00336A21  GBVM$scene_29_init$3247f8bd_9cae   scene_29_init
     00336A2C  GBVM$scene_29_init$autofade$1836   scene_29_init
     00336A37  GBVM$scene_29_init$035c02c8_49da   scene_29_init
     00336A88  GBVM$scene_29_init$3b51d333_8699   scene_29_init
     00336A93  GBVM$scene_29_init$0517cc04_ff66   scene_29_init
     00336AEC  GBVM$scene_29_init$8bb20c57_ccfb   scene_29_init
     00336AF7  GBVM$scene_29_init$a33f5e56_2209   scene_29_init
     00336B54  GBVM$scene_29_init$a2c42901_cfae   scene_29_init
     00336B5C  GBVM$scene_29_init$5a16efd6_f5f0   scene_29_init
     00336BAA  GBVM$scene_29_init$b74318cb_3068   scene_29_init
     00336BB5  GBVM$scene_29_init$24cb2332_91d9   scene_29_init
     00336F0C  GBVM$scene_29_init$6a1b8f7d_c44d   scene_29_init
     00336F17  GBVM$scene_29_init$6d3dae27_4d76   scene_29_init
     00336F5C  GBVM$scene_29_init$31967b4f_adc8   scene_29_init
     00336F67  GBVM$scene_29_init$409b21b9_d030   scene_29_init
     0033708E  GBVM$scene_29_init$69f088db_0416   scene_29_init
     0033709A  GBVM$scene_29_init$8441c3de_d344   scene_29_init
ASxxxx Linker V03.00/V05.40 + sdld,  page 202.
Hexadecimal  [32-Bits]

Area                                    Addr        Size        Decimal Bytes (Attributes)
--------------------------------        ----        ----        ------- ----- ------------
_CODE_51                            00334000    00003FFF =       16383. bytes (REL,CON)

      Value  Global                              Global Defined In Module
      -----  --------------------------------   ------------------------
     0033709F  GBVM$scene_29_init$040e7e83_37b4   scene_29_init
     003370AA  GBVM$scene_29_init$7f0e92cd_6010   scene_29_init
     003370B5  GBVM$scene_29_init$35880674_3695   scene_29_init
     003370C8  GBVM$scene_29_init$012074aa_215d   scene_29_init
     00337146  GBVM$scene_29_init$010b5245_22e9   scene_29_init
     00337151  GBVM$scene_29_init$9866410e_fe16   scene_29_init
     0033715C  GBVM$scene_29_init$8e711493_19dd   scene_29_init
     003371D8  GBVM$scene_29_init$0aaabec2_87c2   scene_29_init
     003371E3  GBVM$scene_29_init$4668efdf_3e56   scene_29_init
     003371EE  GBVM$scene_29_init$1cf33526_8c88   scene_29_init
     0033732F  GBVM$scene_29_init$5daa86f5_a286   scene_29_init
     00337337  GBVM$scene_29_init$fd495c1b_dc3b   scene_29_init
     00337340  GBVM$scene_29_init$3ef2b939_f749   scene_29_init
     00337349  GBVM$scene_29_init$c4e4f024_6545   scene_29_init
     0033737C  ___func_scene_31_sprites           scene_31_sprites
     0033737C  _scene_31_sprites                  scene_31_sprites
     0033737F  ___func_scene_38_collisions        scene_38_collisions
     0033737F  _scene_38_collisions               scene_38_collisions

ASxxxx Linker V03.00/V05.40 + sdld,  page 203.
Hexadecimal  [32-Bits]

Area                                    Addr        Size        Decimal Bytes (Attributes)
--------------------------------        ----        ----        ------- ----- ------------
_CODE_15                            000F4000    00004000 =       16384. bytes (REL,CON)

      Value  Global                              Global Defined In Module
      -----  --------------------------------   ------------------------
     000F4000  ___func_bg_luna_peryil_s_house_t   bg_luna_peryil_s_house_tilem
     000F4000  _bg_luna_peryil_s_house_tilemap_   bg_luna_peryil_s_house_tilem
     000F5900  ___func_bg_luna_water_heater_til   bg_luna_water_heater_tilemap
     000F5900  _bg_luna_water_heater_tilemap_at   bg_luna_water_heater_tilemap
     000F7E80  ___func_scene_27_sprites           scene_27_sprites
     000F7E80  _scene_27_sprites                  scene_27_sprites
     000F7E83  ___func_sprite_jem_animated        sprite_jem_animated
     000F7E83  _sprite_jem_animated_metasprite_   sprite_jem_animated
     000F7E9B  _sprite_jem_animated_metasprite_   sprite_jem_animated
     000F7EB3  _sprite_jem_animated_metasprite_   sprite_jem_animated
     000F7ECB  _sprite_jem_animated_metasprite_   sprite_jem_animated
     000F7EE3  _sprite_jem_animated_metasprite_   sprite_jem_animated
     000F7EFB  _sprite_jem_animated_metasprite_   sprite_jem_animated
     000F7F13  _sprite_jem_animated_metasprite_   sprite_jem_animated
     000F7F17  _sprite_jem_animated_metasprite_   sprite_jem_animated
     000F7F2F  _sprite_jem_animated_metasprite_   sprite_jem_animated
     000F7F47  _sprite_jem_animated_metasprite_   sprite_jem_animated
     000F7F5B  _sprite_jem_animated_metasprite_   sprite_jem_animated
     000F7F6F  _sprite_jem_animated_metasprite_   sprite_jem_animated
     000F7F83  _sprite_jem_animated_metasprite_   sprite_jem_animated
     000F7F9B  _sprite_jem_animated_metasprite_   sprite_jem_animated
     000F7FB3  _sprite_jem_animated_metasprites   sprite_jem_animated
     000F7FDB  _sprite_jem_animated_animations    sprite_jem_animated
     000F7FEB  _sprite_jem_animated_animations_   sprite_jem_animated
     000F7FED  _sprite_jem_animated               sprite_jem_animated

ASxxxx Linker V03.00/V05.40 + sdld,  page 204.
Hexadecimal  [32-Bits]

Area                                    Addr        Size        Decimal Bytes (Attributes)
--------------------------------        ----        ----        ------- ----- ------------
_CODE_50                            00324000    00003FFE =       16382. bytes (REL,CON)

      Value  Global                              Global Defined In Module
      -----  --------------------------------   ------------------------
     00324000  ___func_bg_luna_serenity_cave_lo   bg_luna_serenity_cave_lower_
     00324000  _bg_luna_serenity_cave_lower_til   bg_luna_serenity_cave_lower_
     00324D20  ___func_bg_luna_serenity_cave_lo   bg_luna_serenity_cave_lower_
     00324D20  _bg_luna_serenity_cave_lower_til   bg_luna_serenity_cave_lower_
     00325A40  ___func_bg_mercury_throne_room_t   bg_mercury_throne_room_tilem
     00325A40  _bg_mercury_throne_room_tilemap_   bg_mercury_throne_room_tilem
     003266C0  ___func_scene_27_collisions        scene_27_collisions
     003266C0  _scene_27_collisions               scene_27_collisions
     003273E0  _script_13                         script_13
     003273E2  GBVM$script_13$b1448aec_a9f1_4fe   script_13
     003273EA  GBVM$script_13$996c9ccb_6456_41e   script_13
     003273F5  GBVM$script_13$6baaef64_8852_4e9   script_13
     00327407  GBVM$script_13$f6a75c5a_4c82_437   script_13
     00327413  GBVM$script_13$03fdbd79_6384_47c   script_13
     00327422  GBVM$script_13$e9afb8b1_b59f_447   script_13
     00327427  GBVM$script_13$c0fa6e99_f2c1_45b   script_13
     0032742C  GBVM$script_13$8e65b077_6c03_467   script_13
     0032742C  GBVM_END$script_13$6baaef64_8852   script_13
     00327455  GBVM$script_13$95167f53_eb4b_4a4   script_13
     00327479  GBVM$script_13$ddabf1e3_f7a7_420   script_13
     0032749D  GBVM$script_13$40c8bd6c_b729_431   script_13
     003274C1  GBVM$script_13$07855eaa_4e44_487   script_13
     003274E8  GBVM$script_13$6f017309_7b90_493   script_13
     003274E8  GBVM$script_13$922819be_2cdc_48f   script_13
     0032750C  GBVM$script_13$09be7320_4630_4cc   script_13
     00327530  GBVM$script_13$d6a432a5_53e1_42b   script_13
     00327554  GBVM$script_13$18eebe6c_5f00_497   script_13
     00327578  GBVM_END$script_13$6f017309_7b90   script_13
     0032757B  GBVM$script_13$67e143a1_4a1d_4b9   script_13
     0032757B  GBVM$script_13$74104e84_9208_445   script_13
     0032759F  GBVM$script_13$a3d97959_5607_479   script_13
     003275C3  GBVM$script_13$82cb3848_7f7b_40a   script_13
     003275E7  GBVM$script_13$47e1fbbd_061a_4a5   script_13
     0032760B  GBVM_END$script_13$74104e84_9208   script_13
     0032760E  GBVM$script_13$02549202_5316_412   script_13
     0032760E  GBVM$script_13$a8df42ea_2d4a_4b4   script_13
     00327632  GBVM$script_13$0052d8e7_3c4d_43c   script_13
     00327656  GBVM$script_13$f4fafa27_819b_41e   script_13
     0032767A  GBVM$script_13$7efcec04_fde5_40f   script_13
     0032769E  GBVM_END$script_13$02549202_5316   script_13
     003276A1  GBVM$script_13$b216562b_33b9_4a8   script_13
     003276A1  GBVM$script_13$e0a15fdb_21f8_41d   script_13
     003276C5  GBVM$script_13$75e8dbe2_262b_4bb   script_13
     003276E9  GBVM$script_13$6cd95fd1_ef57_496   script_13
     0032770D  GBVM$script_13$631b4661_bf7a_4c6   script_13
     00327731  GBVM_END$script_13$b216562b_33b9   script_13
     00327734  GBVM$script_13$9b397f9b_6679_424   script_13
     00327734  GBVM$script_13$d1a2bb86_6ea3_424   script_13
     00327758  GBVM$script_13$e4513698_a7d6_43c   script_13
     0032777C  GBVM$script_13$b4907334_ffdd_492   script_13
ASxxxx Linker V03.00/V05.40 + sdld,  page 205.
Hexadecimal  [32-Bits]

Area                                    Addr        Size        Decimal Bytes (Attributes)
--------------------------------        ----        ----        ------- ----- ------------
_CODE_50                            00324000    00003FFE =       16382. bytes (REL,CON)

      Value  Global                              Global Defined In Module
      -----  --------------------------------   ------------------------
     003277A0  GBVM$script_13$45fb08eb_0164_410   script_13
     003277C4  GBVM_END$script_13$9b397f9b_6679   script_13
     003277C7  GBVM$script_13$6acab41a_aa7c_4c6   script_13
     003277C7  GBVM$script_13$e3e70b54_5449_4c0   script_13
     003277EB  GBVM$script_13$3987f88c_570e_473   script_13
     0032780F  GBVM$script_13$06261c17_a6f9_4b7   script_13
     00327833  GBVM$script_13$b9fedfaa_e840_45f   script_13
     00327857  GBVM_END$script_13$6acab41a_aa7c   script_13
     0032785A  GBVM$script_13$2789f541_d520_421   script_13
     0032785A  GBVM$script_13$72b24d50_e95d_428   script_13
     0032787E  GBVM$script_13$8b1b4baf_c4ac_455   script_13
     003278A2  GBVM$script_13$ae5bfe05_b3f6_4c6   script_13
     003278C6  GBVM$script_13$b8afbda0_fb0d_487   script_13
     003278EA  GBVM_END$script_13$72b24d50_e95d   script_13
     003278ED  GBVM$script_13$6d001868_d5b6_487   script_13
     003278ED  GBVM$script_13$b6934151_97ec_484   script_13
     00327911  GBVM$script_13$3467cc50_f703_4bc   script_13
     00327935  GBVM$script_13$f481cbde_3d01_411   script_13
     00327959  GBVM$script_13$5e3603f2_d48e_482   script_13
     0032797D  GBVM_END$script_13$6d001868_d5b6   script_13
     00327980  GBVM$script_13$82f14f9f_21ee_455   script_13
     00327980  GBVM$script_13$8e755ed3_7a0e_4a2   script_13
     003279A4  GBVM$script_13$df184f2f_8dd7_41b   script_13
     003279C8  GBVM$script_13$0cac38a0_00b3_4aa   script_13
     003279EC  GBVM$script_13$32a60af6_53b4_4e0   script_13
     00327A10  GBVM_END$script_13$8e755ed3_7a0e   script_13
     00327A13  GBVM$script_13$3f245dee_45e1_4a8   script_13
     00327A13  GBVM_END$script_13$8e65b077_6c03   script_13
     00327A3C  GBVM$script_13$2836eb13_55be_448   script_13
     00327A60  GBVM$script_13$7b94d71c_fb33_407   script_13
     00327A84  GBVM$script_13$e343bea9_c599_401   script_13
     00327AA8  GBVM$script_13$fa2c199a_b352_49b   script_13
     00327ACF  GBVM$script_13$105f0bd3_ffcd_4a8   script_13
     00327ACF  GBVM$script_13$c4b02d87_f06f_4ed   script_13
     00327AF3  GBVM$script_13$848a2f1a_58c0_47f   script_13
     00327B17  GBVM$script_13$3f5415ce_e71d_43e   script_13
     00327B3B  GBVM$script_13$27562081_3a7c_433   script_13
     00327B5F  GBVM_END$script_13$105f0bd3_ffcd   script_13
     00327B62  GBVM$script_13$963d9a84_7c0e_4f0   script_13
     00327B62  GBVM$script_13$c47cd0b4_82d0_4e1   script_13
     00327B86  GBVM$script_13$db869d7c_1526_428   script_13
     00327BAA  GBVM$script_13$30674688_b5c9_4f1   script_13
     00327BCE  GBVM$script_13$55127619_3e48_4ef   script_13
     00327BF2  GBVM_END$script_13$963d9a84_7c0e   script_13
     00327BF5  GBVM$script_13$2fa3fb3e_a413_4ac   script_13
     00327BF5  GBVM$script_13$d8b96fd4_a7c5_4af   script_13
     00327C19  GBVM$script_13$508b3d41_7365_4af   script_13
     00327C3D  GBVM$script_13$bb29da9c_b671_4e1   script_13
     00327C61  GBVM$script_13$91f7ec7e_2249_4e1   script_13
     00327C85  GBVM_END$script_13$2fa3fb3e_a413   script_13
     00327C88  GBVM$script_13$f43cdcf8_b19e_4dd   script_13
ASxxxx Linker V03.00/V05.40 + sdld,  page 206.
Hexadecimal  [32-Bits]

Area                                    Addr        Size        Decimal Bytes (Attributes)
--------------------------------        ----        ----        ------- ----- ------------
_CODE_50                            00324000    00003FFE =       16382. bytes (REL,CON)

      Value  Global                              Global Defined In Module
      -----  --------------------------------   ------------------------
     00327C88  GBVM$script_13$f7ebbd38_3b62_471   script_13
     00327CAC  GBVM$script_13$f05866ff_d57e_462   script_13
     00327CD0  GBVM$script_13$92ad64d5_5e70_4da   script_13
     00327CF4  GBVM$script_13$cc2f6746_fd60_4a6   script_13
     00327D18  GBVM_END$script_13$f7ebbd38_3b62   script_13
     00327D1B  GBVM$script_13$0717aaec_d770_49e   script_13
     00327D1B  GBVM$script_13$1a490bbe_7188_4da   script_13
     00327D3F  GBVM$script_13$3bc1c401_6b21_46c   script_13
     00327D63  GBVM$script_13$aee788ee_65b5_403   script_13
     00327D87  GBVM$script_13$09a6b142_b556_414   script_13
     00327DAB  GBVM_END$script_13$1a490bbe_7188   script_13
     00327DAE  GBVM$script_13$e41a11d6_929c_401   script_13
     00327DAE  GBVM$script_13$fc274e19_d79b_4e5   script_13
     00327DD2  GBVM$script_13$b3d14345_27cd_493   script_13
     00327DF6  GBVM$script_13$ddca4350_fcf6_420   script_13
     00327E1A  GBVM$script_13$1efd1ba3_a7d4_457   script_13
     00327E3E  GBVM_END$script_13$e41a11d6_929c   script_13
     00327E41  GBVM$script_13$66345145_3d40_435   script_13
     00327E41  GBVM$script_13$8751ad90_6295_405   script_13
     00327E65  GBVM$script_13$5319baec_38fa_417   script_13
     00327E89  GBVM$script_13$d3b1b8cb_831a_466   script_13
     00327EAD  GBVM$script_13$baa6a55f_78a5_49b   script_13
     00327ED1  GBVM_END$script_13$8751ad90_6295   script_13
     00327ED4  GBVM$script_13$61850a31_6c22_435   script_13
     00327ED4  GBVM$script_13$d2d2a637_6415_498   script_13
     00327EF8  GBVM$script_13$d96c2e87_bfec_463   script_13
     00327F1C  GBVM$script_13$3ba247a2_207f_4dc   script_13
     00327F40  GBVM$script_13$c9144a2d_8933_4fd   script_13
     00327F64  GBVM_END$script_13$61850a31_6c22   script_13
     00327F67  GBVM$script_13$71a524a0_6603_4fc   script_13
     00327F67  GBVM$script_13$81fa474b_5739_487   script_13
     00327F8B  GBVM$script_13$b468f7e8_6609_435   script_13
     00327FAF  GBVM$script_13$c734f0d0_09ee_413   script_13
     00327FD3  GBVM$script_13$41452fa8_05a4_421   script_13
     00327FF7  GBVM_END$script_13$81fa474b_5739   script_13
     00327FFA  GBVM_END$script_13$3f245dee_45e1   script_13

ASxxxx Linker V03.00/V05.40 + sdld,  page 207.
Hexadecimal  [32-Bits]

Area                                    Addr        Size        Decimal Bytes (Attributes)
--------------------------------        ----        ----        ------- ----- ------------
_CODE_34                            00224000    00004000 =       16384. bytes (REL,CON)

      Value  Global                              Global Defined In Module
      -----  --------------------------------   ------------------------
     00224000  ___func_bg_luna_serenity_cave_up   bg_luna_serenity_cave_upper_
     00224000  _bg_luna_serenity_cave_upper_til   bg_luna_serenity_cave_upper_
     002252C0  ___func_scene_35_collisions        scene_35_collisions
     002252C0  _scene_35_collisions               scene_35_collisions
     00227840  GBVM$script_input_10$5faa810d_2c   script_input_10
     00227840  _script_input_10                   script_input_10
     00227845  _trigger_190_interact              trigger_190_interact
     00227848  GBVM$trigger_190_interact$9d2741   trigger_190_interact
     00227866  GBVM$trigger_190_interact$60e17f   trigger_190_interact
     00227872  GBVM$trigger_190_interact$7ab408   trigger_190_interact
     00227884  GBVM$trigger_190_interact$a1c33b   trigger_190_interact
     002278BD  GBVM$trigger_190_interact$c512d5   trigger_190_interact
     002278CF  GBVM$trigger_190_interact$ff5144   trigger_190_interact
     00227908  GBVM$trigger_190_interact$b86170   trigger_190_interact
     0022793E  GBVM_END$trigger_190_interact$7a   trigger_190_interact
     0022793E  GBVM_END$trigger_190_interact$c5   trigger_190_interact
     0022793F  _topdown_init                      topdown
     002279D6  _topdown_update                    topdown
ASxxxx Linker V03.00/V05.40 + sdld,  page 208.
Hexadecimal  [32-Bits]

Area                                    Addr        Size        Decimal Bytes (Attributes)
--------------------------------        ----        ----        ------- ----- ------------
_CODE_38                            00264000    00004000 =       16384. bytes (REL,CON)

      Value  Global                              Global Defined In Module
      -----  --------------------------------   ------------------------
     00264000  ___func_bg_luna_serenity_outskir   bg_luna_serenity_outskirts_t
     00264000  _bg_luna_serenity_outskirts_tile   bg_luna_serenity_outskirts_t
     00266ED7  _song_alchemist_energy_battl_Dat   song_alchemist_energy_battl_
     00267FE3  _song_wolfsbane_castle_Data        song_wolfsbane_castle_Data
     00267FF8  ___func_scene_10_triggers          scene_10_triggers
     00267FF8  _scene_10_triggers                 scene_10_triggers
ASxxxx Linker V03.00/V05.40 + sdld,  page 209.
Hexadecimal  [32-Bits]

Area                                    Addr        Size        Decimal Bytes (Attributes)
--------------------------------        ----        ----        ------- ----- ------------
_CODE_39                            00274000    00004000 =       16384. bytes (REL,CON)

      Value  Global                              Global Defined In Module
      -----  --------------------------------   ------------------------
     00274000  ___func_bg_luna_serenity_outskir   bg_luna_serenity_outskirts_t
     00274000  _bg_luna_serenity_outskirts_tile   bg_luna_serenity_outskirts_t
     002752C0  ___func_bg_luna_sewer_system_til   bg_luna_sewer_system_tilemap
     002752C0  _bg_luna_sewer_system_tilemap_at   bg_luna_sewer_system_tilemap
     00276580  ___func_bg_luna_sewer_system_til   bg_luna_sewer_system_tilemap
     00276580  _bg_luna_sewer_system_tilemap      bg_luna_sewer_system_tilemap
     00277840  _scene_30_init                     scene_30_init
     00277843  GBVM$scene_30_init$57c0e823_bbbf   scene_30_init
     00277843  GBVM$scene_30_init$74846d1f_28df   scene_30_init
     00277848  GBVM$scene_30_init$d4b7e1cc_83a9   scene_30_init
     0027784F  GBVM$scene_30_init$ec550552_abf1   scene_30_init
     0027784F  GBVM_END$scene_30_init$74846d1f_   scene_30_init
     00277854  GBVM$scene_30_init$46ec82a8_7716   scene_30_init
     0027785F  GBVM$scene_30_init$autofade$958e   scene_30_init
     0027786A  GBVM$scene_30_init$4c180bb8_4eea   scene_30_init
     00277936  GBVM$scene_30_init$a978e49c_17fe   scene_30_init
     00277941  GBVM$scene_30_init$d86cc406_7a66   scene_30_init
     00277A0E  GBVM$scene_30_init$fcc3c86a_90cf   scene_30_init
     00277A19  GBVM$scene_30_init$4fec9bcf_30c2   scene_30_init
     00277A6F  GBVM$scene_30_init$88e932f7_6009   scene_30_init
     00277A7A  GBVM$scene_30_init$cf6c002e_5723   scene_30_init
     00277ACA  GBVM$scene_30_init$5fc6e75b_93ee   scene_30_init
     00277AD5  GBVM$scene_30_init$0841ec4a_8da5   scene_30_init
     00277BA7  GBVM$scene_30_init$c3693bed_1586   scene_30_init
     00277BB2  GBVM$scene_30_init$a6906b57_780f   scene_30_init
     00277CDE  GBVM$scene_30_init$e937416a_eee3   scene_30_init
     00277CE9  GBVM$scene_30_init$fb0e286d_7466   scene_30_init
     00277D8D  GBVM$scene_30_init$882e09c0_fc7f   scene_30_init
     00277D98  GBVM$scene_30_init$8a28ceb3_e10a   scene_30_init
     00277E58  GBVM$scene_30_init$1661115d_eece   scene_30_init
     00277E68  GBVM$scene_30_init$3248bcbd_65eb   scene_30_init
     00277E9B  _scene_55_init                     scene_55_init
     00277E9E  GBVM$scene_55_init$1f8458ea_ce86   scene_55_init
     00277EB3  GBVM$scene_55_init$a3aa987c_25e0   scene_55_init
     00277EBB  GBVM$scene_55_init$autofade$91ff   scene_55_init
     00277EBB  GBVM_END$scene_55_init$1f8458ea_   scene_55_init
     00277EC6  GBVM$scene_55_init$57a939e6_0d80   scene_55_init
     00277ED8  GBVM$scene_55_init$48b7a33a_1e5e   scene_55_init
     00277FB7  GBVM$scene_55_init$c1e72aba_9163   scene_55_init
     00277FC2  GBVM$scene_55_init$3cd5b2af_379d   scene_55_init
     00277FD1  GBVM$scene_55_init$8534b117_8fbd   scene_55_init
     00277FD1  GBVM$scene_55_init$b08d6793_cc9e   scene_55_init
     00277FD1  GBVM_END$scene_55_init$57a939e6_   scene_55_init
     00277FD6  GBVM$scene_55_init$00ba0f95_8e15   scene_55_init
     00277FDD  GBVM$scene_55_init$d212601e_9936   scene_55_init
     00277FE1  GBVM$scene_55_init$7dee1fe1_f24e   scene_55_init
     00277FF0  GBVM$scene_55_init$dc565472_f2f9   scene_55_init
     00277FF8  GBVM_END$scene_55_init$8534b117_   scene_55_init
     00277FF8  GBVM_END$scene_55_init$dc565472_   scene_55_init
     00277FF9  _trigger_181_interact              trigger_181_interact
ASxxxx Linker V03.00/V05.40 + sdld,  page 210.
Hexadecimal  [32-Bits]

Area                                    Addr        Size        Decimal Bytes (Attributes)
--------------------------------        ----        ----        ------- ----- ------------
_CODE_39                            00274000    00004000 =       16384. bytes (REL,CON)

      Value  Global                              Global Defined In Module
      -----  --------------------------------   ------------------------
     00277FFA  GBVM$trigger_181_interact$51e477   trigger_181_interact
ASxxxx Linker V03.00/V05.40 + sdld,  page 211.
Hexadecimal  [32-Bits]

Area                                    Addr        Size        Decimal Bytes (Attributes)
--------------------------------        ----        ----        ------- ----- ------------
_CODE_13                            000D4000    00003FFF =       16383. bytes (REL,CON)

      Value  Global                              Global Defined In Module
      -----  --------------------------------   ------------------------
     000D4000  ___func_bg_luna_serenity_waterfr   bg_luna_serenity_waterfront_
     000D4000  _bg_luna_serenity_waterfront_til   bg_luna_serenity_waterfront_
     000D7F97  _song_blight_of_light_0_Data       song_blight_of_light_0_Data
     000D7FAC  _scene_10_init                     scene_10_init
     000D7FAF  GBVM$scene_10_init$f2af52ad_363b   scene_10_init
     000D7FC4  GBVM$scene_10_init$e899c0f0_e992   scene_10_init
     000D7FCC  GBVM$scene_10_init$autofade$3766   scene_10_init
     000D7FCC  GBVM_END$scene_10_init$f2af52ad_   scene_10_init
     000D7FD7  GBVM$scene_10_init$923e8797_1323   scene_10_init
     000D7FD7  GBVM$scene_10_init$d9f8005a_5fd0   scene_10_init
     000D7FDC  GBVM$scene_10_init$23df7e4f_d24f   scene_10_init
     000D7FE3  GBVM$scene_10_init$10f8846b_d095   scene_10_init
     000D7FE7  GBVM$scene_10_init$41c34e6d_c7b5   scene_10_init
     000D7FF6  GBVM$scene_10_init$32fffecd_a4b1   scene_10_init
     000D7FFE  GBVM_END$scene_10_init$32fffecd_   scene_10_init
     000D7FFE  GBVM_END$scene_10_init$d9f8005a_   scene_10_init

ASxxxx Linker V03.00/V05.40 + sdld,  page 212.
Hexadecimal  [32-Bits]

Area                                    Addr        Size        Decimal Bytes (Attributes)
--------------------------------        ----        ----        ------- ----- ------------
_CODE_14                            000E4000    00004000 =       16384. bytes (REL,CON)

      Value  Global                              Global Defined In Module
      -----  --------------------------------   ------------------------
     000E4000  ___func_bg_luna_serenity_waterfr   bg_luna_serenity_waterfront_
     000E4000  _bg_luna_serenity_waterfront_til   bg_luna_serenity_waterfront_
     000E7ED7  _song_featherfire_depresed_Data    song_featherfire_depresed_Da
     000E7EEC  _script_input_22                   script_input_22
     000E7EEE  GBVM$script_input_22$3a618b36_aa   script_input_22
     000E7EF9  GBVM$script_input_22$c0ed7bf8_d6   script_input_22
     000E7FD8  GBVM$script_input_22$12c61075_b3   script_input_22
     000E7FD8  GBVM$script_input_22$1d2a3b94_a9   script_input_22
     000E7FDD  GBVM$script_input_22$5e0f06a8_fa   script_input_22
     000E7FE4  GBVM$script_input_22$97125aa4_9d   script_input_22
     000E7FE8  GBVM$script_input_22$e0d2de38_ea   script_input_22
     000E7FF7  GBVM$script_input_22$5c469813_36   script_input_22
     000E7FFF  GBVM_END$script_input_22$12c6107   script_input_22
     000E7FFF  GBVM_END$script_input_22$5c46981   script_input_22

ASxxxx Linker V03.00/V05.40 + sdld,  page 213.
Hexadecimal  [32-Bits]

Area                                    Addr        Size        Decimal Bytes (Attributes)
--------------------------------        ----        ----        ------- ----- ------------
_CODE_2                             00024000    00003FFF =       16383. bytes (REL,CON)

      Value  Global                              Global Defined In Module
      -----  --------------------------------   ------------------------
     00024000  ___func_bg_luna_serenity_waterfr   bg_luna_serenity_waterfront_
     00024000  _bg_luna_serenity_waterfront_til   bg_luna_serenity_waterfront_
     000247A2  ___func_bg_venus_landing_site_ti   bg_venus_landing_site_tilema
     000247A2  _bg_venus_landing_site_tilemap_a   bg_venus_landing_site_tilema
     00027FE2  _scene_5_init                      scene_5_init
     00027FE5  GBVM$scene_5_init$514e2b52_1015_   scene_5_init
     00027FEF  GBVM$scene_5_init$autofade$69062   scene_5_init
     00027FFA  GBVM$scene_5_init$38b7646d_932e_   scene_5_init

ASxxxx Linker V03.00/V05.40 + sdld,  page 214.
Hexadecimal  [32-Bits]

Area                                    Addr        Size        Decimal Bytes (Attributes)
--------------------------------        ----        ----        ------- ----- ------------
_CODE_25                            00194000    00004000 =       16384. bytes (REL,CON)

      Value  Global                              Global Defined In Module
      -----  --------------------------------   ------------------------
     00194000  ___func_bg_luna_sewer_system_til   bg_luna_sewer_system_tileset
     00194000  _bg_luna_sewer_system_tileset      bg_luna_sewer_system_tileset
     00194232  ___func_bg_mercury_projectile_pl   bg_mercury_projectile_platf_
     00194232  _bg_mercury_projectile_platf_til   bg_mercury_projectile_platf_
     001967B2  ___func_bg_platformer_test01_til   bg_platformer_test01_tilemap
     001967B2  _bg_platformer_test01_tilemap_at   bg_platformer_test01_tilemap
     00197FEA  _trigger_184_interact              trigger_184_interact
     00197FEB  GBVM$trigger_184_interact$346310   trigger_184_interact
     00197FF6  GBVM$trigger_184_interact$bffc5a   trigger_184_interact
ASxxxx Linker V03.00/V05.40 + sdld,  page 215.
Hexadecimal  [32-Bits]

Area                                    Addr        Size        Decimal Bytes (Attributes)
--------------------------------        ----        ----        ------- ----- ------------
_CODE_43                            002B4000    00003FFF =       16383. bytes (REL,CON)

      Value  Global                              Global Defined In Module
      -----  --------------------------------   ------------------------
     002B4000  ___func_bg_menu_load_background_   bg_menu_load_background_tile
     002B4000  _bg_menu_load_background_tilemap   bg_menu_load_background_tile
     002B4168  ___func_bg_mercury_secret_area_t   bg_mercury_secret_area_tilem
     002B4168  _bg_mercury_secret_area_tilemap_   bg_mercury_secret_area_tilem
     002B47A8  ___func_scene_13_projectiles       scene_13_projectiles
     002B47A8  _scene_13_projectiles              scene_13_projectiles
     002B47BF  ___func_scene_21_collisions        scene_21_collisions
     002B47BF  _scene_21_collisions               scene_21_collisions
     002B5A7F  ___func_scene_23_collisions        scene_23_collisions
     002B5A7F  _scene_23_collisions               scene_23_collisions
     002B6D3F  ___func_scene_24_collisions        scene_24_collisions
     002B6D3F  _scene_24_collisions               scene_24_collisions
ASxxxx Linker V03.00/V05.40 + sdld,  page 216.
Hexadecimal  [32-Bits]

Area                                    Addr        Size        Decimal Bytes (Attributes)
--------------------------------        ----        ----        ------- ----- ------------
_CODE_44                            002C4000    00003FFF =       16383. bytes (REL,CON)

      Value  Global                              Global Defined In Module
      -----  --------------------------------   ------------------------
     002C4000  ___func_bg_menu_load_background_   bg_menu_load_background_tile
     002C4000  _bg_menu_load_background_tilemap   bg_menu_load_background_tile
     002C4168  ___func_bg_mercury_secret_area_t   bg_mercury_secret_area_tilem
     002C4168  _bg_mercury_secret_area_tilemap    bg_mercury_secret_area_tilem
     002C47A8  ___func_scene_14_projectiles       scene_14_projectiles
     002C47A8  _scene_14_projectiles              scene_14_projectiles
     002C47BF  ___func_scene_26_collisions        scene_26_collisions
     002C47BF  _scene_26_collisions               scene_26_collisions
     002C5A7F  ___func_scene_43_collisions        scene_43_collisions
     002C5A7F  _scene_43_collisions               scene_43_collisions
     002C6D3F  ___func_scene_44_collisions        scene_44_collisions
     002C6D3F  _scene_44_collisions               scene_44_collisions
ASxxxx Linker V03.00/V05.40 + sdld,  page 217.
Hexadecimal  [32-Bits]

Area                                    Addr        Size        Decimal Bytes (Attributes)
--------------------------------        ----        ----        ------- ----- ------------
_CODE_26                            001A4000    00004000 =       16384. bytes (REL,CON)

      Value  Global                              Global Defined In Module
      -----  --------------------------------   ------------------------
     001A4000  ___func_bg_mercury_projectile_pl   bg_mercury_projectile_platf_
     001A4000  _bg_mercury_projectile_platf_til   bg_mercury_projectile_platf_
     001A6580  ___func_bg_platformer_test01_til   bg_platformer_test01_tilemap
     001A6580  _bg_platformer_test01_tilemap      bg_platformer_test01_tilemap
     001A7DB8  ___func_bg_venus_dropshaft_0_til   bg_venus_dropshaft_0_tileset
     001A7DB8  _bg_venus_dropshaft_0_tileset      bg_venus_dropshaft_0_tileset
     001A7FEA  _trigger_185_interact              trigger_185_interact
     001A7FEB  GBVM$trigger_185_interact$57cfee   trigger_185_interact
     001A7FF6  GBVM$trigger_185_interact$a8161d   trigger_185_interact
ASxxxx Linker V03.00/V05.40 + sdld,  page 218.
Hexadecimal  [32-Bits]

Area                                    Addr        Size        Decimal Bytes (Attributes)
--------------------------------        ----        ----        ------- ----- ------------
_CODE_45                            002D4000    00003FFF =       16383. bytes (REL,CON)

      Value  Global                              Global Defined In Module
      -----  --------------------------------   ------------------------
     002D4000  ___func_bg_placeholder_tilemap_a   bg_placeholder_tilemap_attr
     002D4000  _bg_placeholder_tilemap_attr       bg_placeholder_tilemap_attr
     002D4168  ___func_bg_venus_evidence_room_t   bg_venus_evidence_room_tilem
     002D4168  _bg_venus_evidence_room_tilemap_   bg_venus_evidence_room_tilem
     002D47A8  ___func_scene_15_projectiles       scene_15_projectiles
     002D47A8  _scene_15_projectiles              scene_15_projectiles
     002D47BF  ___func_scene_45_collisions        scene_45_collisions
     002D47BF  _scene_45_collisions               scene_45_collisions
     002D5A7F  ___func_scene_46_collisions        scene_46_collisions
     002D5A7F  _scene_46_collisions               scene_46_collisions
     002D6D3F  ___func_scene_54_collisions        scene_54_collisions
     002D6D3F  _scene_54_collisions               scene_54_collisions
ASxxxx Linker V03.00/V05.40 + sdld,  page 219.
Hexadecimal  [32-Bits]

Area                                    Addr        Size        Decimal Bytes (Attributes)
--------------------------------        ----        ----        ------- ----- ------------
_CODE_52                            00344000    00003FFF =       16383. bytes (REL,CON)

      Value  Global                              Global Defined In Module
      -----  --------------------------------   ------------------------
     00344000  ___func_bg_placeholder_tilemap     bg_placeholder_tilemap
     00344000  _bg_placeholder_tilemap            bg_placeholder_tilemap
     00344168  ___func_bg_venus_defence_tunnel_   bg_venus_defence_tunnel_tile
     00344168  _bg_venus_defence_tunnel_tilemap   bg_venus_defence_tunnel_tile
     00344AC8  ___func_bg_venus_dropshaft_0_til   bg_venus_dropshaft_0_tilemap
     00344AC8  _bg_venus_dropshaft_0_tilemap_at   bg_venus_dropshaft_0_tilemap
     00345428  ___func_bg_venus_dropshaft_0_til   bg_venus_dropshaft_0_tilemap
     00345428  _bg_venus_dropshaft_0_tilemap      bg_venus_dropshaft_0_tilemap
     00345D88  ___func_bg_venus_dropshaft_1_til   bg_venus_dropshaft_1_tilemap
     00345D88  _bg_venus_dropshaft_1_tilemap_at   bg_venus_dropshaft_1_tilemap
     003466E8  ___func_bg_venus_dropshaft_1_til   bg_venus_dropshaft_1_tilemap
     003466E8  _bg_venus_dropshaft_1_tilemap      bg_venus_dropshaft_1_tilemap
     00347048  ___func_bg_venus_evidence_room_t   bg_venus_evidence_room_tilem
     00347048  _bg_venus_evidence_room_tilemap    bg_venus_evidence_room_tilem
     00347688  ___func_scene_16_projectiles       scene_16_projectiles
     00347688  _scene_16_projectiles              scene_16_projectiles
     0034769F  ___func_scene_47_collisions        scene_47_collisions
     0034769F  _scene_47_collisions               scene_47_collisions
ASxxxx Linker V03.00/V05.40 + sdld,  page 220.
Hexadecimal  [32-Bits]

Area                                    Addr        Size        Decimal Bytes (Attributes)
--------------------------------        ----        ----        ------- ----- ------------
_CODE_6                             00064000    00003FFE =       16382. bytes (REL,CON)

      Value  Global                              Global Defined In Module
      -----  --------------------------------   ------------------------
     00064000  ___func_bg_temporal_light_backgr   bg_temporal_light_backgroun_
     00064000  _bg_temporal_light_backgroun_til   bg_temporal_light_backgroun_
     00065682  ___func_scene_13_collisions        scene_13_collisions
     00065682  _scene_13_collisions               scene_13_collisions
     00067F22  _scene_4_init                      scene_4_init
     00067F25  GBVM$scene_4_init$52d3cfbd_1d17_   scene_4_init
     00067F2F  GBVM$scene_4_init$autofade$d7542   scene_4_init
     00067F3A  GBVM$scene_4_init$2661178c_adc3_   scene_4_init
     00067F81  GBVM$scene_4_init$75da3a40_676e_   scene_4_init
     00067F8A  GBVM$scene_4_init$7ad2815d_187e_   scene_4_init
     00067F8E  GBVM$scene_4_init$44aa04e1_ac37_   scene_4_init
     00067FC3  GBVM$scene_4_init$209db4f5_5417_   scene_4_init
     00067FC7  GBVM$scene_4_init$5994feac_f808_   scene_4_init
     00067FCB  GBVM$scene_4_init$ce9ddc6b_8ae4_   scene_4_init
     00067FFD  GBVM_END$scene_4_init$75da3a40_6   scene_4_init
ASxxxx Linker V03.00/V05.40 + sdld,  page 221.
Hexadecimal  [32-Bits]

Area                                    Addr        Size        Decimal Bytes (Attributes)
--------------------------------        ----        ----        ------- ----- ------------
_CODE_3                             00034000    00003FFF =       16383. bytes (REL,CON)

      Value  Global                              Global Defined In Module
      -----  --------------------------------   ------------------------
     00034000  ___func_bg_title_tileset           bg_title_tileset
     00034000  _bg_title_tileset                  bg_title_tileset
     000347A2  ___func_bg_venus_landing_site_ti   bg_venus_landing_site_tilema
     000347A2  _bg_venus_landing_site_tilemap     bg_venus_landing_site_tilema
     00037FE2  _scene_59_init                     scene_59_init
     00037FE3  GBVM$scene_59_init$54b36fc6_8e53   scene_59_init
     00037FEB  GBVM$scene_59_init$fe4809ce_1d43   scene_59_init
     00037FEB  GBVM_END$scene_59_init$54b36fc6_   scene_59_init
     00037FF3  GBVM$scene_59_init$autofade$fde8   scene_59_init
     00037FF3  GBVM_END$scene_59_init$fe4809ce_   scene_59_init

ASxxxx Linker V03.00/V05.40 + sdld,  page 222.
Hexadecimal  [32-Bits]

Area                                    Addr        Size        Decimal Bytes (Attributes)
--------------------------------        ----        ----        ------- ----- ------------
_CODE_4                             00044000    00003FFF =       16383. bytes (REL,CON)

      Value  Global                              Global Defined In Module
      -----  --------------------------------   ------------------------
     00044000  ___func_bg_venus_landing_site_ti   bg_venus_landing_site_tilese
     00044000  _bg_venus_landing_site_tileset     bg_venus_landing_site_tilese
     000447A2  ___func_scene_42_collisions        scene_42_collisions
     000447A2  _scene_42_collisions               scene_42_collisions
     00047FE2  GBVM$script_10$ad38196f_e449_49a   script_10
     00047FE2  _script_10                         script_10
     00047FEB  GBVM$script_10$f519f445_ddad_430   script_10
     00047FF3  GBVM$script_10$bad5d9ba_9f9c_4cd   script_10
     00047FF8  GBVM$script_10$fe5a5f91_3661_4fe   script_10
     00047FFD  GBVM_END$script_10$ad38196f_e449   script_10

ASxxxx Linker V03.00/V05.40 + sdld,  page 223.
Hexadecimal  [32-Bits]

Area                                    Addr        Size        Decimal Bytes (Attributes)
--------------------------------        ----        ----        ------- ----- ------------
_CODE_37                            00254000    00003FFE =       16382. bytes (REL,CON)

      Value  Global                              Global Defined In Module
      -----  --------------------------------   ------------------------
     00255C17  _song_alchemist_energy_0_Data      song_alchemist_energy_0_Data
     0025791B  _song_lunabound_Data               song_lunabound_Data
     00257930  _trigger_116_interact              trigger_116_interact
     00257933  GBVM$trigger_116_interact$4473e9   trigger_116_interact
     00257951  GBVM$trigger_116_interact$a2b8d9   trigger_116_interact
     0025795D  GBVM$trigger_116_interact$30e39b   trigger_116_interact
     00257993  GBVM$trigger_116_interact$6bd7d4   trigger_116_interact
     00257998  GBVM$trigger_116_interact$52f7aa   trigger_116_interact
     0025799D  _trigger_120_interact              trigger_120_interact
     002579A0  GBVM$trigger_120_interact$0a9538   trigger_120_interact
     002579A8  GBVM$trigger_120_interact$6ce3cb   trigger_120_interact
     002579A8  GBVM$trigger_120_interact$a5dd3a   trigger_120_interact
     002579A8  GBVM_END$trigger_120_interact$0a   trigger_120_interact
     002579AD  GBVM$trigger_120_interact$e01ecf   trigger_120_interact
     002579B4  GBVM$trigger_120_interact$1d54b9   trigger_120_interact
     002579B4  GBVM_END$trigger_120_interact$6c   trigger_120_interact
     002579D6  GBVM$trigger_120_interact$7902b3   trigger_120_interact
     002579FC  GBVM$trigger_120_interact$735443   trigger_120_interact
     002579FC  GBVM_END$trigger_120_interact$1d   trigger_120_interact
     00257A08  GBVM$trigger_120_interact$61180b   trigger_120_interact
     00257A1B  GBVM$trigger_120_interact$a918a8   trigger_120_interact
     00257A26  GBVM$trigger_120_interact$aa5c8c   trigger_120_interact
     00257B0C  GBVM$trigger_120_interact$8fa644   trigger_120_interact
     00257B17  GBVM$trigger_120_interact$4a7dd7   trigger_120_interact
     00257BF0  GBVM$trigger_120_interact$fe4ac0   trigger_120_interact
     00257BFB  GBVM$trigger_120_interact$22e6c0   trigger_120_interact
     00257D6B  GBVM$trigger_120_interact$9574ab   trigger_120_interact
     00257D76  GBVM$trigger_120_interact$49b73a   trigger_120_interact
     00257E4C  GBVM$trigger_120_interact$c6a677   trigger_120_interact
     00257E57  GBVM$trigger_120_interact$a8f833   trigger_120_interact
     00257F82  GBVM$trigger_120_interact$1bdb11   trigger_120_interact
     00257FA0  GBVM$trigger_120_interact$11714f   trigger_120_interact
     00257FCB  GBVM$trigger_120_interact$86e299   trigger_120_interact
ASxxxx Linker V03.00/V05.40 + sdld,  page 224.
Hexadecimal  [32-Bits]

Area                                    Addr        Size        Decimal Bytes (Attributes)
--------------------------------        ----        ----        ------- ----- ------------
_HEADER_LCD0                        00000000    00000003 =           3. bytes (ABS,CON)

      Value  Global                              Global Defined In Module
      -----  --------------------------------   ------------------------
ASxxxx Linker V03.00/V05.40 + sdld,  page 225.

Files Linked                              [ module(s) ]

C:\Users\steve\AppData\Local\Temp/_gbstools/gbdk/lib/gb/crt0.o
                                          [ Runtime ]
C:/Users/steve/AppData/Local/Temp/_gbsbuild/obj/absolute.rel
                                          [ absolute ]
C:/Users/steve/AppData/Local/Temp/_gbsbuild/obj/actor.rel
                                          [ actor ]
C:/Users/steve/AppData/Local/Temp/_gbsbuild/obj/bankdata.rel
                                          [ bankdata ]
C:/Users/steve/AppData/Local/Temp/_gbsbuild/obj/bootstrap.rel
                                          [  ]
C:/Users/steve/AppData/Local/Temp/_gbsbuild/obj/camera.rel
                                          [ camera ]
C:/Users/steve/AppData/Local/Temp/_gbsbuild/obj/core.rel
                                          [ core ]
C:/Users/steve/AppData/Local/Temp/_gbsbuild/obj/crash_handler.rel
                                          [  ]
C:/Users/steve/AppData/Local/Temp/_gbsbuild/obj/data_manager.rel
                                          [ data_manager ]
C:/Users/steve/AppData/Local/Temp/_gbsbuild/obj/events.rel
                                          [ events ]
C:/Users/steve/AppData/Local/Temp/_gbsbuild/obj/fade_manager.rel
                                          [ fade_manager ]
C:/Users/steve/AppData/Local/Temp/_gbsbuild/obj/flasher_s.rel
                                          [  ]
C:/Users/steve/AppData/Local/Temp/_gbsbuild/obj/flasher.rel
                                          [ flasher ]
C:/Users/steve/AppData/Local/Temp/_gbsbuild/obj/game_time.rel
                                          [ game_time ]
C:/Users/steve/AppData/Local/Temp/_gbsbuild/obj/gbprinter.rel
                                          [ gbprinter ]
C:/Users/steve/AppData/Local/Temp/_gbsbuild/obj/input.rel
                                          [ input ]
C:/Users/steve/AppData/Local/Temp/_gbsbuild/obj/interrupt_sio.rel
                                          [  ]
C:/Users/steve/AppData/Local/Temp/_gbsbuild/obj/interrupt_timer.rel
                                          [  ]
C:/Users/steve/AppData/Local/Temp/_gbsbuild/obj/interrupts.rel
                                          [ interrupts ]
C:/Users/steve/AppData/Local/Temp/_gbsbuild/obj/load_save.rel
                                          [ load_save ]
C:/Users/steve/AppData/Local/Temp/_gbsbuild/obj/math_atan2.rel
                                          [ math_atan2 ]
C:/Users/steve/AppData/Local/Temp/_gbsbuild/obj/math.rel
                                          [ math ]
C:/Users/steve/AppData/Local/Temp/_gbsbuild/obj/music_manager.rel
                                          [ music_manager ]
C:/Users/steve/AppData/Local/Temp/_gbsbuild/obj/palette.rel
                                          [ palette ]
C:/Users/steve/AppData/Local/Temp/_gbsbuild/obj/parallax.rel
                                          [ parallax ]
C:/Users/steve/AppData/Local/Temp/_gbsbuild/obj/projectiles.rel
                                          [ projectiles ]
C:/Users/steve/AppData/Local/Temp/_gbsbuild/obj/scroll_a.rel
                                          [  ]
C:/Users/steve/AppData/Local/Temp/_gbsbuild/obj/scroll.rel
                                          [ scroll ]
C:/Users/steve/AppData/Local/Temp/_gbsbuild/obj/set_tile_submap.rel
                                          [  ]
C:/Users/steve/AppData/Local/Temp/_gbsbuild/obj/sfx_player.rel
                                          [ sfx_player ]
C:/Users/steve/AppData/Local/Temp/_gbsbuild/obj/sgb_border.rel
                                          [ sgb_border ]
C:/Users/steve/AppData/Local/Temp/_gbsbuild/obj/sio.rel
                                          [ sio ]
C:/Users/steve/AppData/Local/Temp/_gbsbuild/obj/states_caller.rel
                                          [  ]
C:/Users/steve/AppData/Local/Temp/_gbsbuild/obj/system.rel
                                          [ system ]
C:/Users/steve/AppData/Local/Temp/_gbsbuild/obj/trigger.rel
                                          [ trigger ]
C:/Users/steve/AppData/Local/Temp/_gbsbuild/obj/ui_a.rel
                                          [  ]
C:/Users/steve/AppData/Local/Temp/_gbsbuild/obj/ui.rel
                                          [ ui ]
C:/Users/steve/AppData/Local/Temp/_gbsbuild/obj/vm_actor.rel
                                          [ vm_actor ]
C:/Users/steve/AppData/Local/Temp/_gbsbuild/obj/vm_camera.rel
                                          [ vm_camera ]
C:/Users/steve/AppData/Local/Temp/_gbsbuild/obj/vm_gameboy.rel
                                          [ vm_gameboy ]
C:/Users/steve/AppData/Local/Temp/_gbsbuild/obj/vm_gbprinter.rel
                                          [ vm_gbprinter ]
C:/Users/steve/AppData/Local/Temp/_gbsbuild/obj/vm_instructions.rel
                                          [ vm_instructions ]
C:/Users/steve/AppData/Local/Temp/_gbsbuild/obj/vm_load_save.rel
                                          [ vm_load_save ]
C:/Users/steve/AppData/Local/Temp/_gbsbuild/obj/vm_math.rel
                                          [ vm_math ]
C:/Users/steve/AppData/Local/Temp/_gbsbuild/obj/vm_music.rel
                                          [ vm_music ]
C:/Users/steve/AppData/Local/Temp/_gbsbuild/obj/vm_palette.rel
                                          [ vm_palette ]
C:/Users/steve/AppData/Local/Temp/_gbsbuild/obj/vm_projectiles.rel
                                          [ vm_projectiles ]
C:/Users/steve/AppData/Local/Temp/_gbsbuild/obj/vm_rtc.rel
                                          [ vm_rtc ]
C:/Users/steve/AppData/Local/Temp/_gbsbuild/obj/vm_scene.rel
                                          [ vm_scene ]
C:/Users/steve/AppData/Local/Temp/_gbsbuild/obj/vm_sgb.rel
                                          [ vm_sgb ]
C:/Users/steve/AppData/Local/Temp/_gbsbuild/obj/vm_sio.rel
                                          [ vm_sio ]
C:/Users/steve/AppData/Local/Temp/_gbsbuild/obj/vm_ui_a.rel
                                          [ vm_ui_a ]
C:/Users/steve/AppData/Local/Temp/_gbsbuild/obj/vm_ui.rel
                                          [ vm_ui ]
C:/Users/steve/AppData/Local/Temp/_gbsbuild/obj/vm.rel
                                          [ vm ]
C:/Users/steve/AppData/Local/Temp/_gbsbuild/obj/actor_0_update.rel
                                          [ actor_0_update ]
C:/Users/steve/AppData/Local/Temp/_gbsbuild/obj/actor_1_update.rel
                                          [ actor_1_update ]
C:/Users/steve/AppData/Local/Temp/_gbsbuild/obj/actor_10_update.rel
                                          [ actor_10_update ]
C:/Users/steve/AppData/Local/Temp/_gbsbuild/obj/actor_14_interact.rel
                                          [ actor_14_interact ]
C:/Users/steve/AppData/Local/Temp/_gbsbuild/obj/actor_14_update.rel
                                          [ actor_14_update ]
C:/Users/steve/AppData/Local/Temp/_gbsbuild/obj/actor_15_interact.rel
                                          [ actor_15_interact ]
C:/Users/steve/AppData/Local/Temp/_gbsbuild/obj/actor_16_interact.rel
                                          [ actor_16_interact ]
C:/Users/steve/AppData/Local/Temp/_gbsbuild/obj/actor_17_interact.rel
                                          [ actor_17_interact ]
C:/Users/steve/AppData/Local/Temp/_gbsbuild/obj/actor_18_interact.rel
                                          [ actor_18_interact ]
C:/Users/steve/AppData/Local/Temp/_gbsbuild/obj/actor_19_interact.rel
                                          [ actor_19_interact ]
C:/Users/steve/AppData/Local/Temp/_gbsbuild/obj/actor_2_interact.rel
                                          [ actor_2_interact ]
C:/Users/steve/AppData/Local/Temp/_gbsbuild/obj/actor_20_interact.rel
                                          [ actor_20_interact ]
C:/Users/steve/AppData/Local/Temp/_gbsbuild/obj/actor_21_interact.rel
                                          [ actor_21_interact ]
C:/Users/steve/AppData/Local/Temp/_gbsbuild/obj/actor_22_interact.rel
                                          [ actor_22_interact ]
C:/Users/steve/AppData/Local/Temp/_gbsbuild/obj/actor_23_interact.rel
                                          [ actor_23_interact ]
C:/Users/steve/AppData/Local/Temp/_gbsbuild/obj/actor_24_interact.rel
                                          [ actor_24_interact ]
C:/Users/steve/AppData/Local/Temp/_gbsbuild/obj/actor_24_update.rel
                                          [ actor_24_update ]
C:/Users/steve/AppData/Local/Temp/_gbsbuild/obj/actor_3_interact.rel
                                          [ actor_3_interact ]
C:/Users/steve/AppData/Local/Temp/_gbsbuild/obj/actor_39_interact.rel
                                          [ actor_39_interact ]
C:/Users/steve/AppData/Local/Temp/_gbsbuild/obj/actor_4_interact.rel
                                          [ actor_4_interact ]
C:/Users/steve/AppData/Local/Temp/_gbsbuild/obj/actor_40_interact.rel
                                          [ actor_40_interact ]
C:/Users/steve/AppData/Local/Temp/_gbsbuild/obj/actor_41_interact.rel
                                          [ actor_41_interact ]
C:/Users/steve/AppData/Local/Temp/_gbsbuild/obj/actor_44_update.rel
                                          [ actor_44_update ]
C:/Users/steve/AppData/Local/Temp/_gbsbuild/obj/actor_45_update.rel
                                          [ actor_45_update ]
C:/Users/steve/AppData/Local/Temp/_gbsbuild/obj/actor_46_interact.rel
                                          [ actor_46_interact ]
C:/Users/steve/AppData/Local/Temp/_gbsbuild/obj/actor_46_update.rel
                                          [ actor_46_update ]
C:/Users/steve/AppData/Local/Temp/_gbsbuild/obj/actor_5_interact.rel
                                          [ actor_5_interact ]
C:/Users/steve/AppData/Local/Temp/_gbsbuild/obj/actor_55_interact.rel
                                          [ actor_55_interact ]
C:/Users/steve/AppData/Local/Temp/_gbsbuild/obj/actor_57_interact.rel
                                          [ actor_57_interact ]
C:/Users/steve/AppData/Local/Temp/_gbsbuild/obj/actor_59_interact.rel
                                          [ actor_59_interact ]
C:/Users/steve/AppData/Local/Temp/_gbsbuild/obj/actor_6_interact.rel
                                          [ actor_6_interact ]
C:/Users/steve/AppData/Local/Temp/_gbsbuild/obj/actor_60_interact.rel
                                          [ actor_60_interact ]
C:/Users/steve/AppData/Local/Temp/_gbsbuild/obj/actor_61_interact.rel
                                          [ actor_61_interact ]
C:/Users/steve/AppData/Local/Temp/_gbsbuild/obj/actor_62_interact.rel
                                          [ actor_62_interact ]
C:/Users/steve/AppData/Local/Temp/_gbsbuild/obj/actor_62_update.rel
                                          [ actor_62_update ]
C:/Users/steve/AppData/Local/Temp/_gbsbuild/obj/actor_63_interact.rel
                                          [ actor_63_interact ]
C:/Users/steve/AppData/Local/Temp/_gbsbuild/obj/actor_63_update.rel
                                          [ actor_63_update ]
C:/Users/steve/AppData/Local/Temp/_gbsbuild/obj/actor_64_interact.rel
                                          [ actor_64_interact ]
C:/Users/steve/AppData/Local/Temp/_gbsbuild/obj/actor_65_interact.rel
                                          [ actor_65_interact ]
C:/Users/steve/AppData/Local/Temp/_gbsbuild/obj/actor_7_interact.rel
                                          [ actor_7_interact ]
C:/Users/steve/AppData/Local/Temp/_gbsbuild/obj/actor_8_interact.rel
                                          [ actor_8_interact ]
C:/Users/steve/AppData/Local/Temp/_gbsbuild/obj/actor_9_update.rel
                                          [ actor_9_update ]
C:/Users/steve/AppData/Local/Temp/_gbsbuild/obj/avatar_font_0.rel
                                          [ avatar_font_0 ]
C:/Users/steve/AppData/Local/Temp/_gbsbuild/obj/bg_blight_s_memory_p1_tilemap_attr.rel
                                          [ bg_blight_s_memory_p1_tilemap_at ]
C:/Users/steve/AppData/Local/Temp/_gbsbuild/obj/bg_blight_s_memory_p1_tilemap.rel
                                          [ bg_blight_s_memory_p1_tilemap ]
C:/Users/steve/AppData/Local/Temp/_gbsbuild/obj/bg_blight_s_memory_p1_tileset.rel
                                          [ bg_blight_s_memory_p1_tileset ]
C:/Users/steve/AppData/Local/Temp/_gbsbuild/obj/bg_blight_s_memory_p1.rel
                                          [ bg_blight_s_memory_p1 ]
C:/Users/steve/AppData/Local/Temp/_gbsbuild/obj/bg_earth_burnclaw_forest_ca_tilemap_attr.rel
                                          [ bg_earth_burnclaw_forest_ca_tile ]
C:/Users/steve/AppData/Local/Temp/_gbsbuild/obj/bg_earth_burnclaw_forest_ca_tilemap.rel
                                          [ bg_earth_burnclaw_forest_ca_tile ]
C:/Users/steve/AppData/Local/Temp/_gbsbuild/obj/bg_earth_burnclaw_forest_ca_tileset.rel
                                          [ bg_earth_burnclaw_forest_ca_tile ]
C:/Users/steve/AppData/Local/Temp/_gbsbuild/obj/bg_earth_burnclaw_forest_ca.rel
                                          [ bg_earth_burnclaw_forest_ca ]
C:/Users/steve/AppData/Local/Temp/_gbsbuild/obj/bg_earth_burnclaw_forest_cr_tilemap_attr.rel
                                          [ bg_earth_burnclaw_forest_cr_tile ]
C:/Users/steve/AppData/Local/Temp/_gbsbuild/obj/bg_earth_burnclaw_forest_cr_tilemap.rel
                                          [ bg_earth_burnclaw_forest_cr_tile ]
C:/Users/steve/AppData/Local/Temp/_gbsbuild/obj/bg_earth_burnclaw_forest_cr_tileset.rel
                                          [ bg_earth_burnclaw_forest_cr_tile ]
C:/Users/steve/AppData/Local/Temp/_gbsbuild/obj/bg_earth_burnclaw_forest_cr.rel
                                          [ bg_earth_burnclaw_forest_cr ]
C:/Users/steve/AppData/Local/Temp/_gbsbuild/obj/bg_earth_burnclaw_forest_tilemap_attr.rel
                                          [ bg_earth_burnclaw_forest_tilemap ]
C:/Users/steve/AppData/Local/Temp/_gbsbuild/obj/bg_earth_burnclaw_forest_tilemap.rel
                                          [ bg_earth_burnclaw_forest_tilemap ]
C:/Users/steve/AppData/Local/Temp/_gbsbuild/obj/bg_earth_burnclaw_forest_tileset.rel
                                          [ bg_earth_burnclaw_forest_tileset ]
C:/Users/steve/AppData/Local/Temp/_gbsbuild/obj/bg_earth_burnclaw_forest.rel
                                          [ bg_earth_burnclaw_forest ]
C:/Users/steve/AppData/Local/Temp/_gbsbuild/obj/bg_earth_distortion_mountai_cgb_tileset.rel
                                          [ bg_earth_distortion_mountai_cgb_ ]
C:/Users/steve/AppData/Local/Temp/_gbsbuild/obj/bg_earth_distortion_mountai_tilemap_attr.rel
                                          [ bg_earth_distortion_mountai_tile ]
C:/Users/steve/AppData/Local/Temp/_gbsbuild/obj/bg_earth_distortion_mountai_tilemap.rel
                                          [ bg_earth_distortion_mountai_tile ]
C:/Users/steve/AppData/Local/Temp/_gbsbuild/obj/bg_earth_distortion_mountai_tileset.rel
                                          [ bg_earth_distortion_mountai_tile ]
C:/Users/steve/AppData/Local/Temp/_gbsbuild/obj/bg_earth_distortion_mountai.rel
                                          [ bg_earth_distortion_mountai ]
C:/Users/steve/AppData/Local/Temp/_gbsbuild/obj/bg_earth_level_1_intro_cgb_tileset.rel
                                          [ bg_earth_level_1_intro_cgb_tiles ]
C:/Users/steve/AppData/Local/Temp/_gbsbuild/obj/bg_earth_level_1_intro_tilemap_attr.rel
                                          [ bg_earth_level_1_intro_tilemap_a ]
C:/Users/steve/AppData/Local/Temp/_gbsbuild/obj/bg_earth_level_1_intro_tilemap.rel
                                          [ bg_earth_level_1_intro_tilemap ]
C:/Users/steve/AppData/Local/Temp/_gbsbuild/obj/bg_earth_level_1_intro_tileset.rel
                                          [ bg_earth_level_1_intro_tileset ]
C:/Users/steve/AppData/Local/Temp/_gbsbuild/obj/bg_earth_level_1_intro.rel
                                          [ bg_earth_level_1_intro ]
C:/Users/steve/AppData/Local/Temp/_gbsbuild/obj/bg_earth_shuttle_bay_cgb_tileset.rel
                                          [ bg_earth_shuttle_bay_cgb_tileset ]
C:/Users/steve/AppData/Local/Temp/_gbsbuild/obj/bg_earth_shuttle_bay_secret_tilemap_attr.rel
                                          [ bg_earth_shuttle_bay_secret_tile ]
C:/Users/steve/AppData/Local/Temp/_gbsbuild/obj/bg_earth_shuttle_bay_secret_tilemap.rel
                                          [ bg_earth_shuttle_bay_secret_tile ]
C:/Users/steve/AppData/Local/Temp/_gbsbuild/obj/bg_earth_shuttle_bay_secret_tileset.rel
                                          [ bg_earth_shuttle_bay_secret_tile ]
C:/Users/steve/AppData/Local/Temp/_gbsbuild/obj/bg_earth_shuttle_bay_secret.rel
                                          [ bg_earth_shuttle_bay_secret ]
C:/Users/steve/AppData/Local/Temp/_gbsbuild/obj/bg_earth_shuttle_bay_tilemap_attr.rel
                                          [ bg_earth_shuttle_bay_tilemap_att ]
C:/Users/steve/AppData/Local/Temp/_gbsbuild/obj/bg_earth_shuttle_bay_tilemap.rel
                                          [ bg_earth_shuttle_bay_tilemap ]
C:/Users/steve/AppData/Local/Temp/_gbsbuild/obj/bg_earth_shuttle_bay_tileset.rel
                                          [ bg_earth_shuttle_bay_tileset ]
C:/Users/steve/AppData/Local/Temp/_gbsbuild/obj/bg_earth_shuttle_bay_upper_tilemap_attr.rel
                                          [ bg_earth_shuttle_bay_upper_tilem ]
C:/Users/steve/AppData/Local/Temp/_gbsbuild/obj/bg_earth_shuttle_bay_upper_tilemap.rel
                                          [ bg_earth_shuttle_bay_upper_tilem ]
C:/Users/steve/AppData/Local/Temp/_gbsbuild/obj/bg_earth_shuttle_bay_upper_tileset.rel
                                          [ bg_earth_shuttle_bay_upper_tiles ]
C:/Users/steve/AppData/Local/Temp/_gbsbuild/obj/bg_earth_shuttle_bay_upper.rel
                                          [ bg_earth_shuttle_bay_upper ]
C:/Users/steve/AppData/Local/Temp/_gbsbuild/obj/bg_earth_shuttle_bay_water_tilemap_attr.rel
                                          [ bg_earth_shuttle_bay_water_tilem ]
C:/Users/steve/AppData/Local/Temp/_gbsbuild/obj/bg_earth_shuttle_bay_water_tilemap.rel
                                          [ bg_earth_shuttle_bay_water_tilem ]
C:/Users/steve/AppData/Local/Temp/_gbsbuild/obj/bg_earth_shuttle_bay_water_tileset.rel
                                          [ bg_earth_shuttle_bay_water_tiles ]
C:/Users/steve/AppData/Local/Temp/_gbsbuild/obj/bg_earth_shuttle_bay_water.rel
                                          [ bg_earth_shuttle_bay_water ]
C:/Users/steve/AppData/Local/Temp/_gbsbuild/obj/bg_earth_shuttle_bay.rel
                                          [ bg_earth_shuttle_bay ]
C:/Users/steve/AppData/Local/Temp/_gbsbuild/obj/bg_game_menu_tilemap_attr.rel
                                          [ bg_game_menu_tilemap_attr ]
C:/Users/steve/AppData/Local/Temp/_gbsbuild/obj/bg_game_menu_tilemap.rel
                                          [ bg_game_menu_tilemap ]
C:/Users/steve/AppData/Local/Temp/_gbsbuild/obj/bg_game_menu_tileset.rel
                                          [ bg_game_menu_tileset ]
C:/Users/steve/AppData/Local/Temp/_gbsbuild/obj/bg_game_menu.rel
                                          [ bg_game_menu ]
C:/Users/steve/AppData/Local/Temp/_gbsbuild/obj/bg_hud_ui_tilemap_attr.rel
                                          [ bg_hud_ui_tilemap_attr ]
C:/Users/steve/AppData/Local/Temp/_gbsbuild/obj/bg_hud_ui_tilemap.rel
                                          [ bg_hud_ui_tilemap ]
C:/Users/steve/AppData/Local/Temp/_gbsbuild/obj/bg_hud_ui_tileset.rel
                                          [ bg_hud_ui_tileset ]
C:/Users/steve/AppData/Local/Temp/_gbsbuild/obj/bg_hud_ui.rel
                                          [ bg_hud_ui ]
C:/Users/steve/AppData/Local/Temp/_gbsbuild/obj/bg_jems_background_tilemap_attr.rel
                                          [ bg_jems_background_tilemap_attr ]
C:/Users/steve/AppData/Local/Temp/_gbsbuild/obj/bg_jems_background_tilemap.rel
                                          [ bg_jems_background_tilemap ]
C:/Users/steve/AppData/Local/Temp/_gbsbuild/obj/bg_jems_background_tileset.rel
                                          [ bg_jems_background_tileset ]
C:/Users/steve/AppData/Local/Temp/_gbsbuild/obj/bg_jems_background.rel
                                          [ bg_jems_background ]
C:/Users/steve/AppData/Local/Temp/_gbsbuild/obj/bg_level_1_cgb_tileset.rel
                                          [ bg_level_1_cgb_tileset ]
C:/Users/steve/AppData/Local/Temp/_gbsbuild/obj/bg_level_1_tilemap_attr.rel
                                          [ bg_level_1_tilemap_attr ]
C:/Users/steve/AppData/Local/Temp/_gbsbuild/obj/bg_level_1_tilemap.rel
                                          [ bg_level_1_tilemap ]
C:/Users/steve/AppData/Local/Temp/_gbsbuild/obj/bg_level_1_tileset.rel
                                          [ bg_level_1_tileset ]
C:/Users/steve/AppData/Local/Temp/_gbsbuild/obj/bg_level_1.rel
                                          [ bg_level_1 ]
C:/Users/steve/AppData/Local/Temp/_gbsbuild/obj/bg_level_2_cgb_tileset.rel
                                          [ bg_level_2_cgb_tileset ]
C:/Users/steve/AppData/Local/Temp/_gbsbuild/obj/bg_level_2_tilemap_attr.rel
                                          [ bg_level_2_tilemap_attr ]
C:/Users/steve/AppData/Local/Temp/_gbsbuild/obj/bg_level_2_tilemap.rel
                                          [ bg_level_2_tilemap ]
C:/Users/steve/AppData/Local/Temp/_gbsbuild/obj/bg_level_2_tileset.rel
                                          [ bg_level_2_tileset ]
C:/Users/steve/AppData/Local/Temp/_gbsbuild/obj/bg_level_2.rel
                                          [ bg_level_2 ]
C:/Users/steve/AppData/Local/Temp/_gbsbuild/obj/bg_luna_boss_room_tilemap_attr.rel
                                          [ bg_luna_boss_room_tilemap_attr ]
C:/Users/steve/AppData/Local/Temp/_gbsbuild/obj/bg_luna_boss_room_tilemap.rel
                                          [ bg_luna_boss_room_tilemap ]
C:/Users/steve/AppData/Local/Temp/_gbsbuild/obj/bg_luna_boss_room_tileset.rel
                                          [ bg_luna_boss_room_tileset ]
C:/Users/steve/AppData/Local/Temp/_gbsbuild/obj/bg_luna_boss_room.rel
                                          [ bg_luna_boss_room ]
C:/Users/steve/AppData/Local/Temp/_gbsbuild/obj/bg_luna_peryil_s_house_cgb_tileset.rel
                                          [ bg_luna_peryil_s_house_cgb_tiles ]
C:/Users/steve/AppData/Local/Temp/_gbsbuild/obj/bg_luna_peryil_s_house_tilemap_attr.rel
                                          [ bg_luna_peryil_s_house_tilemap_a ]
C:/Users/steve/AppData/Local/Temp/_gbsbuild/obj/bg_luna_peryil_s_house_tilemap.rel
                                          [ bg_luna_peryil_s_house_tilemap ]
C:/Users/steve/AppData/Local/Temp/_gbsbuild/obj/bg_luna_peryil_s_house_tileset.rel
                                          [ bg_luna_peryil_s_house_tileset ]
C:/Users/steve/AppData/Local/Temp/_gbsbuild/obj/bg_luna_peryil_s_house.rel
                                          [ bg_luna_peryil_s_house ]
C:/Users/steve/AppData/Local/Temp/_gbsbuild/obj/bg_luna_serenity_cave_lower_tilemap_attr.rel
                                          [ bg_luna_serenity_cave_lower_tile ]
C:/Users/steve/AppData/Local/Temp/_gbsbuild/obj/bg_luna_serenity_cave_lower_tilemap.rel
                                          [ bg_luna_serenity_cave_lower_tile ]
C:/Users/steve/AppData/Local/Temp/_gbsbuild/obj/bg_luna_serenity_cave_lower_tileset.rel
                                          [ bg_luna_serenity_cave_lower_tile ]
C:/Users/steve/AppData/Local/Temp/_gbsbuild/obj/bg_luna_serenity_cave_lower.rel
                                          [ bg_luna_serenity_cave_lower ]
C:/Users/steve/AppData/Local/Temp/_gbsbuild/obj/bg_luna_serenity_cave_upper_tilemap_attr.rel
                                          [ bg_luna_serenity_cave_upper_tile ]
C:/Users/steve/AppData/Local/Temp/_gbsbuild/obj/bg_luna_serenity_cave_upper_tilemap.rel
                                          [ bg_luna_serenity_cave_upper_tile ]
C:/Users/steve/AppData/Local/Temp/_gbsbuild/obj/bg_luna_serenity_cave_upper_tileset.rel
                                          [ bg_luna_serenity_cave_upper_tile ]
C:/Users/steve/AppData/Local/Temp/_gbsbuild/obj/bg_luna_serenity_cave_upper.rel
                                          [ bg_luna_serenity_cave_upper ]
C:/Users/steve/AppData/Local/Temp/_gbsbuild/obj/bg_luna_serenity_forest_cgb_tileset.rel
                                          [ bg_luna_serenity_forest_cgb_tile ]
C:/Users/steve/AppData/Local/Temp/_gbsbuild/obj/bg_luna_serenity_forest_tilemap_attr.rel
                                          [ bg_luna_serenity_forest_tilemap_ ]
C:/Users/steve/AppData/Local/Temp/_gbsbuild/obj/bg_luna_serenity_forest_tilemap.rel
                                          [ bg_luna_serenity_forest_tilemap ]
C:/Users/steve/AppData/Local/Temp/_gbsbuild/obj/bg_luna_serenity_forest_tileset.rel
                                          [ bg_luna_serenity_forest_tileset ]
C:/Users/steve/AppData/Local/Temp/_gbsbuild/obj/bg_luna_serenity_forest.rel
                                          [ bg_luna_serenity_forest ]
C:/Users/steve/AppData/Local/Temp/_gbsbuild/obj/bg_luna_serenity_outskirts_tilemap_attr.rel
                                          [ bg_luna_serenity_outskirts_tilem ]
C:/Users/steve/AppData/Local/Temp/_gbsbuild/obj/bg_luna_serenity_outskirts_tilemap.rel
                                          [ bg_luna_serenity_outskirts_tilem ]
C:/Users/steve/AppData/Local/Temp/_gbsbuild/obj/bg_luna_serenity_outskirts_tileset.rel
                                          [ bg_luna_serenity_outskirts_tiles ]
C:/Users/steve/AppData/Local/Temp/_gbsbuild/obj/bg_luna_serenity_outskirts.rel
                                          [ bg_luna_serenity_outskirts ]
C:/Users/steve/AppData/Local/Temp/_gbsbuild/obj/bg_luna_serenity_waterfront_tilemap_attr.rel
                                          [ bg_luna_serenity_waterfront_tile ]
C:/Users/steve/AppData/Local/Temp/_gbsbuild/obj/bg_luna_serenity_waterfront_tilemap.rel
                                          [ bg_luna_serenity_waterfront_tile ]
C:/Users/steve/AppData/Local/Temp/_gbsbuild/obj/bg_luna_serenity_waterfront_tileset.rel
                                          [ bg_luna_serenity_waterfront_tile ]
C:/Users/steve/AppData/Local/Temp/_gbsbuild/obj/bg_luna_serenity_waterfront.rel
                                          [ bg_luna_serenity_waterfront ]
C:/Users/steve/AppData/Local/Temp/_gbsbuild/obj/bg_luna_sewer_system_tilemap_attr.rel
                                          [ bg_luna_sewer_system_tilemap_att ]
C:/Users/steve/AppData/Local/Temp/_gbsbuild/obj/bg_luna_sewer_system_tilemap.rel
                                          [ bg_luna_sewer_system_tilemap ]
C:/Users/steve/AppData/Local/Temp/_gbsbuild/obj/bg_luna_sewer_system_tileset.rel
                                          [ bg_luna_sewer_system_tileset ]
C:/Users/steve/AppData/Local/Temp/_gbsbuild/obj/bg_luna_sewer_system.rel
                                          [ bg_luna_sewer_system ]
C:/Users/steve/AppData/Local/Temp/_gbsbuild/obj/bg_luna_water_heater_tilemap_attr.rel
                                          [ bg_luna_water_heater_tilemap_att ]
C:/Users/steve/AppData/Local/Temp/_gbsbuild/obj/bg_luna_water_heater_tilemap.rel
                                          [ bg_luna_water_heater_tilemap ]
C:/Users/steve/AppData/Local/Temp/_gbsbuild/obj/bg_luna_water_heater_tileset.rel
                                          [ bg_luna_water_heater_tileset ]
C:/Users/steve/AppData/Local/Temp/_gbsbuild/obj/bg_luna_water_heater.rel
                                          [ bg_luna_water_heater ]
C:/Users/steve/AppData/Local/Temp/_gbsbuild/obj/bg_menu_load_background_cgb_tileset.rel
                                          [ bg_menu_load_background_cgb_tile ]
C:/Users/steve/AppData/Local/Temp/_gbsbuild/obj/bg_menu_load_background_tilemap_attr.rel
                                          [ bg_menu_load_background_tilemap_ ]
C:/Users/steve/AppData/Local/Temp/_gbsbuild/obj/bg_menu_load_background_tilemap.rel
                                          [ bg_menu_load_background_tilemap ]
C:/Users/steve/AppData/Local/Temp/_gbsbuild/obj/bg_menu_load_background_tileset.rel
                                          [ bg_menu_load_background_tileset ]
C:/Users/steve/AppData/Local/Temp/_gbsbuild/obj/bg_menu_load_background.rel
                                          [ bg_menu_load_background ]
C:/Users/steve/AppData/Local/Temp/_gbsbuild/obj/bg_mercury_landing_site_cgb_tileset.rel
                                          [ bg_mercury_landing_site_cgb_tile ]
C:/Users/steve/AppData/Local/Temp/_gbsbuild/obj/bg_mercury_landing_site_tilemap_attr.rel
                                          [ bg_mercury_landing_site_tilemap_ ]
C:/Users/steve/AppData/Local/Temp/_gbsbuild/obj/bg_mercury_landing_site_tilemap.rel
                                          [ bg_mercury_landing_site_tilemap ]
C:/Users/steve/AppData/Local/Temp/_gbsbuild/obj/bg_mercury_landing_site_tileset.rel
                                          [ bg_mercury_landing_site_tileset ]
C:/Users/steve/AppData/Local/Temp/_gbsbuild/obj/bg_mercury_landing_site.rel
                                          [ bg_mercury_landing_site ]
C:/Users/steve/AppData/Local/Temp/_gbsbuild/obj/bg_mercury_overflow_passage_cgb_tileset.rel
                                          [ bg_mercury_overflow_passage_cgb_ ]
C:/Users/steve/AppData/Local/Temp/_gbsbuild/obj/bg_mercury_overflow_passage_tilemap_attr.rel
                                          [ bg_mercury_overflow_passage_tile ]
C:/Users/steve/AppData/Local/Temp/_gbsbuild/obj/bg_mercury_overflow_passage_tilemap.rel
                                          [ bg_mercury_overflow_passage_tile ]
C:/Users/steve/AppData/Local/Temp/_gbsbuild/obj/bg_mercury_overflow_passage_tileset.rel
                                          [ bg_mercury_overflow_passage_tile ]
C:/Users/steve/AppData/Local/Temp/_gbsbuild/obj/bg_mercury_overflow_passage.rel
                                          [ bg_mercury_overflow_passage ]
C:/Users/steve/AppData/Local/Temp/_gbsbuild/obj/bg_mercury_poison_processin_cgb_tileset.rel
                                          [ bg_mercury_poison_processin_cgb_ ]
C:/Users/steve/AppData/Local/Temp/_gbsbuild/obj/bg_mercury_poison_processin_tilemap_attr.rel
                                          [ bg_mercury_poison_processin_tile ]
C:/Users/steve/AppData/Local/Temp/_gbsbuild/obj/bg_mercury_poison_processin_tilemap.rel
                                          [ bg_mercury_poison_processin_tile ]
C:/Users/steve/AppData/Local/Temp/_gbsbuild/obj/bg_mercury_poison_processin_tileset.rel
                                          [ bg_mercury_poison_processin_tile ]
C:/Users/steve/AppData/Local/Temp/_gbsbuild/obj/bg_mercury_poison_processin.rel
                                          [ bg_mercury_poison_processin ]
C:/Users/steve/AppData/Local/Temp/_gbsbuild/obj/bg_mercury_poison_storage_cgb_tileset.rel
                                          [ bg_mercury_poison_storage_cgb_ti ]
C:/Users/steve/AppData/Local/Temp/_gbsbuild/obj/bg_mercury_poison_storage_tilemap_attr.rel
                                          [ bg_mercury_poison_storage_tilema ]
C:/Users/steve/AppData/Local/Temp/_gbsbuild/obj/bg_mercury_poison_storage_tilemap.rel
                                          [ bg_mercury_poison_storage_tilema ]
C:/Users/steve/AppData/Local/Temp/_gbsbuild/obj/bg_mercury_poison_storage_tileset.rel
                                          [ bg_mercury_poison_storage_tilese ]
C:/Users/steve/AppData/Local/Temp/_gbsbuild/obj/bg_mercury_poison_storage.rel
                                          [ bg_mercury_poison_storage ]
C:/Users/steve/AppData/Local/Temp/_gbsbuild/obj/bg_mercury_projectile_platf_cgb_tileset.rel
                                          [ bg_mercury_projectile_platf_cgb_ ]
C:/Users/steve/AppData/Local/Temp/_gbsbuild/obj/bg_mercury_projectile_platf_tilemap_attr.rel
                                          [ bg_mercury_projectile_platf_tile ]
C:/Users/steve/AppData/Local/Temp/_gbsbuild/obj/bg_mercury_projectile_platf_tilemap.rel
                                          [ bg_mercury_projectile_platf_tile ]
C:/Users/steve/AppData/Local/Temp/_gbsbuild/obj/bg_mercury_projectile_platf_tileset.rel
                                          [ bg_mercury_projectile_platf_tile ]
C:/Users/steve/AppData/Local/Temp/_gbsbuild/obj/bg_mercury_projectile_platf.rel
                                          [ bg_mercury_projectile_platf ]
C:/Users/steve/AppData/Local/Temp/_gbsbuild/obj/bg_mercury_secret_area_tilemap_attr.rel
                                          [ bg_mercury_secret_area_tilemap_a ]
C:/Users/steve/AppData/Local/Temp/_gbsbuild/obj/bg_mercury_secret_area_tilemap.rel
                                          [ bg_mercury_secret_area_tilemap ]
C:/Users/steve/AppData/Local/Temp/_gbsbuild/obj/bg_mercury_secret_area_tileset.rel
                                          [ bg_mercury_secret_area_tileset ]
C:/Users/steve/AppData/Local/Temp/_gbsbuild/obj/bg_mercury_secret_area.rel
                                          [ bg_mercury_secret_area ]
C:/Users/steve/AppData/Local/Temp/_gbsbuild/obj/bg_mercury_throne_room_cgb_tileset.rel
                                          [ bg_mercury_throne_room_cgb_tiles ]
C:/Users/steve/AppData/Local/Temp/_gbsbuild/obj/bg_mercury_throne_room_tilemap_attr.rel
                                          [ bg_mercury_throne_room_tilemap_a ]
C:/Users/steve/AppData/Local/Temp/_gbsbuild/obj/bg_mercury_throne_room_tilemap.rel
                                          [ bg_mercury_throne_room_tilemap ]
C:/Users/steve/AppData/Local/Temp/_gbsbuild/obj/bg_mercury_throne_room_tileset.rel
                                          [ bg_mercury_throne_room_tileset ]
C:/Users/steve/AppData/Local/Temp/_gbsbuild/obj/bg_mercury_throne_room.rel
                                          [ bg_mercury_throne_room ]
C:/Users/steve/AppData/Local/Temp/_gbsbuild/obj/bg_mercury_viewing_area_cgb_tileset.rel
                                          [ bg_mercury_viewing_area_cgb_tile ]
C:/Users/steve/AppData/Local/Temp/_gbsbuild/obj/bg_mercury_viewing_area_tilemap_attr.rel
                                          [ bg_mercury_viewing_area_tilemap_ ]
C:/Users/steve/AppData/Local/Temp/_gbsbuild/obj/bg_mercury_viewing_area_tilemap.rel
                                          [ bg_mercury_viewing_area_tilemap ]
C:/Users/steve/AppData/Local/Temp/_gbsbuild/obj/bg_mercury_viewing_area_tileset.rel
                                          [ bg_mercury_viewing_area_tileset ]
C:/Users/steve/AppData/Local/Temp/_gbsbuild/obj/bg_mercury_viewing_area.rel
                                          [ bg_mercury_viewing_area ]
C:/Users/steve/AppData/Local/Temp/_gbsbuild/obj/bg_placeholder_tilemap_attr.rel
                                          [ bg_placeholder_tilemap_attr ]
C:/Users/steve/AppData/Local/Temp/_gbsbuild/obj/bg_placeholder_tilemap.rel
                                          [ bg_placeholder_tilemap ]
C:/Users/steve/AppData/Local/Temp/_gbsbuild/obj/bg_placeholder_tileset.rel
                                          [ bg_placeholder_tileset ]
C:/Users/steve/AppData/Local/Temp/_gbsbuild/obj/bg_placeholder.rel
                                          [ bg_placeholder ]
C:/Users/steve/AppData/Local/Temp/_gbsbuild/obj/bg_platformer_test01_tilemap_attr.rel
                                          [ bg_platformer_test01_tilemap_att ]
C:/Users/steve/AppData/Local/Temp/_gbsbuild/obj/bg_platformer_test01_tilemap.rel
                                          [ bg_platformer_test01_tilemap ]
C:/Users/steve/AppData/Local/Temp/_gbsbuild/obj/bg_platformer_test01_tileset.rel
                                          [ bg_platformer_test01_tileset ]
C:/Users/steve/AppData/Local/Temp/_gbsbuild/obj/bg_platformer_test01.rel
                                          [ bg_platformer_test01 ]
C:/Users/steve/AppData/Local/Temp/_gbsbuild/obj/bg_settings_tilemap_attr.rel
                                          [ bg_settings_tilemap_attr ]
C:/Users/steve/AppData/Local/Temp/_gbsbuild/obj/bg_settings_tilemap.rel
                                          [ bg_settings_tilemap ]
C:/Users/steve/AppData/Local/Temp/_gbsbuild/obj/bg_settings_tileset.rel
                                          [ bg_settings_tileset ]
C:/Users/steve/AppData/Local/Temp/_gbsbuild/obj/bg_settings.rel
                                          [ bg_settings ]
C:/Users/steve/AppData/Local/Temp/_gbsbuild/obj/bg_temporal_light_backgroun_tilemap_attr.rel
                                          [ bg_temporal_light_backgroun_tile ]
C:/Users/steve/AppData/Local/Temp/_gbsbuild/obj/bg_temporal_light_backgroun_tilemap.rel
                                          [ bg_temporal_light_backgroun_tile ]
C:/Users/steve/AppData/Local/Temp/_gbsbuild/obj/bg_temporal_light_backgroun_tileset.rel
                                          [ bg_temporal_light_backgroun_tile ]
C:/Users/steve/AppData/Local/Temp/_gbsbuild/obj/bg_temporal_light_backgroun.rel
                                          [ bg_temporal_light_backgroun ]
C:/Users/steve/AppData/Local/Temp/_gbsbuild/obj/bg_title_tilemap_attr.rel
                                          [ bg_title_tilemap_attr ]
C:/Users/steve/AppData/Local/Temp/_gbsbuild/obj/bg_title_tilemap.rel
                                          [ bg_title_tilemap ]
C:/Users/steve/AppData/Local/Temp/_gbsbuild/obj/bg_title_tileset.rel
                                          [ bg_title_tileset ]
C:/Users/steve/AppData/Local/Temp/_gbsbuild/obj/bg_title.rel
                                          [ bg_title ]
C:/Users/steve/AppData/Local/Temp/_gbsbuild/obj/bg_venus_ac_ventilation_tilemap_attr.rel
                                          [ bg_venus_ac_ventilation_tilemap_ ]
C:/Users/steve/AppData/Local/Temp/_gbsbuild/obj/bg_venus_ac_ventilation_tilemap.rel
                                          [ bg_venus_ac_ventilation_tilemap ]
C:/Users/steve/AppData/Local/Temp/_gbsbuild/obj/bg_venus_ac_ventilation_tileset.rel
                                          [ bg_venus_ac_ventilation_tileset ]
C:/Users/steve/AppData/Local/Temp/_gbsbuild/obj/bg_venus_ac_ventilation.rel
                                          [ bg_venus_ac_ventilation ]
C:/Users/steve/AppData/Local/Temp/_gbsbuild/obj/bg_venus_ac_ventilation2_tilemap_attr.rel
                                          [ bg_venus_ac_ventilation2_tilemap ]
C:/Users/steve/AppData/Local/Temp/_gbsbuild/obj/bg_venus_ac_ventilation2_tilemap.rel
                                          [ bg_venus_ac_ventilation2_tilemap ]
C:/Users/steve/AppData/Local/Temp/_gbsbuild/obj/bg_venus_ac_ventilation2_tileset.rel
                                          [ bg_venus_ac_ventilation2_tileset ]
C:/Users/steve/AppData/Local/Temp/_gbsbuild/obj/bg_venus_ac_ventilation2.rel
                                          [ bg_venus_ac_ventilation2 ]
C:/Users/steve/AppData/Local/Temp/_gbsbuild/obj/bg_venus_defence_tunnel_tilemap_attr.rel
                                          [ bg_venus_defence_tunnel_tilemap_ ]
C:/Users/steve/AppData/Local/Temp/_gbsbuild/obj/bg_venus_defence_tunnel_tilemap.rel
                                          [ bg_venus_defence_tunnel_tilemap ]
C:/Users/steve/AppData/Local/Temp/_gbsbuild/obj/bg_venus_defence_tunnel_tileset.rel
                                          [ bg_venus_defence_tunnel_tileset ]
C:/Users/steve/AppData/Local/Temp/_gbsbuild/obj/bg_venus_defence_tunnel.rel
                                          [ bg_venus_defence_tunnel ]
C:/Users/steve/AppData/Local/Temp/_gbsbuild/obj/bg_venus_dropshaft_0_tilemap_attr.rel
                                          [ bg_venus_dropshaft_0_tilemap_att ]
C:/Users/steve/AppData/Local/Temp/_gbsbuild/obj/bg_venus_dropshaft_0_tilemap.rel
                                          [ bg_venus_dropshaft_0_tilemap ]
C:/Users/steve/AppData/Local/Temp/_gbsbuild/obj/bg_venus_dropshaft_0_tileset.rel
                                          [ bg_venus_dropshaft_0_tileset ]
C:/Users/steve/AppData/Local/Temp/_gbsbuild/obj/bg_venus_dropshaft_0.rel
                                          [ bg_venus_dropshaft_0 ]
C:/Users/steve/AppData/Local/Temp/_gbsbuild/obj/bg_venus_dropshaft_1_tilemap_attr.rel
                                          [ bg_venus_dropshaft_1_tilemap_att ]
C:/Users/steve/AppData/Local/Temp/_gbsbuild/obj/bg_venus_dropshaft_1_tilemap.rel
                                          [ bg_venus_dropshaft_1_tilemap ]
C:/Users/steve/AppData/Local/Temp/_gbsbuild/obj/bg_venus_dropshaft_1_tileset.rel
                                          [ bg_venus_dropshaft_1_tileset ]
C:/Users/steve/AppData/Local/Temp/_gbsbuild/obj/bg_venus_dropshaft_1.rel
                                          [ bg_venus_dropshaft_1 ]
C:/Users/steve/AppData/Local/Temp/_gbsbuild/obj/bg_venus_evidence_room_tilemap_attr.rel
                                          [ bg_venus_evidence_room_tilemap_a ]
C:/Users/steve/AppData/Local/Temp/_gbsbuild/obj/bg_venus_evidence_room_tilemap.rel
                                          [ bg_venus_evidence_room_tilemap ]
C:/Users/steve/AppData/Local/Temp/_gbsbuild/obj/bg_venus_evidence_room_tileset.rel
                                          [ bg_venus_evidence_room_tileset ]
C:/Users/steve/AppData/Local/Temp/_gbsbuild/obj/bg_venus_evidence_room.rel
                                          [ bg_venus_evidence_room ]
C:/Users/steve/AppData/Local/Temp/_gbsbuild/obj/bg_venus_landing_site_tilemap_attr.rel
                                          [ bg_venus_landing_site_tilemap_at ]
C:/Users/steve/AppData/Local/Temp/_gbsbuild/obj/bg_venus_landing_site_tilemap.rel
                                          [ bg_venus_landing_site_tilemap ]
C:/Users/steve/AppData/Local/Temp/_gbsbuild/obj/bg_venus_landing_site_tileset.rel
                                          [ bg_venus_landing_site_tileset ]
C:/Users/steve/AppData/Local/Temp/_gbsbuild/obj/bg_venus_landing_site.rel
                                          [ bg_venus_landing_site ]
C:/Users/steve/AppData/Local/Temp/_gbsbuild/obj/bg_venus_office_access_tilemap_attr.rel
                                          [ bg_venus_office_access_tilemap_a ]
C:/Users/steve/AppData/Local/Temp/_gbsbuild/obj/bg_venus_office_access_tilemap.rel
                                          [ bg_venus_office_access_tilemap ]
C:/Users/steve/AppData/Local/Temp/_gbsbuild/obj/bg_venus_office_access_tileset.rel
                                          [ bg_venus_office_access_tileset ]
C:/Users/steve/AppData/Local/Temp/_gbsbuild/obj/bg_venus_office_access.rel
                                          [ bg_venus_office_access ]
C:/Users/steve/AppData/Local/Temp/_gbsbuild/obj/bg_venus_office_tilemap_attr.rel
                                          [ bg_venus_office_tilemap_attr ]
C:/Users/steve/AppData/Local/Temp/_gbsbuild/obj/bg_venus_office_tilemap.rel
                                          [ bg_venus_office_tilemap ]
C:/Users/steve/AppData/Local/Temp/_gbsbuild/obj/bg_venus_office_tileset.rel
                                          [ bg_venus_office_tileset ]
C:/Users/steve/AppData/Local/Temp/_gbsbuild/obj/bg_venus_office.rel
                                          [ bg_venus_office ]
C:/Users/steve/AppData/Local/Temp/_gbsbuild/obj/bg_venus_police_department__tilemap_attr.rel
                                          [ bg_venus_police_department__tile ]
C:/Users/steve/AppData/Local/Temp/_gbsbuild/obj/bg_venus_police_department__tilemap.rel
                                          [ bg_venus_police_department__tile ]
C:/Users/steve/AppData/Local/Temp/_gbsbuild/obj/bg_venus_police_department__tileset.rel
                                          [ bg_venus_police_department__tile ]
C:/Users/steve/AppData/Local/Temp/_gbsbuild/obj/bg_venus_police_department_.rel
                                          [ bg_venus_police_department_ ]
C:/Users/steve/AppData/Local/Temp/_gbsbuild/obj/bg_warning_tilemap_attr.rel
                                          [ bg_warning_tilemap_attr ]
C:/Users/steve/AppData/Local/Temp/_gbsbuild/obj/bg_warning_tilemap.rel
                                          [ bg_warning_tilemap ]
C:/Users/steve/AppData/Local/Temp/_gbsbuild/obj/bg_warning_tileset.rel
                                          [ bg_warning_tileset ]
C:/Users/steve/AppData/Local/Temp/_gbsbuild/obj/bg_warning.rel
                                          [ bg_warning ]
C:/Users/steve/AppData/Local/Temp/_gbsbuild/obj/cursor_image.rel
                                          [ cursor_image ]
C:/Users/steve/AppData/Local/Temp/_gbsbuild/obj/emote_anger.rel
                                          [ emote_anger ]
C:/Users/steve/AppData/Local/Temp/_gbsbuild/obj/emote_love.rel
                                          [ emote_love ]
C:/Users/steve/AppData/Local/Temp/_gbsbuild/obj/emote_pause.rel
                                          [ emote_pause ]
C:/Users/steve/AppData/Local/Temp/_gbsbuild/obj/emote_question.rel
                                          [ emote_question ]
C:/Users/steve/AppData/Local/Temp/_gbsbuild/obj/emote_shock.rel
                                          [ emote_shock ]
C:/Users/steve/AppData/Local/Temp/_gbsbuild/obj/emote_sweat.rel
                                          [ emote_sweat ]
C:/Users/steve/AppData/Local/Temp/_gbsbuild/obj/font_gbs_mono.rel
                                          [ font_gbs_mono ]
C:/Users/steve/AppData/Local/Temp/_gbsbuild/obj/frame_image.rel
                                          [ frame_image ]
C:/Users/steve/AppData/Local/Temp/_gbsbuild/obj/game_signature.rel
                                          [ game_signature ]
C:/Users/steve/AppData/Local/Temp/_gbsbuild/obj/song_alchemist_energy_0_Data.rel
                                          [ song_alchemist_energy_0_Data ]
C:/Users/steve/AppData/Local/Temp/_gbsbuild/obj/song_alchemist_energy_battl_Data.rel
                                          [ song_alchemist_energy_battl_Data ]
C:/Users/steve/AppData/Local/Temp/_gbsbuild/obj/song_blight_of_light_0_Data.rel
                                          [ song_blight_of_light_0_Data ]
C:/Users/steve/AppData/Local/Temp/_gbsbuild/obj/song_featherfire_cedric_Data.rel
                                          [ song_featherfire_cedric_Data ]
C:/Users/steve/AppData/Local/Temp/_gbsbuild/obj/song_featherfire_depresed_0_Data.rel
                                          [ song_featherfire_depresed_0_Data ]
C:/Users/steve/AppData/Local/Temp/_gbsbuild/obj/song_featherfire_depresed_Data.rel
                                          [ song_featherfire_depresed_Data ]
C:/Users/steve/AppData/Local/Temp/_gbsbuild/obj/song_featherfire_depresed0_Data.rel
                                          [ song_featherfire_depresed0_Data ]
C:/Users/steve/AppData/Local/Temp/_gbsbuild/obj/song_featherfire_ember_Data.rel
                                          [ song_featherfire_ember_Data ]
C:/Users/steve/AppData/Local/Temp/_gbsbuild/obj/song_lunabound_Data.rel
                                          [ song_lunabound_Data ]
C:/Users/steve/AppData/Local/Temp/_gbsbuild/obj/song_taking_flight_0_Data.rel
                                          [ song_taking_flight_0_Data ]
C:/Users/steve/AppData/Local/Temp/_gbsbuild/obj/song_uncertain_wilds_0_Data.rel
                                          [ song_uncertain_wilds_0_Data ]
C:/Users/steve/AppData/Local/Temp/_gbsbuild/obj/song_uncertain_wilds_copy_Data.rel
                                          [ song_uncertain_wilds_copy_Data ]
C:/Users/steve/AppData/Local/Temp/_gbsbuild/obj/song_unknown_wilds_Data.rel
                                          [ song_unknown_wilds_Data ]
C:/Users/steve/AppData/Local/Temp/_gbsbuild/obj/song_wolf_city_distiortion__Data.rel
                                          [ song_wolf_city_distiortion__Data ]
C:/Users/steve/AppData/Local/Temp/_gbsbuild/obj/song_wolfsbane_castle_copy_Data.rel
                                          [ song_wolfsbane_castle_copy_Data ]
C:/Users/steve/AppData/Local/Temp/_gbsbuild/obj/song_wolfsbane_castle_Data.rel
                                          [ song_wolfsbane_castle_Data ]
C:/Users/steve/AppData/Local/Temp/_gbsbuild/obj/palette_0.rel
                                          [ palette_0 ]
C:/Users/steve/AppData/Local/Temp/_gbsbuild/obj/palette_1.rel
                                          [ palette_1 ]
C:/Users/steve/AppData/Local/Temp/_gbsbuild/obj/palette_10.rel
                                          [ palette_10 ]
C:/Users/steve/AppData/Local/Temp/_gbsbuild/obj/palette_11.rel
                                          [ palette_11 ]
C:/Users/steve/AppData/Local/Temp/_gbsbuild/obj/palette_12.rel
                                          [ palette_12 ]
C:/Users/steve/AppData/Local/Temp/_gbsbuild/obj/palette_13.rel
                                          [ palette_13 ]
C:/Users/steve/AppData/Local/Temp/_gbsbuild/obj/palette_2.rel
                                          [ palette_2 ]
C:/Users/steve/AppData/Local/Temp/_gbsbuild/obj/palette_3.rel
                                          [ palette_3 ]
C:/Users/steve/AppData/Local/Temp/_gbsbuild/obj/palette_4.rel
                                          [ palette_4 ]
C:/Users/steve/AppData/Local/Temp/_gbsbuild/obj/palette_5.rel
                                          [ palette_5 ]
C:/Users/steve/AppData/Local/Temp/_gbsbuild/obj/palette_6.rel
                                          [ palette_6 ]
C:/Users/steve/AppData/Local/Temp/_gbsbuild/obj/palette_7.rel
                                          [ palette_7 ]
C:/Users/steve/AppData/Local/Temp/_gbsbuild/obj/palette_8.rel
                                          [ palette_8 ]
C:/Users/steve/AppData/Local/Temp/_gbsbuild/obj/palette_9.rel
                                          [ palette_9 ]
C:/Users/steve/AppData/Local/Temp/_gbsbuild/obj/scene_1_collisions.rel
                                          [ scene_1_collisions ]
C:/Users/steve/AppData/Local/Temp/_gbsbuild/obj/scene_1_init.rel
                                          [ scene_1_init ]
C:/Users/steve/AppData/Local/Temp/_gbsbuild/obj/scene_1_projectiles.rel
                                          [ scene_1_projectiles ]
C:/Users/steve/AppData/Local/Temp/_gbsbuild/obj/scene_1_sprites.rel
                                          [ scene_1_sprites ]
C:/Users/steve/AppData/Local/Temp/_gbsbuild/obj/scene_1_triggers.rel
                                          [ scene_1_triggers ]
C:/Users/steve/AppData/Local/Temp/_gbsbuild/obj/scene_1.rel
                                          [ scene_1 ]
C:/Users/steve/AppData/Local/Temp/_gbsbuild/obj/scene_10_actors.rel
                                          [ scene_10_actors ]
C:/Users/steve/AppData/Local/Temp/_gbsbuild/obj/scene_10_collisions.rel
                                          [ scene_10_collisions ]
C:/Users/steve/AppData/Local/Temp/_gbsbuild/obj/scene_10_init.rel
                                          [ scene_10_init ]
C:/Users/steve/AppData/Local/Temp/_gbsbuild/obj/scene_10_projectiles.rel
                                          [ scene_10_projectiles ]
C:/Users/steve/AppData/Local/Temp/_gbsbuild/obj/scene_10_sprites.rel
                                          [ scene_10_sprites ]
C:/Users/steve/AppData/Local/Temp/_gbsbuild/obj/scene_10_triggers.rel
                                          [ scene_10_triggers ]
C:/Users/steve/AppData/Local/Temp/_gbsbuild/obj/scene_10.rel
                                          [ scene_10 ]
C:/Users/steve/AppData/Local/Temp/_gbsbuild/obj/scene_11_actors.rel
                                          [ scene_11_actors ]
C:/Users/steve/AppData/Local/Temp/_gbsbuild/obj/scene_11_collisions.rel
                                          [ scene_11_collisions ]
C:/Users/steve/AppData/Local/Temp/_gbsbuild/obj/scene_11_init.rel
                                          [ scene_11_init ]
C:/Users/steve/AppData/Local/Temp/_gbsbuild/obj/scene_11_projectiles.rel
                                          [ scene_11_projectiles ]
C:/Users/steve/AppData/Local/Temp/_gbsbuild/obj/scene_11_sprites.rel
                                          [ scene_11_sprites ]
C:/Users/steve/AppData/Local/Temp/_gbsbuild/obj/scene_11_triggers.rel
                                          [ scene_11_triggers ]
C:/Users/steve/AppData/Local/Temp/_gbsbuild/obj/scene_11.rel
                                          [ scene_11 ]
C:/Users/steve/AppData/Local/Temp/_gbsbuild/obj/scene_12_actors.rel
                                          [ scene_12_actors ]
C:/Users/steve/AppData/Local/Temp/_gbsbuild/obj/scene_12_collisions.rel
                                          [ scene_12_collisions ]
C:/Users/steve/AppData/Local/Temp/_gbsbuild/obj/scene_12_init.rel
                                          [ scene_12_init ]
C:/Users/steve/AppData/Local/Temp/_gbsbuild/obj/scene_12_projectiles.rel
                                          [ scene_12_projectiles ]
C:/Users/steve/AppData/Local/Temp/_gbsbuild/obj/scene_12_sprites.rel
                                          [ scene_12_sprites ]
C:/Users/steve/AppData/Local/Temp/_gbsbuild/obj/scene_12_triggers.rel
                                          [ scene_12_triggers ]
C:/Users/steve/AppData/Local/Temp/_gbsbuild/obj/scene_12.rel
                                          [ scene_12 ]
C:/Users/steve/AppData/Local/Temp/_gbsbuild/obj/scene_13_actors.rel
                                          [ scene_13_actors ]
C:/Users/steve/AppData/Local/Temp/_gbsbuild/obj/scene_13_collisions.rel
                                          [ scene_13_collisions ]
C:/Users/steve/AppData/Local/Temp/_gbsbuild/obj/scene_13_init.rel
                                          [ scene_13_init ]
C:/Users/steve/AppData/Local/Temp/_gbsbuild/obj/scene_13_projectiles.rel
                                          [ scene_13_projectiles ]
C:/Users/steve/AppData/Local/Temp/_gbsbuild/obj/scene_13_sprites.rel
                                          [ scene_13_sprites ]
C:/Users/steve/AppData/Local/Temp/_gbsbuild/obj/scene_13_triggers.rel
                                          [ scene_13_triggers ]
C:/Users/steve/AppData/Local/Temp/_gbsbuild/obj/scene_13.rel
                                          [ scene_13 ]
C:/Users/steve/AppData/Local/Temp/_gbsbuild/obj/scene_14_actors.rel
                                          [ scene_14_actors ]
C:/Users/steve/AppData/Local/Temp/_gbsbuild/obj/scene_14_collisions.rel
                                          [ scene_14_collisions ]
C:/Users/steve/AppData/Local/Temp/_gbsbuild/obj/scene_14_init.rel
                                          [ scene_14_init ]
C:/Users/steve/AppData/Local/Temp/_gbsbuild/obj/scene_14_projectiles.rel
                                          [ scene_14_projectiles ]
C:/Users/steve/AppData/Local/Temp/_gbsbuild/obj/scene_14_sprites.rel
                                          [ scene_14_sprites ]
C:/Users/steve/AppData/Local/Temp/_gbsbuild/obj/scene_14_triggers.rel
                                          [ scene_14_triggers ]
C:/Users/steve/AppData/Local/Temp/_gbsbuild/obj/scene_14.rel
                                          [ scene_14 ]
C:/Users/steve/AppData/Local/Temp/_gbsbuild/obj/scene_15_actors.rel
                                          [ scene_15_actors ]
C:/Users/steve/AppData/Local/Temp/_gbsbuild/obj/scene_15_collisions.rel
                                          [ scene_15_collisions ]
C:/Users/steve/AppData/Local/Temp/_gbsbuild/obj/scene_15_init.rel
                                          [ scene_15_init ]
C:/Users/steve/AppData/Local/Temp/_gbsbuild/obj/scene_15_projectiles.rel
                                          [ scene_15_projectiles ]
C:/Users/steve/AppData/Local/Temp/_gbsbuild/obj/scene_15_sprites.rel
                                          [ scene_15_sprites ]
C:/Users/steve/AppData/Local/Temp/_gbsbuild/obj/scene_15_triggers.rel
                                          [ scene_15_triggers ]
C:/Users/steve/AppData/Local/Temp/_gbsbuild/obj/scene_15.rel
                                          [ scene_15 ]
C:/Users/steve/AppData/Local/Temp/_gbsbuild/obj/scene_16_actors.rel
                                          [ scene_16_actors ]
C:/Users/steve/AppData/Local/Temp/_gbsbuild/obj/scene_16_collisions.rel
                                          [ scene_16_collisions ]
C:/Users/steve/AppData/Local/Temp/_gbsbuild/obj/scene_16_init.rel
                                          [ scene_16_init ]
C:/Users/steve/AppData/Local/Temp/_gbsbuild/obj/scene_16_projectiles.rel
                                          [ scene_16_projectiles ]
C:/Users/steve/AppData/Local/Temp/_gbsbuild/obj/scene_16_sprites.rel
                                          [ scene_16_sprites ]
C:/Users/steve/AppData/Local/Temp/_gbsbuild/obj/scene_16_triggers.rel
                                          [ scene_16_triggers ]
C:/Users/steve/AppData/Local/Temp/_gbsbuild/obj/scene_16.rel
                                          [ scene_16 ]
C:/Users/steve/AppData/Local/Temp/_gbsbuild/obj/scene_17_collisions.rel
                                          [ scene_17_collisions ]
C:/Users/steve/AppData/Local/Temp/_gbsbuild/obj/scene_17_init.rel
                                          [ scene_17_init ]
C:/Users/steve/AppData/Local/Temp/_gbsbuild/obj/scene_17.rel
                                          [ scene_17 ]
C:/Users/steve/AppData/Local/Temp/_gbsbuild/obj/scene_18_collisions.rel
                                          [ scene_18_collisions ]
C:/Users/steve/AppData/Local/Temp/_gbsbuild/obj/scene_18_init.rel
                                          [ scene_18_init ]
C:/Users/steve/AppData/Local/Temp/_gbsbuild/obj/scene_18.rel
                                          [ scene_18 ]
C:/Users/steve/AppData/Local/Temp/_gbsbuild/obj/scene_19_actors.rel
                                          [ scene_19_actors ]
C:/Users/steve/AppData/Local/Temp/_gbsbuild/obj/scene_19_collisions.rel
                                          [ scene_19_collisions ]
C:/Users/steve/AppData/Local/Temp/_gbsbuild/obj/scene_19_init.rel
                                          [ scene_19_init ]
C:/Users/steve/AppData/Local/Temp/_gbsbuild/obj/scene_19_sprites.rel
                                          [ scene_19_sprites ]
C:/Users/steve/AppData/Local/Temp/_gbsbuild/obj/scene_19_triggers.rel
                                          [ scene_19_triggers ]
C:/Users/steve/AppData/Local/Temp/_gbsbuild/obj/scene_19.rel
                                          [ scene_19 ]
C:/Users/steve/AppData/Local/Temp/_gbsbuild/obj/scene_2_collisions.rel
                                          [ scene_2_collisions ]
C:/Users/steve/AppData/Local/Temp/_gbsbuild/obj/scene_2_init.rel
                                          [ scene_2_init ]
C:/Users/steve/AppData/Local/Temp/_gbsbuild/obj/scene_2.rel
                                          [ scene_2 ]
C:/Users/steve/AppData/Local/Temp/_gbsbuild/obj/scene_20_collisions.rel
                                          [ scene_20_collisions ]
C:/Users/steve/AppData/Local/Temp/_gbsbuild/obj/scene_20_init.rel
                                          [ scene_20_init ]
C:/Users/steve/AppData/Local/Temp/_gbsbuild/obj/scene_20_triggers.rel
                                          [ scene_20_triggers ]
C:/Users/steve/AppData/Local/Temp/_gbsbuild/obj/scene_20.rel
                                          [ scene_20 ]
C:/Users/steve/AppData/Local/Temp/_gbsbuild/obj/scene_21_actors.rel
                                          [ scene_21_actors ]
C:/Users/steve/AppData/Local/Temp/_gbsbuild/obj/scene_21_collisions.rel
                                          [ scene_21_collisions ]
C:/Users/steve/AppData/Local/Temp/_gbsbuild/obj/scene_21_init.rel
                                          [ scene_21_init ]
C:/Users/steve/AppData/Local/Temp/_gbsbuild/obj/scene_21_projectiles.rel
                                          [ scene_21_projectiles ]
C:/Users/steve/AppData/Local/Temp/_gbsbuild/obj/scene_21_sprites.rel
                                          [ scene_21_sprites ]
C:/Users/steve/AppData/Local/Temp/_gbsbuild/obj/scene_21_triggers.rel
                                          [ scene_21_triggers ]
C:/Users/steve/AppData/Local/Temp/_gbsbuild/obj/scene_21.rel
                                          [ scene_21 ]
C:/Users/steve/AppData/Local/Temp/_gbsbuild/obj/scene_22_actors.rel
                                          [ scene_22_actors ]
C:/Users/steve/AppData/Local/Temp/_gbsbuild/obj/scene_22_collisions.rel
                                          [ scene_22_collisions ]
C:/Users/steve/AppData/Local/Temp/_gbsbuild/obj/scene_22_init.rel
                                          [ scene_22_init ]
C:/Users/steve/AppData/Local/Temp/_gbsbuild/obj/scene_22_projectiles.rel
                                          [ scene_22_projectiles ]
C:/Users/steve/AppData/Local/Temp/_gbsbuild/obj/scene_22_sprites.rel
                                          [ scene_22_sprites ]
C:/Users/steve/AppData/Local/Temp/_gbsbuild/obj/scene_22_triggers.rel
                                          [ scene_22_triggers ]
C:/Users/steve/AppData/Local/Temp/_gbsbuild/obj/scene_22.rel
                                          [ scene_22 ]
C:/Users/steve/AppData/Local/Temp/_gbsbuild/obj/scene_23_actors.rel
                                          [ scene_23_actors ]
C:/Users/steve/AppData/Local/Temp/_gbsbuild/obj/scene_23_collisions.rel
                                          [ scene_23_collisions ]
C:/Users/steve/AppData/Local/Temp/_gbsbuild/obj/scene_23_init.rel
                                          [ scene_23_init ]
C:/Users/steve/AppData/Local/Temp/_gbsbuild/obj/scene_23_projectiles.rel
                                          [ scene_23_projectiles ]
C:/Users/steve/AppData/Local/Temp/_gbsbuild/obj/scene_23_sprites.rel
                                          [ scene_23_sprites ]
C:/Users/steve/AppData/Local/Temp/_gbsbuild/obj/scene_23_triggers.rel
                                          [ scene_23_triggers ]
C:/Users/steve/AppData/Local/Temp/_gbsbuild/obj/scene_23.rel
                                          [ scene_23 ]
C:/Users/steve/AppData/Local/Temp/_gbsbuild/obj/scene_24_actors.rel
                                          [ scene_24_actors ]
C:/Users/steve/AppData/Local/Temp/_gbsbuild/obj/scene_24_collisions.rel
                                          [ scene_24_collisions ]
C:/Users/steve/AppData/Local/Temp/_gbsbuild/obj/scene_24_init.rel
                                          [ scene_24_init ]
C:/Users/steve/AppData/Local/Temp/_gbsbuild/obj/scene_24_projectiles.rel
                                          [ scene_24_projectiles ]
C:/Users/steve/AppData/Local/Temp/_gbsbuild/obj/scene_24_sprites.rel
                                          [ scene_24_sprites ]
C:/Users/steve/AppData/Local/Temp/_gbsbuild/obj/scene_24_triggers.rel
                                          [ scene_24_triggers ]
C:/Users/steve/AppData/Local/Temp/_gbsbuild/obj/scene_24.rel
                                          [ scene_24 ]
C:/Users/steve/AppData/Local/Temp/_gbsbuild/obj/scene_25_actors.rel
                                          [ scene_25_actors ]
C:/Users/steve/AppData/Local/Temp/_gbsbuild/obj/scene_25_collisions.rel
                                          [ scene_25_collisions ]
C:/Users/steve/AppData/Local/Temp/_gbsbuild/obj/scene_25_init.rel
                                          [ scene_25_init ]
C:/Users/steve/AppData/Local/Temp/_gbsbuild/obj/scene_25_projectiles.rel
                                          [ scene_25_projectiles ]
C:/Users/steve/AppData/Local/Temp/_gbsbuild/obj/scene_25_sprites.rel
                                          [ scene_25_sprites ]
C:/Users/steve/AppData/Local/Temp/_gbsbuild/obj/scene_25_triggers.rel
                                          [ scene_25_triggers ]
C:/Users/steve/AppData/Local/Temp/_gbsbuild/obj/scene_25.rel
                                          [ scene_25 ]
C:/Users/steve/AppData/Local/Temp/_gbsbuild/obj/scene_26_collisions.rel
                                          [ scene_26_collisions ]
C:/Users/steve/AppData/Local/Temp/_gbsbuild/obj/scene_26_init.rel
                                          [ scene_26_init ]
C:/Users/steve/AppData/Local/Temp/_gbsbuild/obj/scene_26_projectiles.rel
                                          [ scene_26_projectiles ]
C:/Users/steve/AppData/Local/Temp/_gbsbuild/obj/scene_26_sprites.rel
                                          [ scene_26_sprites ]
C:/Users/steve/AppData/Local/Temp/_gbsbuild/obj/scene_26_triggers.rel
                                          [ scene_26_triggers ]
C:/Users/steve/AppData/Local/Temp/_gbsbuild/obj/scene_26.rel
                                          [ scene_26 ]
C:/Users/steve/AppData/Local/Temp/_gbsbuild/obj/scene_27_collisions.rel
                                          [ scene_27_collisions ]
C:/Users/steve/AppData/Local/Temp/_gbsbuild/obj/scene_27_init.rel
                                          [ scene_27_init ]
C:/Users/steve/AppData/Local/Temp/_gbsbuild/obj/scene_27_projectiles.rel
                                          [ scene_27_projectiles ]
C:/Users/steve/AppData/Local/Temp/_gbsbuild/obj/scene_27_sprites.rel
                                          [ scene_27_sprites ]
C:/Users/steve/AppData/Local/Temp/_gbsbuild/obj/scene_27_triggers.rel
                                          [ scene_27_triggers ]
C:/Users/steve/AppData/Local/Temp/_gbsbuild/obj/scene_27.rel
                                          [ scene_27 ]
C:/Users/steve/AppData/Local/Temp/_gbsbuild/obj/scene_28_actors.rel
                                          [ scene_28_actors ]
C:/Users/steve/AppData/Local/Temp/_gbsbuild/obj/scene_28_collisions.rel
                                          [ scene_28_collisions ]
C:/Users/steve/AppData/Local/Temp/_gbsbuild/obj/scene_28_init.rel
                                          [ scene_28_init ]
C:/Users/steve/AppData/Local/Temp/_gbsbuild/obj/scene_28_p_hit1.rel
                                          [ scene_28_p_hit1 ]
C:/Users/steve/AppData/Local/Temp/_gbsbuild/obj/scene_28_projectiles.rel
                                          [ scene_28_projectiles ]
C:/Users/steve/AppData/Local/Temp/_gbsbuild/obj/scene_28_sprites.rel
                                          [ scene_28_sprites ]
C:/Users/steve/AppData/Local/Temp/_gbsbuild/obj/scene_28.rel
                                          [ scene_28 ]
C:/Users/steve/AppData/Local/Temp/_gbsbuild/obj/scene_29_actors.rel
                                          [ scene_29_actors ]
C:/Users/steve/AppData/Local/Temp/_gbsbuild/obj/scene_29_collisions.rel
                                          [ scene_29_collisions ]
C:/Users/steve/AppData/Local/Temp/_gbsbuild/obj/scene_29_init.rel
                                          [ scene_29_init ]
C:/Users/steve/AppData/Local/Temp/_gbsbuild/obj/scene_29_sprites.rel
                                          [ scene_29_sprites ]
C:/Users/steve/AppData/Local/Temp/_gbsbuild/obj/scene_29.rel
                                          [ scene_29 ]
C:/Users/steve/AppData/Local/Temp/_gbsbuild/obj/scene_3_collisions.rel
                                          [ scene_3_collisions ]
C:/Users/steve/AppData/Local/Temp/_gbsbuild/obj/scene_3_init.rel
                                          [ scene_3_init ]
C:/Users/steve/AppData/Local/Temp/_gbsbuild/obj/scene_3.rel
                                          [ scene_3 ]
C:/Users/steve/AppData/Local/Temp/_gbsbuild/obj/scene_30_actors.rel
                                          [ scene_30_actors ]
C:/Users/steve/AppData/Local/Temp/_gbsbuild/obj/scene_30_collisions.rel
                                          [ scene_30_collisions ]
C:/Users/steve/AppData/Local/Temp/_gbsbuild/obj/scene_30_init.rel
                                          [ scene_30_init ]
C:/Users/steve/AppData/Local/Temp/_gbsbuild/obj/scene_30_sprites.rel
                                          [ scene_30_sprites ]
C:/Users/steve/AppData/Local/Temp/_gbsbuild/obj/scene_30.rel
                                          [ scene_30 ]
C:/Users/steve/AppData/Local/Temp/_gbsbuild/obj/scene_31_collisions.rel
                                          [ scene_31_collisions ]
C:/Users/steve/AppData/Local/Temp/_gbsbuild/obj/scene_31_init.rel
                                          [ scene_31_init ]
C:/Users/steve/AppData/Local/Temp/_gbsbuild/obj/scene_31_projectiles.rel
                                          [ scene_31_projectiles ]
C:/Users/steve/AppData/Local/Temp/_gbsbuild/obj/scene_31_sprites.rel
                                          [ scene_31_sprites ]
C:/Users/steve/AppData/Local/Temp/_gbsbuild/obj/scene_31_triggers.rel
                                          [ scene_31_triggers ]
C:/Users/steve/AppData/Local/Temp/_gbsbuild/obj/scene_31.rel
                                          [ scene_31 ]
C:/Users/steve/AppData/Local/Temp/_gbsbuild/obj/scene_32_actors.rel
                                          [ scene_32_actors ]
C:/Users/steve/AppData/Local/Temp/_gbsbuild/obj/scene_32_collisions.rel
                                          [ scene_32_collisions ]
C:/Users/steve/AppData/Local/Temp/_gbsbuild/obj/scene_32_init.rel
                                          [ scene_32_init ]
C:/Users/steve/AppData/Local/Temp/_gbsbuild/obj/scene_32_projectiles.rel
                                          [ scene_32_projectiles ]
C:/Users/steve/AppData/Local/Temp/_gbsbuild/obj/scene_32_sprites.rel
                                          [ scene_32_sprites ]
C:/Users/steve/AppData/Local/Temp/_gbsbuild/obj/scene_32_triggers.rel
                                          [ scene_32_triggers ]
C:/Users/steve/AppData/Local/Temp/_gbsbuild/obj/scene_32.rel
                                          [ scene_32 ]
C:/Users/steve/AppData/Local/Temp/_gbsbuild/obj/scene_33_actors.rel
                                          [ scene_33_actors ]
C:/Users/steve/AppData/Local/Temp/_gbsbuild/obj/scene_33_collisions.rel
                                          [ scene_33_collisions ]
C:/Users/steve/AppData/Local/Temp/_gbsbuild/obj/scene_33_init.rel
                                          [ scene_33_init ]
C:/Users/steve/AppData/Local/Temp/_gbsbuild/obj/scene_33_projectiles.rel
                                          [ scene_33_projectiles ]
C:/Users/steve/AppData/Local/Temp/_gbsbuild/obj/scene_33_sprites.rel
                                          [ scene_33_sprites ]
C:/Users/steve/AppData/Local/Temp/_gbsbuild/obj/scene_33_triggers.rel
                                          [ scene_33_triggers ]
C:/Users/steve/AppData/Local/Temp/_gbsbuild/obj/scene_33.rel
                                          [ scene_33 ]
C:/Users/steve/AppData/Local/Temp/_gbsbuild/obj/scene_34_collisions.rel
                                          [ scene_34_collisions ]
C:/Users/steve/AppData/Local/Temp/_gbsbuild/obj/scene_34_init.rel
                                          [ scene_34_init ]
C:/Users/steve/AppData/Local/Temp/_gbsbuild/obj/scene_34_projectiles.rel
                                          [ scene_34_projectiles ]
C:/Users/steve/AppData/Local/Temp/_gbsbuild/obj/scene_34_sprites.rel
                                          [ scene_34_sprites ]
C:/Users/steve/AppData/Local/Temp/_gbsbuild/obj/scene_34_triggers.rel
                                          [ scene_34_triggers ]
C:/Users/steve/AppData/Local/Temp/_gbsbuild/obj/scene_34.rel
                                          [ scene_34 ]
C:/Users/steve/AppData/Local/Temp/_gbsbuild/obj/scene_35_actors.rel
                                          [ scene_35_actors ]
C:/Users/steve/AppData/Local/Temp/_gbsbuild/obj/scene_35_collisions.rel
                                          [ scene_35_collisions ]
C:/Users/steve/AppData/Local/Temp/_gbsbuild/obj/scene_35_init.rel
                                          [ scene_35_init ]
C:/Users/steve/AppData/Local/Temp/_gbsbuild/obj/scene_35_p_hit1.rel
                                          [ scene_35_p_hit1 ]
C:/Users/steve/AppData/Local/Temp/_gbsbuild/obj/scene_35_projectiles.rel
                                          [ scene_35_projectiles ]
C:/Users/steve/AppData/Local/Temp/_gbsbuild/obj/scene_35_sprites.rel
                                          [ scene_35_sprites ]
C:/Users/steve/AppData/Local/Temp/_gbsbuild/obj/scene_35_triggers.rel
                                          [ scene_35_triggers ]
C:/Users/steve/AppData/Local/Temp/_gbsbuild/obj/scene_35.rel
                                          [ scene_35 ]
C:/Users/steve/AppData/Local/Temp/_gbsbuild/obj/scene_36_collisions.rel
                                          [ scene_36_collisions ]
C:/Users/steve/AppData/Local/Temp/_gbsbuild/obj/scene_36_init.rel
                                          [ scene_36_init ]
C:/Users/steve/AppData/Local/Temp/_gbsbuild/obj/scene_36_projectiles.rel
                                          [ scene_36_projectiles ]
C:/Users/steve/AppData/Local/Temp/_gbsbuild/obj/scene_36_sprites.rel
                                          [ scene_36_sprites ]
C:/Users/steve/AppData/Local/Temp/_gbsbuild/obj/scene_36_triggers.rel
                                          [ scene_36_triggers ]
C:/Users/steve/AppData/Local/Temp/_gbsbuild/obj/scene_36.rel
                                          [ scene_36 ]
C:/Users/steve/AppData/Local/Temp/_gbsbuild/obj/scene_37_collisions.rel
                                          [ scene_37_collisions ]
C:/Users/steve/AppData/Local/Temp/_gbsbuild/obj/scene_37_init.rel
                                          [ scene_37_init ]
C:/Users/steve/AppData/Local/Temp/_gbsbuild/obj/scene_37_projectiles.rel
                                          [ scene_37_projectiles ]
C:/Users/steve/AppData/Local/Temp/_gbsbuild/obj/scene_37_sprites.rel
                                          [ scene_37_sprites ]
C:/Users/steve/AppData/Local/Temp/_gbsbuild/obj/scene_37_triggers.rel
                                          [ scene_37_triggers ]
C:/Users/steve/AppData/Local/Temp/_gbsbuild/obj/scene_37.rel
                                          [ scene_37 ]
C:/Users/steve/AppData/Local/Temp/_gbsbuild/obj/scene_38_actors.rel
                                          [ scene_38_actors ]
C:/Users/steve/AppData/Local/Temp/_gbsbuild/obj/scene_38_collisions.rel
                                          [ scene_38_collisions ]
C:/Users/steve/AppData/Local/Temp/_gbsbuild/obj/scene_38_init.rel
                                          [ scene_38_init ]
C:/Users/steve/AppData/Local/Temp/_gbsbuild/obj/scene_38_projectiles.rel
                                          [ scene_38_projectiles ]
C:/Users/steve/AppData/Local/Temp/_gbsbuild/obj/scene_38_sprites.rel
                                          [ scene_38_sprites ]
C:/Users/steve/AppData/Local/Temp/_gbsbuild/obj/scene_38_triggers.rel
                                          [ scene_38_triggers ]
C:/Users/steve/AppData/Local/Temp/_gbsbuild/obj/scene_38.rel
                                          [ scene_38 ]
C:/Users/steve/AppData/Local/Temp/_gbsbuild/obj/scene_39_actors.rel
                                          [ scene_39_actors ]
C:/Users/steve/AppData/Local/Temp/_gbsbuild/obj/scene_39_collisions.rel
                                          [ scene_39_collisions ]
C:/Users/steve/AppData/Local/Temp/_gbsbuild/obj/scene_39_init.rel
                                          [ scene_39_init ]
C:/Users/steve/AppData/Local/Temp/_gbsbuild/obj/scene_39_sprites.rel
                                          [ scene_39_sprites ]
C:/Users/steve/AppData/Local/Temp/_gbsbuild/obj/scene_39.rel
                                          [ scene_39 ]
C:/Users/steve/AppData/Local/Temp/_gbsbuild/obj/scene_4_collisions.rel
                                          [ scene_4_collisions ]
C:/Users/steve/AppData/Local/Temp/_gbsbuild/obj/scene_4_init.rel
                                          [ scene_4_init ]
C:/Users/steve/AppData/Local/Temp/_gbsbuild/obj/scene_4.rel
                                          [ scene_4 ]
C:/Users/steve/AppData/Local/Temp/_gbsbuild/obj/scene_40_actors.rel
                                          [ scene_40_actors ]
C:/Users/steve/AppData/Local/Temp/_gbsbuild/obj/scene_40_collisions.rel
                                          [ scene_40_collisions ]
C:/Users/steve/AppData/Local/Temp/_gbsbuild/obj/scene_40_init.rel
                                          [ scene_40_init ]
C:/Users/steve/AppData/Local/Temp/_gbsbuild/obj/scene_40_projectiles.rel
                                          [ scene_40_projectiles ]
C:/Users/steve/AppData/Local/Temp/_gbsbuild/obj/scene_40_sprites.rel
                                          [ scene_40_sprites ]
C:/Users/steve/AppData/Local/Temp/_gbsbuild/obj/scene_40.rel
                                          [ scene_40 ]
C:/Users/steve/AppData/Local/Temp/_gbsbuild/obj/scene_41_actors.rel
                                          [ scene_41_actors ]
C:/Users/steve/AppData/Local/Temp/_gbsbuild/obj/scene_41_collisions.rel
                                          [ scene_41_collisions ]
C:/Users/steve/AppData/Local/Temp/_gbsbuild/obj/scene_41_init.rel
                                          [ scene_41_init ]
C:/Users/steve/AppData/Local/Temp/_gbsbuild/obj/scene_41_p_hit1.rel
                                          [ scene_41_p_hit1 ]
C:/Users/steve/AppData/Local/Temp/_gbsbuild/obj/scene_41_projectiles.rel
                                          [ scene_41_projectiles ]
C:/Users/steve/AppData/Local/Temp/_gbsbuild/obj/scene_41_sprites.rel
                                          [ scene_41_sprites ]
C:/Users/steve/AppData/Local/Temp/_gbsbuild/obj/scene_41.rel
                                          [ scene_41 ]
C:/Users/steve/AppData/Local/Temp/_gbsbuild/obj/scene_42_actors.rel
                                          [ scene_42_actors ]
C:/Users/steve/AppData/Local/Temp/_gbsbuild/obj/scene_42_collisions.rel
                                          [ scene_42_collisions ]
C:/Users/steve/AppData/Local/Temp/_gbsbuild/obj/scene_42_init.rel
                                          [ scene_42_init ]
C:/Users/steve/AppData/Local/Temp/_gbsbuild/obj/scene_42_projectiles.rel
                                          [ scene_42_projectiles ]
C:/Users/steve/AppData/Local/Temp/_gbsbuild/obj/scene_42_sprites.rel
                                          [ scene_42_sprites ]
C:/Users/steve/AppData/Local/Temp/_gbsbuild/obj/scene_42_triggers.rel
                                          [ scene_42_triggers ]
C:/Users/steve/AppData/Local/Temp/_gbsbuild/obj/scene_42.rel
                                          [ scene_42 ]
C:/Users/steve/AppData/Local/Temp/_gbsbuild/obj/scene_43_actors.rel
                                          [ scene_43_actors ]
C:/Users/steve/AppData/Local/Temp/_gbsbuild/obj/scene_43_collisions.rel
                                          [ scene_43_collisions ]
C:/Users/steve/AppData/Local/Temp/_gbsbuild/obj/scene_43_init.rel
                                          [ scene_43_init ]
C:/Users/steve/AppData/Local/Temp/_gbsbuild/obj/scene_43_projectiles.rel
                                          [ scene_43_projectiles ]
C:/Users/steve/AppData/Local/Temp/_gbsbuild/obj/scene_43_sprites.rel
                                          [ scene_43_sprites ]
C:/Users/steve/AppData/Local/Temp/_gbsbuild/obj/scene_43_triggers.rel
                                          [ scene_43_triggers ]
C:/Users/steve/AppData/Local/Temp/_gbsbuild/obj/scene_43.rel
                                          [ scene_43 ]
C:/Users/steve/AppData/Local/Temp/_gbsbuild/obj/scene_44_actors.rel
                                          [ scene_44_actors ]
C:/Users/steve/AppData/Local/Temp/_gbsbuild/obj/scene_44_collisions.rel
                                          [ scene_44_collisions ]
C:/Users/steve/AppData/Local/Temp/_gbsbuild/obj/scene_44_init.rel
                                          [ scene_44_init ]
C:/Users/steve/AppData/Local/Temp/_gbsbuild/obj/scene_44_projectiles.rel
                                          [ scene_44_projectiles ]
C:/Users/steve/AppData/Local/Temp/_gbsbuild/obj/scene_44_sprites.rel
                                          [ scene_44_sprites ]
C:/Users/steve/AppData/Local/Temp/_gbsbuild/obj/scene_44_triggers.rel
                                          [ scene_44_triggers ]
C:/Users/steve/AppData/Local/Temp/_gbsbuild/obj/scene_44.rel
                                          [ scene_44 ]
C:/Users/steve/AppData/Local/Temp/_gbsbuild/obj/scene_45_actors.rel
                                          [ scene_45_actors ]
C:/Users/steve/AppData/Local/Temp/_gbsbuild/obj/scene_45_collisions.rel
                                          [ scene_45_collisions ]
C:/Users/steve/AppData/Local/Temp/_gbsbuild/obj/scene_45_init.rel
                                          [ scene_45_init ]
C:/Users/steve/AppData/Local/Temp/_gbsbuild/obj/scene_45_p_hit1.rel
                                          [ scene_45_p_hit1 ]
C:/Users/steve/AppData/Local/Temp/_gbsbuild/obj/scene_45_projectiles.rel
                                          [ scene_45_projectiles ]
C:/Users/steve/AppData/Local/Temp/_gbsbuild/obj/scene_45_sprites.rel
                                          [ scene_45_sprites ]
C:/Users/steve/AppData/Local/Temp/_gbsbuild/obj/scene_45_triggers.rel
                                          [ scene_45_triggers ]
C:/Users/steve/AppData/Local/Temp/_gbsbuild/obj/scene_45.rel
                                          [ scene_45 ]
C:/Users/steve/AppData/Local/Temp/_gbsbuild/obj/scene_46_collisions.rel
                                          [ scene_46_collisions ]
C:/Users/steve/AppData/Local/Temp/_gbsbuild/obj/scene_46_init.rel
                                          [ scene_46_init ]
C:/Users/steve/AppData/Local/Temp/_gbsbuild/obj/scene_46_projectiles.rel
                                          [ scene_46_projectiles ]
C:/Users/steve/AppData/Local/Temp/_gbsbuild/obj/scene_46_sprites.rel
                                          [ scene_46_sprites ]
C:/Users/steve/AppData/Local/Temp/_gbsbuild/obj/scene_46_triggers.rel
                                          [ scene_46_triggers ]
C:/Users/steve/AppData/Local/Temp/_gbsbuild/obj/scene_46.rel
                                          [ scene_46 ]
C:/Users/steve/AppData/Local/Temp/_gbsbuild/obj/scene_47_actors.rel
                                          [ scene_47_actors ]
C:/Users/steve/AppData/Local/Temp/_gbsbuild/obj/scene_47_collisions.rel
                                          [ scene_47_collisions ]
C:/Users/steve/AppData/Local/Temp/_gbsbuild/obj/scene_47_init.rel
                                          [ scene_47_init ]
C:/Users/steve/AppData/Local/Temp/_gbsbuild/obj/scene_47_p_hit1.rel
                                          [ scene_47_p_hit1 ]
C:/Users/steve/AppData/Local/Temp/_gbsbuild/obj/scene_47_projectiles.rel
                                          [ scene_47_projectiles ]
C:/Users/steve/AppData/Local/Temp/_gbsbuild/obj/scene_47_sprites.rel
                                          [ scene_47_sprites ]
C:/Users/steve/AppData/Local/Temp/_gbsbuild/obj/scene_47_triggers.rel
                                          [ scene_47_triggers ]
C:/Users/steve/AppData/Local/Temp/_gbsbuild/obj/scene_47.rel
                                          [ scene_47 ]
C:/Users/steve/AppData/Local/Temp/_gbsbuild/obj/scene_48_collisions.rel
                                          [ scene_48_collisions ]
C:/Users/steve/AppData/Local/Temp/_gbsbuild/obj/scene_48_init.rel
                                          [ scene_48_init ]
C:/Users/steve/AppData/Local/Temp/_gbsbuild/obj/scene_48_projectiles.rel
                                          [ scene_48_projectiles ]
C:/Users/steve/AppData/Local/Temp/_gbsbuild/obj/scene_48_sprites.rel
                                          [ scene_48_sprites ]
C:/Users/steve/AppData/Local/Temp/_gbsbuild/obj/scene_48_triggers.rel
                                          [ scene_48_triggers ]
C:/Users/steve/AppData/Local/Temp/_gbsbuild/obj/scene_48.rel
                                          [ scene_48 ]
C:/Users/steve/AppData/Local/Temp/_gbsbuild/obj/scene_49_collisions.rel
                                          [ scene_49_collisions ]
C:/Users/steve/AppData/Local/Temp/_gbsbuild/obj/scene_49_init.rel
                                          [ scene_49_init ]
C:/Users/steve/AppData/Local/Temp/_gbsbuild/obj/scene_49_projectiles.rel
                                          [ scene_49_projectiles ]
C:/Users/steve/AppData/Local/Temp/_gbsbuild/obj/scene_49_sprites.rel
                                          [ scene_49_sprites ]
C:/Users/steve/AppData/Local/Temp/_gbsbuild/obj/scene_49_triggers.rel
                                          [ scene_49_triggers ]
C:/Users/steve/AppData/Local/Temp/_gbsbuild/obj/scene_49.rel
                                          [ scene_49 ]
C:/Users/steve/AppData/Local/Temp/_gbsbuild/obj/scene_5_collisions.rel
                                          [ scene_5_collisions ]
C:/Users/steve/AppData/Local/Temp/_gbsbuild/obj/scene_5_init.rel
                                          [ scene_5_init ]
C:/Users/steve/AppData/Local/Temp/_gbsbuild/obj/scene_5.rel
                                          [ scene_5 ]
C:/Users/steve/AppData/Local/Temp/_gbsbuild/obj/scene_50_collisions.rel
                                          [ scene_50_collisions ]
C:/Users/steve/AppData/Local/Temp/_gbsbuild/obj/scene_50_init.rel
                                          [ scene_50_init ]
C:/Users/steve/AppData/Local/Temp/_gbsbuild/obj/scene_50_projectiles.rel
                                          [ scene_50_projectiles ]
C:/Users/steve/AppData/Local/Temp/_gbsbuild/obj/scene_50_sprites.rel
                                          [ scene_50_sprites ]
C:/Users/steve/AppData/Local/Temp/_gbsbuild/obj/scene_50_triggers.rel
                                          [ scene_50_triggers ]
C:/Users/steve/AppData/Local/Temp/_gbsbuild/obj/scene_50.rel
                                          [ scene_50 ]
C:/Users/steve/AppData/Local/Temp/_gbsbuild/obj/scene_51_actors.rel
                                          [ scene_51_actors ]
C:/Users/steve/AppData/Local/Temp/_gbsbuild/obj/scene_51_collisions.rel
                                          [ scene_51_collisions ]
C:/Users/steve/AppData/Local/Temp/_gbsbuild/obj/scene_51_init.rel
                                          [ scene_51_init ]
C:/Users/steve/AppData/Local/Temp/_gbsbuild/obj/scene_51_p_hit1.rel
                                          [ scene_51_p_hit1 ]
C:/Users/steve/AppData/Local/Temp/_gbsbuild/obj/scene_51_projectiles.rel
                                          [ scene_51_projectiles ]
C:/Users/steve/AppData/Local/Temp/_gbsbuild/obj/scene_51_sprites.rel
                                          [ scene_51_sprites ]
C:/Users/steve/AppData/Local/Temp/_gbsbuild/obj/scene_51_triggers.rel
                                          [ scene_51_triggers ]
C:/Users/steve/AppData/Local/Temp/_gbsbuild/obj/scene_51.rel
                                          [ scene_51 ]
C:/Users/steve/AppData/Local/Temp/_gbsbuild/obj/scene_52_actors.rel
                                          [ scene_52_actors ]
C:/Users/steve/AppData/Local/Temp/_gbsbuild/obj/scene_52_collisions.rel
                                          [ scene_52_collisions ]
C:/Users/steve/AppData/Local/Temp/_gbsbuild/obj/scene_52_init.rel
                                          [ scene_52_init ]
C:/Users/steve/AppData/Local/Temp/_gbsbuild/obj/scene_52_sprites.rel
                                          [ scene_52_sprites ]
C:/Users/steve/AppData/Local/Temp/_gbsbuild/obj/scene_52.rel
                                          [ scene_52 ]
C:/Users/steve/AppData/Local/Temp/_gbsbuild/obj/scene_53_actors.rel
                                          [ scene_53_actors ]
C:/Users/steve/AppData/Local/Temp/_gbsbuild/obj/scene_53_collisions.rel
                                          [ scene_53_collisions ]
C:/Users/steve/AppData/Local/Temp/_gbsbuild/obj/scene_53_init.rel
                                          [ scene_53_init ]
C:/Users/steve/AppData/Local/Temp/_gbsbuild/obj/scene_53_sprites.rel
                                          [ scene_53_sprites ]
C:/Users/steve/AppData/Local/Temp/_gbsbuild/obj/scene_53.rel
                                          [ scene_53 ]
C:/Users/steve/AppData/Local/Temp/_gbsbuild/obj/scene_54_actors.rel
                                          [ scene_54_actors ]
C:/Users/steve/AppData/Local/Temp/_gbsbuild/obj/scene_54_collisions.rel
                                          [ scene_54_collisions ]
C:/Users/steve/AppData/Local/Temp/_gbsbuild/obj/scene_54_init.rel
                                          [ scene_54_init ]
C:/Users/steve/AppData/Local/Temp/_gbsbuild/obj/scene_54_projectiles.rel
                                          [ scene_54_projectiles ]
C:/Users/steve/AppData/Local/Temp/_gbsbuild/obj/scene_54_sprites.rel
                                          [ scene_54_sprites ]
C:/Users/steve/AppData/Local/Temp/_gbsbuild/obj/scene_54_triggers.rel
                                          [ scene_54_triggers ]
C:/Users/steve/AppData/Local/Temp/_gbsbuild/obj/scene_54.rel
                                          [ scene_54 ]
C:/Users/steve/AppData/Local/Temp/_gbsbuild/obj/scene_55_actors.rel
                                          [ scene_55_actors ]
C:/Users/steve/AppData/Local/Temp/_gbsbuild/obj/scene_55_collisions.rel
                                          [ scene_55_collisions ]
C:/Users/steve/AppData/Local/Temp/_gbsbuild/obj/scene_55_init.rel
                                          [ scene_55_init ]
C:/Users/steve/AppData/Local/Temp/_gbsbuild/obj/scene_55_projectiles.rel
                                          [ scene_55_projectiles ]
C:/Users/steve/AppData/Local/Temp/_gbsbuild/obj/scene_55_sprites.rel
                                          [ scene_55_sprites ]
C:/Users/steve/AppData/Local/Temp/_gbsbuild/obj/scene_55_triggers.rel
                                          [ scene_55_triggers ]
C:/Users/steve/AppData/Local/Temp/_gbsbuild/obj/scene_55.rel
                                          [ scene_55 ]
C:/Users/steve/AppData/Local/Temp/_gbsbuild/obj/scene_56_collisions.rel
                                          [ scene_56_collisions ]
C:/Users/steve/AppData/Local/Temp/_gbsbuild/obj/scene_56_init.rel
                                          [ scene_56_init ]
C:/Users/steve/AppData/Local/Temp/_gbsbuild/obj/scene_56.rel
                                          [ scene_56 ]
C:/Users/steve/AppData/Local/Temp/_gbsbuild/obj/scene_57_collisions.rel
                                          [ scene_57_collisions ]
C:/Users/steve/AppData/Local/Temp/_gbsbuild/obj/scene_57_init.rel
                                          [ scene_57_init ]
C:/Users/steve/AppData/Local/Temp/_gbsbuild/obj/scene_57.rel
                                          [ scene_57 ]
C:/Users/steve/AppData/Local/Temp/_gbsbuild/obj/scene_58_collisions.rel
                                          [ scene_58_collisions ]
C:/Users/steve/AppData/Local/Temp/_gbsbuild/obj/scene_58_init.rel
                                          [ scene_58_init ]
C:/Users/steve/AppData/Local/Temp/_gbsbuild/obj/scene_58.rel
                                          [ scene_58 ]
C:/Users/steve/AppData/Local/Temp/_gbsbuild/obj/scene_59_actors.rel
                                          [ scene_59_actors ]
C:/Users/steve/AppData/Local/Temp/_gbsbuild/obj/scene_59_collisions.rel
                                          [ scene_59_collisions ]
C:/Users/steve/AppData/Local/Temp/_gbsbuild/obj/scene_59_init.rel
                                          [ scene_59_init ]
C:/Users/steve/AppData/Local/Temp/_gbsbuild/obj/scene_59_sprites.rel
                                          [ scene_59_sprites ]
C:/Users/steve/AppData/Local/Temp/_gbsbuild/obj/scene_59.rel
                                          [ scene_59 ]
C:/Users/steve/AppData/Local/Temp/_gbsbuild/obj/scene_6_actors.rel
                                          [ scene_6_actors ]
C:/Users/steve/AppData/Local/Temp/_gbsbuild/obj/scene_6_collisions.rel
                                          [ scene_6_collisions ]
C:/Users/steve/AppData/Local/Temp/_gbsbuild/obj/scene_6_init.rel
                                          [ scene_6_init ]
C:/Users/steve/AppData/Local/Temp/_gbsbuild/obj/scene_6_sprites.rel
                                          [ scene_6_sprites ]
C:/Users/steve/AppData/Local/Temp/_gbsbuild/obj/scene_6.rel
                                          [ scene_6 ]
C:/Users/steve/AppData/Local/Temp/_gbsbuild/obj/scene_7_collisions.rel
                                          [ scene_7_collisions ]
C:/Users/steve/AppData/Local/Temp/_gbsbuild/obj/scene_7_init.rel
                                          [ scene_7_init ]
C:/Users/steve/AppData/Local/Temp/_gbsbuild/obj/scene_7.rel
                                          [ scene_7 ]
C:/Users/steve/AppData/Local/Temp/_gbsbuild/obj/scene_8_collisions.rel
                                          [ scene_8_collisions ]
C:/Users/steve/AppData/Local/Temp/_gbsbuild/obj/scene_8_init.rel
                                          [ scene_8_init ]
C:/Users/steve/AppData/Local/Temp/_gbsbuild/obj/scene_8_projectiles.rel
                                          [ scene_8_projectiles ]
C:/Users/steve/AppData/Local/Temp/_gbsbuild/obj/scene_8_sprites.rel
                                          [ scene_8_sprites ]
C:/Users/steve/AppData/Local/Temp/_gbsbuild/obj/scene_8_triggers.rel
                                          [ scene_8_triggers ]
C:/Users/steve/AppData/Local/Temp/_gbsbuild/obj/scene_8.rel
                                          [ scene_8 ]
C:/Users/steve/AppData/Local/Temp/_gbsbuild/obj/scene_9_collisions.rel
                                          [ scene_9_collisions ]
C:/Users/steve/AppData/Local/Temp/_gbsbuild/obj/scene_9_init.rel
                                          [ scene_9_init ]
C:/Users/steve/AppData/Local/Temp/_gbsbuild/obj/scene_9_projectiles.rel
                                          [ scene_9_projectiles ]
C:/Users/steve/AppData/Local/Temp/_gbsbuild/obj/scene_9_sprites.rel
                                          [ scene_9_sprites ]
C:/Users/steve/AppData/Local/Temp/_gbsbuild/obj/scene_9_triggers.rel
                                          [ scene_9_triggers ]
C:/Users/steve/AppData/Local/Temp/_gbsbuild/obj/scene_9.rel
                                          [ scene_9 ]
C:/Users/steve/AppData/Local/Temp/_gbsbuild/obj/script_1.rel
                                          [ script_1 ]
C:/Users/steve/AppData/Local/Temp/_gbsbuild/obj/script_10.rel
                                          [ script_10 ]
C:/Users/steve/AppData/Local/Temp/_gbsbuild/obj/script_11.rel
                                          [ script_11 ]
C:/Users/steve/AppData/Local/Temp/_gbsbuild/obj/script_12.rel
                                          [ script_12 ]
C:/Users/steve/AppData/Local/Temp/_gbsbuild/obj/script_13.rel
                                          [ script_13 ]
C:/Users/steve/AppData/Local/Temp/_gbsbuild/obj/script_14.rel
                                          [ script_14 ]
C:/Users/steve/AppData/Local/Temp/_gbsbuild/obj/script_16.rel
                                          [ script_16 ]
C:/Users/steve/AppData/Local/Temp/_gbsbuild/obj/script_17.rel
                                          [ script_17 ]
C:/Users/steve/AppData/Local/Temp/_gbsbuild/obj/script_2.rel
                                          [ script_2 ]
C:/Users/steve/AppData/Local/Temp/_gbsbuild/obj/script_3.rel
                                          [ script_3 ]
C:/Users/steve/AppData/Local/Temp/_gbsbuild/obj/script_4.rel
                                          [ script_4 ]
C:/Users/steve/AppData/Local/Temp/_gbsbuild/obj/script_5.rel
                                          [ script_5 ]
C:/Users/steve/AppData/Local/Temp/_gbsbuild/obj/script_6.rel
                                          [ script_6 ]
C:/Users/steve/AppData/Local/Temp/_gbsbuild/obj/script_7.rel
                                          [ script_7 ]
C:/Users/steve/AppData/Local/Temp/_gbsbuild/obj/script_8.rel
                                          [ script_8 ]
C:/Users/steve/AppData/Local/Temp/_gbsbuild/obj/script_9.rel
                                          [ script_9 ]
C:/Users/steve/AppData/Local/Temp/_gbsbuild/obj/script_engine_init.rel
                                          [  ]
C:/Users/steve/AppData/Local/Temp/_gbsbuild/obj/script_input_0.rel
                                          [ script_input_0 ]
C:/Users/steve/AppData/Local/Temp/_gbsbuild/obj/script_input_1.rel
                                          [ script_input_1 ]
C:/Users/steve/AppData/Local/Temp/_gbsbuild/obj/script_input_10.rel
                                          [ script_input_10 ]
C:/Users/steve/AppData/Local/Temp/_gbsbuild/obj/script_input_11.rel
                                          [ script_input_11 ]
C:/Users/steve/AppData/Local/Temp/_gbsbuild/obj/script_input_12.rel
                                          [ script_input_12 ]
C:/Users/steve/AppData/Local/Temp/_gbsbuild/obj/script_input_13.rel
                                          [ script_input_13 ]
C:/Users/steve/AppData/Local/Temp/_gbsbuild/obj/script_input_14.rel
                                          [ script_input_14 ]
C:/Users/steve/AppData/Local/Temp/_gbsbuild/obj/script_input_15.rel
                                          [ script_input_15 ]
C:/Users/steve/AppData/Local/Temp/_gbsbuild/obj/script_input_16.rel
                                          [ script_input_16 ]
C:/Users/steve/AppData/Local/Temp/_gbsbuild/obj/script_input_17.rel
                                          [ script_input_17 ]
C:/Users/steve/AppData/Local/Temp/_gbsbuild/obj/script_input_18.rel
                                          [ script_input_18 ]
C:/Users/steve/AppData/Local/Temp/_gbsbuild/obj/script_input_19.rel
                                          [ script_input_19 ]
C:/Users/steve/AppData/Local/Temp/_gbsbuild/obj/script_input_2.rel
                                          [ script_input_2 ]
C:/Users/steve/AppData/Local/Temp/_gbsbuild/obj/script_input_20.rel
                                          [ script_input_20 ]
C:/Users/steve/AppData/Local/Temp/_gbsbuild/obj/script_input_21.rel
                                          [ script_input_21 ]
C:/Users/steve/AppData/Local/Temp/_gbsbuild/obj/script_input_22.rel
                                          [ script_input_22 ]
C:/Users/steve/AppData/Local/Temp/_gbsbuild/obj/script_input_23.rel
                                          [ script_input_23 ]
C:/Users/steve/AppData/Local/Temp/_gbsbuild/obj/script_input_24.rel
                                          [ script_input_24 ]
C:/Users/steve/AppData/Local/Temp/_gbsbuild/obj/script_input_25.rel
                                          [ script_input_25 ]
C:/Users/steve/AppData/Local/Temp/_gbsbuild/obj/script_input_26.rel
                                          [ script_input_26 ]
C:/Users/steve/AppData/Local/Temp/_gbsbuild/obj/script_input_27.rel
                                          [ script_input_27 ]
C:/Users/steve/AppData/Local/Temp/_gbsbuild/obj/script_input_28.rel
                                          [ script_input_28 ]
C:/Users/steve/AppData/Local/Temp/_gbsbuild/obj/script_input_29.rel
                                          [ script_input_29 ]
C:/Users/steve/AppData/Local/Temp/_gbsbuild/obj/script_input_3.rel
                                          [ script_input_3 ]
C:/Users/steve/AppData/Local/Temp/_gbsbuild/obj/script_input_30.rel
                                          [ script_input_30 ]
C:/Users/steve/AppData/Local/Temp/_gbsbuild/obj/script_input_31.rel
                                          [ script_input_31 ]
C:/Users/steve/AppData/Local/Temp/_gbsbuild/obj/script_input_32.rel
                                          [ script_input_32 ]
C:/Users/steve/AppData/Local/Temp/_gbsbuild/obj/script_input_33.rel
                                          [ script_input_33 ]
C:/Users/steve/AppData/Local/Temp/_gbsbuild/obj/script_input_34.rel
                                          [ script_input_34 ]
C:/Users/steve/AppData/Local/Temp/_gbsbuild/obj/script_input_35.rel
                                          [ script_input_35 ]
C:/Users/steve/AppData/Local/Temp/_gbsbuild/obj/script_input_36.rel
                                          [ script_input_36 ]
C:/Users/steve/AppData/Local/Temp/_gbsbuild/obj/script_input_37.rel
                                          [ script_input_37 ]
C:/Users/steve/AppData/Local/Temp/_gbsbuild/obj/script_input_38.rel
                                          [ script_input_38 ]
C:/Users/steve/AppData/Local/Temp/_gbsbuild/obj/script_input_4.rel
                                          [ script_input_4 ]
C:/Users/steve/AppData/Local/Temp/_gbsbuild/obj/script_input_5.rel
                                          [ script_input_5 ]
C:/Users/steve/AppData/Local/Temp/_gbsbuild/obj/script_input_6.rel
                                          [ script_input_6 ]
C:/Users/steve/AppData/Local/Temp/_gbsbuild/obj/script_input_7.rel
                                          [ script_input_7 ]
C:/Users/steve/AppData/Local/Temp/_gbsbuild/obj/script_input_8.rel
                                          [ script_input_8 ]
C:/Users/steve/AppData/Local/Temp/_gbsbuild/obj/script_input_9.rel
                                          [ script_input_9 ]
C:/Users/steve/AppData/Local/Temp/_gbsbuild/obj/script_timer_0.rel
                                          [ script_timer_0 ]
C:/Users/steve/AppData/Local/Temp/_gbsbuild/obj/script_timer_1.rel
                                          [ script_timer_1 ]
C:/Users/steve/AppData/Local/Temp/_gbsbuild/obj/script_timer_10.rel
                                          [ script_timer_10 ]
C:/Users/steve/AppData/Local/Temp/_gbsbuild/obj/script_timer_11.rel
                                          [ script_timer_11 ]
C:/Users/steve/AppData/Local/Temp/_gbsbuild/obj/script_timer_12.rel
                                          [ script_timer_12 ]
C:/Users/steve/AppData/Local/Temp/_gbsbuild/obj/script_timer_13.rel
                                          [ script_timer_13 ]
C:/Users/steve/AppData/Local/Temp/_gbsbuild/obj/script_timer_14.rel
                                          [ script_timer_14 ]
C:/Users/steve/AppData/Local/Temp/_gbsbuild/obj/script_timer_15.rel
                                          [ script_timer_15 ]
C:/Users/steve/AppData/Local/Temp/_gbsbuild/obj/script_timer_16.rel
                                          [ script_timer_16 ]
C:/Users/steve/AppData/Local/Temp/_gbsbuild/obj/script_timer_17.rel
                                          [ script_timer_17 ]
C:/Users/steve/AppData/Local/Temp/_gbsbuild/obj/script_timer_18.rel
                                          [ script_timer_18 ]
C:/Users/steve/AppData/Local/Temp/_gbsbuild/obj/script_timer_19.rel
                                          [ script_timer_19 ]
C:/Users/steve/AppData/Local/Temp/_gbsbuild/obj/script_timer_2.rel
                                          [ script_timer_2 ]
C:/Users/steve/AppData/Local/Temp/_gbsbuild/obj/script_timer_20.rel
                                          [ script_timer_20 ]
C:/Users/steve/AppData/Local/Temp/_gbsbuild/obj/script_timer_21.rel
                                          [ script_timer_21 ]
C:/Users/steve/AppData/Local/Temp/_gbsbuild/obj/script_timer_22.rel
                                          [ script_timer_22 ]
C:/Users/steve/AppData/Local/Temp/_gbsbuild/obj/script_timer_23.rel
                                          [ script_timer_23 ]
C:/Users/steve/AppData/Local/Temp/_gbsbuild/obj/script_timer_24.rel
                                          [ script_timer_24 ]
C:/Users/steve/AppData/Local/Temp/_gbsbuild/obj/script_timer_25.rel
                                          [ script_timer_25 ]
C:/Users/steve/AppData/Local/Temp/_gbsbuild/obj/script_timer_26.rel
                                          [ script_timer_26 ]
C:/Users/steve/AppData/Local/Temp/_gbsbuild/obj/script_timer_27.rel
                                          [ script_timer_27 ]
C:/Users/steve/AppData/Local/Temp/_gbsbuild/obj/script_timer_28.rel
                                          [ script_timer_28 ]
C:/Users/steve/AppData/Local/Temp/_gbsbuild/obj/script_timer_29.rel
                                          [ script_timer_29 ]
C:/Users/steve/AppData/Local/Temp/_gbsbuild/obj/script_timer_3.rel
                                          [ script_timer_3 ]
C:/Users/steve/AppData/Local/Temp/_gbsbuild/obj/script_timer_30.rel
                                          [ script_timer_30 ]
C:/Users/steve/AppData/Local/Temp/_gbsbuild/obj/script_timer_31.rel
                                          [ script_timer_31 ]
C:/Users/steve/AppData/Local/Temp/_gbsbuild/obj/script_timer_32.rel
                                          [ script_timer_32 ]
C:/Users/steve/AppData/Local/Temp/_gbsbuild/obj/script_timer_33.rel
                                          [ script_timer_33 ]
C:/Users/steve/AppData/Local/Temp/_gbsbuild/obj/script_timer_34.rel
                                          [ script_timer_34 ]
C:/Users/steve/AppData/Local/Temp/_gbsbuild/obj/script_timer_35.rel
                                          [ script_timer_35 ]
C:/Users/steve/AppData/Local/Temp/_gbsbuild/obj/script_timer_36.rel
                                          [ script_timer_36 ]
C:/Users/steve/AppData/Local/Temp/_gbsbuild/obj/script_timer_37.rel
                                          [ script_timer_37 ]
C:/Users/steve/AppData/Local/Temp/_gbsbuild/obj/script_timer_38.rel
                                          [ script_timer_38 ]
C:/Users/steve/AppData/Local/Temp/_gbsbuild/obj/script_timer_39.rel
                                          [ script_timer_39 ]
C:/Users/steve/AppData/Local/Temp/_gbsbuild/obj/script_timer_4.rel
                                          [ script_timer_4 ]
C:/Users/steve/AppData/Local/Temp/_gbsbuild/obj/script_timer_40.rel
                                          [ script_timer_40 ]
C:/Users/steve/AppData/Local/Temp/_gbsbuild/obj/script_timer_41.rel
                                          [ script_timer_41 ]
C:/Users/steve/AppData/Local/Temp/_gbsbuild/obj/script_timer_42.rel
                                          [ script_timer_42 ]
C:/Users/steve/AppData/Local/Temp/_gbsbuild/obj/script_timer_43.rel
                                          [ script_timer_43 ]
C:/Users/steve/AppData/Local/Temp/_gbsbuild/obj/script_timer_44.rel
                                          [ script_timer_44 ]
C:/Users/steve/AppData/Local/Temp/_gbsbuild/obj/script_timer_45.rel
                                          [ script_timer_45 ]
C:/Users/steve/AppData/Local/Temp/_gbsbuild/obj/script_timer_46.rel
                                          [ script_timer_46 ]
C:/Users/steve/AppData/Local/Temp/_gbsbuild/obj/script_timer_47.rel
                                          [ script_timer_47 ]
C:/Users/steve/AppData/Local/Temp/_gbsbuild/obj/script_timer_48.rel
                                          [ script_timer_48 ]
C:/Users/steve/AppData/Local/Temp/_gbsbuild/obj/script_timer_49.rel
                                          [ script_timer_49 ]
C:/Users/steve/AppData/Local/Temp/_gbsbuild/obj/script_timer_5.rel
                                          [ script_timer_5 ]
C:/Users/steve/AppData/Local/Temp/_gbsbuild/obj/script_timer_50.rel
                                          [ script_timer_50 ]
C:/Users/steve/AppData/Local/Temp/_gbsbuild/obj/script_timer_51.rel
                                          [ script_timer_51 ]
C:/Users/steve/AppData/Local/Temp/_gbsbuild/obj/script_timer_52.rel
                                          [ script_timer_52 ]
C:/Users/steve/AppData/Local/Temp/_gbsbuild/obj/script_timer_53.rel
                                          [ script_timer_53 ]
C:/Users/steve/AppData/Local/Temp/_gbsbuild/obj/script_timer_54.rel
                                          [ script_timer_54 ]
C:/Users/steve/AppData/Local/Temp/_gbsbuild/obj/script_timer_55.rel
                                          [ script_timer_55 ]
C:/Users/steve/AppData/Local/Temp/_gbsbuild/obj/script_timer_56.rel
                                          [ script_timer_56 ]
C:/Users/steve/AppData/Local/Temp/_gbsbuild/obj/script_timer_57.rel
                                          [ script_timer_57 ]
C:/Users/steve/AppData/Local/Temp/_gbsbuild/obj/script_timer_58.rel
                                          [ script_timer_58 ]
C:/Users/steve/AppData/Local/Temp/_gbsbuild/obj/script_timer_59.rel
                                          [ script_timer_59 ]
C:/Users/steve/AppData/Local/Temp/_gbsbuild/obj/script_timer_6.rel
                                          [ script_timer_6 ]
C:/Users/steve/AppData/Local/Temp/_gbsbuild/obj/script_timer_60.rel
                                          [ script_timer_60 ]
C:/Users/steve/AppData/Local/Temp/_gbsbuild/obj/script_timer_61.rel
                                          [ script_timer_61 ]
C:/Users/steve/AppData/Local/Temp/_gbsbuild/obj/script_timer_62.rel
                                          [ script_timer_62 ]
C:/Users/steve/AppData/Local/Temp/_gbsbuild/obj/script_timer_63.rel
                                          [ script_timer_63 ]
C:/Users/steve/AppData/Local/Temp/_gbsbuild/obj/script_timer_64.rel
                                          [ script_timer_64 ]
C:/Users/steve/AppData/Local/Temp/_gbsbuild/obj/script_timer_65.rel
                                          [ script_timer_65 ]
C:/Users/steve/AppData/Local/Temp/_gbsbuild/obj/script_timer_66.rel
                                          [ script_timer_66 ]
C:/Users/steve/AppData/Local/Temp/_gbsbuild/obj/script_timer_67.rel
                                          [ script_timer_67 ]
C:/Users/steve/AppData/Local/Temp/_gbsbuild/obj/script_timer_68.rel
                                          [ script_timer_68 ]
C:/Users/steve/AppData/Local/Temp/_gbsbuild/obj/script_timer_69.rel
                                          [ script_timer_69 ]
C:/Users/steve/AppData/Local/Temp/_gbsbuild/obj/script_timer_7.rel
                                          [ script_timer_7 ]
C:/Users/steve/AppData/Local/Temp/_gbsbuild/obj/script_timer_70.rel
                                          [ script_timer_70 ]
C:/Users/steve/AppData/Local/Temp/_gbsbuild/obj/script_timer_71.rel
                                          [ script_timer_71 ]
C:/Users/steve/AppData/Local/Temp/_gbsbuild/obj/script_timer_72.rel
                                          [ script_timer_72 ]
C:/Users/steve/AppData/Local/Temp/_gbsbuild/obj/script_timer_73.rel
                                          [ script_timer_73 ]
C:/Users/steve/AppData/Local/Temp/_gbsbuild/obj/script_timer_74.rel
                                          [ script_timer_74 ]
C:/Users/steve/AppData/Local/Temp/_gbsbuild/obj/script_timer_75.rel
                                          [ script_timer_75 ]
C:/Users/steve/AppData/Local/Temp/_gbsbuild/obj/script_timer_76.rel
                                          [ script_timer_76 ]
C:/Users/steve/AppData/Local/Temp/_gbsbuild/obj/script_timer_77.rel
                                          [ script_timer_77 ]
C:/Users/steve/AppData/Local/Temp/_gbsbuild/obj/script_timer_78.rel
                                          [ script_timer_78 ]
C:/Users/steve/AppData/Local/Temp/_gbsbuild/obj/script_timer_79.rel
                                          [ script_timer_79 ]
C:/Users/steve/AppData/Local/Temp/_gbsbuild/obj/script_timer_8.rel
                                          [ script_timer_8 ]
C:/Users/steve/AppData/Local/Temp/_gbsbuild/obj/script_timer_80.rel
                                          [ script_timer_80 ]
C:/Users/steve/AppData/Local/Temp/_gbsbuild/obj/script_timer_81.rel
                                          [ script_timer_81 ]
C:/Users/steve/AppData/Local/Temp/_gbsbuild/obj/script_timer_82.rel
                                          [ script_timer_82 ]
C:/Users/steve/AppData/Local/Temp/_gbsbuild/obj/script_timer_83.rel
                                          [ script_timer_83 ]
C:/Users/steve/AppData/Local/Temp/_gbsbuild/obj/script_timer_84.rel
                                          [ script_timer_84 ]
C:/Users/steve/AppData/Local/Temp/_gbsbuild/obj/script_timer_85.rel
                                          [ script_timer_85 ]
C:/Users/steve/AppData/Local/Temp/_gbsbuild/obj/script_timer_86.rel
                                          [ script_timer_86 ]
C:/Users/steve/AppData/Local/Temp/_gbsbuild/obj/script_timer_87.rel
                                          [ script_timer_87 ]
C:/Users/steve/AppData/Local/Temp/_gbsbuild/obj/script_timer_88.rel
                                          [ script_timer_88 ]
C:/Users/steve/AppData/Local/Temp/_gbsbuild/obj/script_timer_89.rel
                                          [ script_timer_89 ]
C:/Users/steve/AppData/Local/Temp/_gbsbuild/obj/script_timer_9.rel
                                          [ script_timer_9 ]
C:/Users/steve/AppData/Local/Temp/_gbsbuild/obj/script_timer_90.rel
                                          [ script_timer_90 ]
C:/Users/steve/AppData/Local/Temp/_gbsbuild/obj/script_timer_91.rel
                                          [ script_timer_91 ]
C:/Users/steve/AppData/Local/Temp/_gbsbuild/obj/script_timer_92.rel
                                          [ script_timer_92 ]
C:/Users/steve/AppData/Local/Temp/_gbsbuild/obj/script_timer_93.rel
                                          [ script_timer_93 ]
C:/Users/steve/AppData/Local/Temp/_gbsbuild/obj/script_timer_94.rel
                                          [ script_timer_94 ]
C:/Users/steve/AppData/Local/Temp/_gbsbuild/obj/script_timer_95.rel
                                          [ script_timer_95 ]
C:/Users/steve/AppData/Local/Temp/_gbsbuild/obj/script_timer_96.rel
                                          [ script_timer_96 ]
C:/Users/steve/AppData/Local/Temp/_gbsbuild/obj/script_timer_97.rel
                                          [ script_timer_97 ]
C:/Users/steve/AppData/Local/Temp/_gbsbuild/obj/script_timer_98.rel
                                          [ script_timer_98 ]
C:/Users/steve/AppData/Local/Temp/_gbsbuild/obj/sprite_actor_animated_bank2_tileset.rel
                                          [ sprite_actor_animated_bank2_tile ]
C:/Users/steve/AppData/Local/Temp/_gbsbuild/obj/sprite_actor_animated_tileset.rel
                                          [ sprite_actor_animated_tileset ]
C:/Users/steve/AppData/Local/Temp/_gbsbuild/obj/sprite_actor_animated.rel
                                          [ sprite_actor_animated ]
C:/Users/steve/AppData/Local/Temp/_gbsbuild/obj/sprite_bullet_bank2_tileset.rel
                                          [ sprite_bullet_bank2_tileset ]
C:/Users/steve/AppData/Local/Temp/_gbsbuild/obj/sprite_bullet_tileset.rel
                                          [ sprite_bullet_tileset ]
C:/Users/steve/AppData/Local/Temp/_gbsbuild/obj/sprite_bullet.rel
                                          [ sprite_bullet ]
C:/Users/steve/AppData/Local/Temp/_gbsbuild/obj/sprite_cedric_bank2_tileset.rel
                                          [ sprite_cedric_bank2_tileset ]
C:/Users/steve/AppData/Local/Temp/_gbsbuild/obj/sprite_cedric_copy_bank2_tileset.rel
                                          [ sprite_cedric_copy_bank2_tileset ]
C:/Users/steve/AppData/Local/Temp/_gbsbuild/obj/sprite_cedric_copy_tileset.rel
                                          [ sprite_cedric_copy_tileset ]
C:/Users/steve/AppData/Local/Temp/_gbsbuild/obj/sprite_cedric_copy.rel
                                          [ sprite_cedric_copy ]
C:/Users/steve/AppData/Local/Temp/_gbsbuild/obj/sprite_cedric_dust_bank2_tileset.rel
                                          [ sprite_cedric_dust_bank2_tileset ]
C:/Users/steve/AppData/Local/Temp/_gbsbuild/obj/sprite_cedric_dust_tileset.rel
                                          [ sprite_cedric_dust_tileset ]
C:/Users/steve/AppData/Local/Temp/_gbsbuild/obj/sprite_cedric_dust.rel
                                          [ sprite_cedric_dust ]
C:/Users/steve/AppData/Local/Temp/_gbsbuild/obj/sprite_cedric_tileset.rel
                                          [ sprite_cedric_tileset ]
C:/Users/steve/AppData/Local/Temp/_gbsbuild/obj/sprite_cedric.rel
                                          [ sprite_cedric ]
C:/Users/steve/AppData/Local/Temp/_gbsbuild/obj/sprite_ember_dragon_copy_bank2_tileset.rel
                                          [ sprite_ember_dragon_copy_bank2_t ]
C:/Users/steve/AppData/Local/Temp/_gbsbuild/obj/sprite_ember_dragon_copy_tileset.rel
                                          [ sprite_ember_dragon_copy_tileset ]
C:/Users/steve/AppData/Local/Temp/_gbsbuild/obj/sprite_ember_dragon_copy.rel
                                          [ sprite_ember_dragon_copy ]
C:/Users/steve/AppData/Local/Temp/_gbsbuild/obj/sprite_ember_foxphoenix_bank2_tileset.rel
                                          [ sprite_ember_foxphoenix_bank2_ti ]
C:/Users/steve/AppData/Local/Temp/_gbsbuild/obj/sprite_ember_foxphoenix_tileset.rel
                                          [ sprite_ember_foxphoenix_tileset ]
C:/Users/steve/AppData/Local/Temp/_gbsbuild/obj/sprite_ember_foxphoenix.rel
                                          [ sprite_ember_foxphoenix ]
C:/Users/steve/AppData/Local/Temp/_gbsbuild/obj/sprite_ember_phoenix_copy_bank2_tileset.rel
                                          [ sprite_ember_phoenix_copy_bank2_ ]
C:/Users/steve/AppData/Local/Temp/_gbsbuild/obj/sprite_ember_phoenix_copy_tileset.rel
                                          [ sprite_ember_phoenix_copy_tilese ]
C:/Users/steve/AppData/Local/Temp/_gbsbuild/obj/sprite_ember_phoenix_copy.rel
                                          [ sprite_ember_phoenix_copy ]
C:/Users/steve/AppData/Local/Temp/_gbsbuild/obj/sprite_ember_phoenix_topdow_bank2_tileset.rel
                                          [ sprite_ember_phoenix_topdow_bank ]
C:/Users/steve/AppData/Local/Temp/_gbsbuild/obj/sprite_ember_phoenix_topdow_tileset.rel
                                          [ sprite_ember_phoenix_topdow_tile ]
C:/Users/steve/AppData/Local/Temp/_gbsbuild/obj/sprite_ember_phoenix_topdow.rel
                                          [ sprite_ember_phoenix_topdow ]
C:/Users/steve/AppData/Local/Temp/_gbsbuild/obj/sprite_ember_stationary_bank2_tileset.rel
                                          [ sprite_ember_stationary_bank2_ti ]
C:/Users/steve/AppData/Local/Temp/_gbsbuild/obj/sprite_ember_stationary_tileset.rel
                                          [ sprite_ember_stationary_tileset ]
C:/Users/steve/AppData/Local/Temp/_gbsbuild/obj/sprite_ember_stationary.rel
                                          [ sprite_ember_stationary ]
C:/Users/steve/AppData/Local/Temp/_gbsbuild/obj/sprite_feather_bank2_tileset.rel
                                          [ sprite_feather_bank2_tileset ]
C:/Users/steve/AppData/Local/Temp/_gbsbuild/obj/sprite_feather_tileset.rel
                                          [ sprite_feather_tileset ]
C:/Users/steve/AppData/Local/Temp/_gbsbuild/obj/sprite_feather.rel
                                          [ sprite_feather ]
C:/Users/steve/AppData/Local/Temp/_gbsbuild/obj/sprite_flame_whip_bank2_tileset.rel
                                          [ sprite_flame_whip_bank2_tileset ]
C:/Users/steve/AppData/Local/Temp/_gbsbuild/obj/sprite_flame_whip_tileset.rel
                                          [ sprite_flame_whip_tileset ]
C:/Users/steve/AppData/Local/Temp/_gbsbuild/obj/sprite_flame_whip.rel
                                          [ sprite_flame_whip ]
C:/Users/steve/AppData/Local/Temp/_gbsbuild/obj/sprite_flare_static_bank2_tileset.rel
                                          [ sprite_flare_static_bank2_tilese ]
C:/Users/steve/AppData/Local/Temp/_gbsbuild/obj/sprite_flare_static_tileset.rel
                                          [ sprite_flare_static_tileset ]
C:/Users/steve/AppData/Local/Temp/_gbsbuild/obj/sprite_flare_static.rel
                                          [ sprite_flare_static ]
C:/Users/steve/AppData/Local/Temp/_gbsbuild/obj/sprite_foxberry_ui_bank2_tileset.rel
                                          [ sprite_foxberry_ui_bank2_tileset ]
C:/Users/steve/AppData/Local/Temp/_gbsbuild/obj/sprite_foxberry_ui_tileset.rel
                                          [ sprite_foxberry_ui_tileset ]
C:/Users/steve/AppData/Local/Temp/_gbsbuild/obj/sprite_foxberry_ui.rel
                                          [ sprite_foxberry_ui ]
C:/Users/steve/AppData/Local/Temp/_gbsbuild/obj/sprite_jem_animated_0_bank2_tileset.rel
                                          [ sprite_jem_animated_0_bank2_tile ]
C:/Users/steve/AppData/Local/Temp/_gbsbuild/obj/sprite_jem_animated_0_tileset.rel
                                          [ sprite_jem_animated_0_tileset ]
C:/Users/steve/AppData/Local/Temp/_gbsbuild/obj/sprite_jem_animated_0.rel
                                          [ sprite_jem_animated_0 ]
C:/Users/steve/AppData/Local/Temp/_gbsbuild/obj/sprite_jem_animated_bank2_tileset.rel
                                          [ sprite_jem_animated_bank2_tilese ]
C:/Users/steve/AppData/Local/Temp/_gbsbuild/obj/sprite_jem_animated_tileset.rel
                                          [ sprite_jem_animated_tileset ]
C:/Users/steve/AppData/Local/Temp/_gbsbuild/obj/sprite_jem_animated.rel
                                          [ sprite_jem_animated ]
C:/Users/steve/AppData/Local/Temp/_gbsbuild/obj/sprite_lava_tileset.rel
                                          [ sprite_lava_tileset ]
C:/Users/steve/AppData/Local/Temp/_gbsbuild/obj/sprite_lava.rel
                                          [ sprite_lava ]
C:/Users/steve/AppData/Local/Temp/_gbsbuild/obj/sprite_light_animated_copy_bank2_tileset.rel
                                          [ sprite_light_animated_copy_bank2 ]
C:/Users/steve/AppData/Local/Temp/_gbsbuild/obj/sprite_light_animated_copy_tileset.rel
                                          [ sprite_light_animated_copy_tiles ]
C:/Users/steve/AppData/Local/Temp/_gbsbuild/obj/sprite_light_animated_copy.rel
                                          [ sprite_light_animated_copy ]
C:/Users/steve/AppData/Local/Temp/_gbsbuild/obj/sprite_light_key_0_bank2_tileset.rel
                                          [ sprite_light_key_0_bank2_tileset ]
C:/Users/steve/AppData/Local/Temp/_gbsbuild/obj/sprite_light_key_0_tileset.rel
                                          [ sprite_light_key_0_tileset ]
C:/Users/steve/AppData/Local/Temp/_gbsbuild/obj/sprite_light_key_0.rel
                                          [ sprite_light_key_0 ]
C:/Users/steve/AppData/Local/Temp/_gbsbuild/obj/sprite_light_key_bank2_tileset.rel
                                          [ sprite_light_key_bank2_tileset ]
C:/Users/steve/AppData/Local/Temp/_gbsbuild/obj/sprite_light_key_tileset.rel
                                          [ sprite_light_key_tileset ]
C:/Users/steve/AppData/Local/Temp/_gbsbuild/obj/sprite_light_key.rel
                                          [ sprite_light_key ]
C:/Users/steve/AppData/Local/Temp/_gbsbuild/obj/sprite_metal_walls_bank2_tileset.rel
                                          [ sprite_metal_walls_bank2_tileset ]
C:/Users/steve/AppData/Local/Temp/_gbsbuild/obj/sprite_metal_walls_tileset.rel
                                          [ sprite_metal_walls_tileset ]
C:/Users/steve/AppData/Local/Temp/_gbsbuild/obj/sprite_metal_walls.rel
                                          [ sprite_metal_walls ]
C:/Users/steve/AppData/Local/Temp/_gbsbuild/obj/sprite_music_type_bank2_tileset.rel
                                          [ sprite_music_type_bank2_tileset ]
C:/Users/steve/AppData/Local/Temp/_gbsbuild/obj/sprite_music_type_tileset.rel
                                          [ sprite_music_type_tileset ]
C:/Users/steve/AppData/Local/Temp/_gbsbuild/obj/sprite_music_type.rel
                                          [ sprite_music_type ]
C:/Users/steve/AppData/Local/Temp/_gbsbuild/obj/sprite_number_ui_bank2_tileset.rel
                                          [ sprite_number_ui_bank2_tileset ]
C:/Users/steve/AppData/Local/Temp/_gbsbuild/obj/sprite_number_ui_tileset.rel
                                          [ sprite_number_ui_tileset ]
C:/Users/steve/AppData/Local/Temp/_gbsbuild/obj/sprite_number_ui.rel
                                          [ sprite_number_ui ]
C:/Users/steve/AppData/Local/Temp/_gbsbuild/obj/sprite_perlite_animated_bank2_tileset.rel
                                          [ sprite_perlite_animated_bank2_ti ]
C:/Users/steve/AppData/Local/Temp/_gbsbuild/obj/sprite_perlite_animated_tileset.rel
                                          [ sprite_perlite_animated_tileset ]
C:/Users/steve/AppData/Local/Temp/_gbsbuild/obj/sprite_perlite_animated.rel
                                          [ sprite_perlite_animated ]
C:/Users/steve/AppData/Local/Temp/_gbsbuild/obj/sprite_phoenix_cop_copy_bank2_tileset.rel
                                          [ sprite_phoenix_cop_copy_bank2_ti ]
C:/Users/steve/AppData/Local/Temp/_gbsbuild/obj/sprite_phoenix_cop_copy_tileset.rel
                                          [ sprite_phoenix_cop_copy_tileset ]
C:/Users/steve/AppData/Local/Temp/_gbsbuild/obj/sprite_phoenix_cop_copy.rel
                                          [ sprite_phoenix_cop_copy ]
C:/Users/steve/AppData/Local/Temp/_gbsbuild/obj/sprite_poison_bank2_tileset.rel
                                          [ sprite_poison_bank2_tileset ]
C:/Users/steve/AppData/Local/Temp/_gbsbuild/obj/sprite_poison_tileset.rel
                                          [ sprite_poison_tileset ]
C:/Users/steve/AppData/Local/Temp/_gbsbuild/obj/sprite_poison.rel
                                          [ sprite_poison ]
C:/Users/steve/AppData/Local/Temp/_gbsbuild/obj/sprite_potion_ui_bank2_tileset.rel
                                          [ sprite_potion_ui_bank2_tileset ]
C:/Users/steve/AppData/Local/Temp/_gbsbuild/obj/sprite_potion_ui_tileset.rel
                                          [ sprite_potion_ui_tileset ]
C:/Users/steve/AppData/Local/Temp/_gbsbuild/obj/sprite_potion_ui.rel
                                          [ sprite_potion_ui ]
C:/Users/steve/AppData/Local/Temp/_gbsbuild/obj/sprite_sly_slimeball_bank2_tileset.rel
                                          [ sprite_sly_slimeball_bank2_tiles ]
C:/Users/steve/AppData/Local/Temp/_gbsbuild/obj/sprite_sly_slimeball_copy_bank2_tileset.rel
                                          [ sprite_sly_slimeball_copy_bank2_ ]
C:/Users/steve/AppData/Local/Temp/_gbsbuild/obj/sprite_sly_slimeball_copy_tileset.rel
                                          [ sprite_sly_slimeball_copy_tilese ]
C:/Users/steve/AppData/Local/Temp/_gbsbuild/obj/sprite_sly_slimeball_copy.rel
                                          [ sprite_sly_slimeball_copy ]
C:/Users/steve/AppData/Local/Temp/_gbsbuild/obj/sprite_sly_slimeball_tileset.rel
                                          [ sprite_sly_slimeball_tileset ]
C:/Users/steve/AppData/Local/Temp/_gbsbuild/obj/sprite_sly_slimeball.rel
                                          [ sprite_sly_slimeball ]
C:/Users/steve/AppData/Local/Temp/_gbsbuild/obj/sprite_speed_selection_bank2_tileset.rel
                                          [ sprite_speed_selection_bank2_til ]
C:/Users/steve/AppData/Local/Temp/_gbsbuild/obj/sprite_speed_selection_tileset.rel
                                          [ sprite_speed_selection_tileset ]
C:/Users/steve/AppData/Local/Temp/_gbsbuild/obj/sprite_speed_selection.rel
                                          [ sprite_speed_selection ]
C:/Users/steve/AppData/Local/Temp/_gbsbuild/obj/sprite_swordattack_bank2_tileset.rel
                                          [ sprite_swordattack_bank2_tileset ]
C:/Users/steve/AppData/Local/Temp/_gbsbuild/obj/sprite_swordattack_tileset.rel
                                          [ sprite_swordattack_tileset ]
C:/Users/steve/AppData/Local/Temp/_gbsbuild/obj/sprite_swordattack.rel
                                          [ sprite_swordattack ]
C:/Users/steve/AppData/Local/Temp/_gbsbuild/obj/sprite_toxic_tileset.rel
                                          [ sprite_toxic_tileset ]
C:/Users/steve/AppData/Local/Temp/_gbsbuild/obj/sprite_toxic.rel
                                          [ sprite_toxic ]
C:/Users/steve/AppData/Local/Temp/_gbsbuild/obj/sprite_transparent.rel
                                          [ sprite_transparent ]
C:/Users/steve/AppData/Local/Temp/_gbsbuild/obj/sprite_unknown_key_copy_2__bank2_tileset.rel
                                          [ sprite_unknown_key_copy_2__bank2 ]
C:/Users/steve/AppData/Local/Temp/_gbsbuild/obj/sprite_unknown_key_copy_2__tileset.rel
                                          [ sprite_unknown_key_copy_2__tiles ]
C:/Users/steve/AppData/Local/Temp/_gbsbuild/obj/sprite_unknown_key_copy_2_.rel
                                          [ sprite_unknown_key_copy_2_ ]
C:/Users/steve/AppData/Local/Temp/_gbsbuild/obj/sprite_unknown_key_copy_bank2_tileset.rel
                                          [ sprite_unknown_key_copy_bank2_ti ]
C:/Users/steve/AppData/Local/Temp/_gbsbuild/obj/sprite_unknown_key_copy_tileset.rel
                                          [ sprite_unknown_key_copy_tileset ]
C:/Users/steve/AppData/Local/Temp/_gbsbuild/obj/sprite_unknown_key_copy.rel
                                          [ sprite_unknown_key_copy ]
C:/Users/steve/AppData/Local/Temp/_gbsbuild/obj/sprite_water_tileset.rel
                                          [ sprite_water_tileset ]
C:/Users/steve/AppData/Local/Temp/_gbsbuild/obj/sprite_water.rel
                                          [ sprite_water ]
C:/Users/steve/AppData/Local/Temp/_gbsbuild/obj/spritesheet_none.rel
                                          [ spritesheet_none ]
C:/Users/steve/AppData/Local/Temp/_gbsbuild/obj/tileset_hud_ui.rel
                                          [ tileset_hud_ui ]
C:/Users/steve/AppData/Local/Temp/_gbsbuild/obj/trigger_0_interact.rel
                                          [ trigger_0_interact ]
C:/Users/steve/AppData/Local/Temp/_gbsbuild/obj/trigger_1_interact.rel
                                          [ trigger_1_interact ]
C:/Users/steve/AppData/Local/Temp/_gbsbuild/obj/trigger_10_interact.rel
                                          [ trigger_10_interact ]
C:/Users/steve/AppData/Local/Temp/_gbsbuild/obj/trigger_100_interact.rel
                                          [ trigger_100_interact ]
C:/Users/steve/AppData/Local/Temp/_gbsbuild/obj/trigger_101_interact.rel
                                          [ trigger_101_interact ]
C:/Users/steve/AppData/Local/Temp/_gbsbuild/obj/trigger_102_interact.rel
                                          [ trigger_102_interact ]
C:/Users/steve/AppData/Local/Temp/_gbsbuild/obj/trigger_103_interact.rel
                                          [ trigger_103_interact ]
C:/Users/steve/AppData/Local/Temp/_gbsbuild/obj/trigger_104_interact.rel
                                          [ trigger_104_interact ]
C:/Users/steve/AppData/Local/Temp/_gbsbuild/obj/trigger_105_interact.rel
                                          [ trigger_105_interact ]
C:/Users/steve/AppData/Local/Temp/_gbsbuild/obj/trigger_106_interact.rel
                                          [ trigger_106_interact ]
C:/Users/steve/AppData/Local/Temp/_gbsbuild/obj/trigger_107_interact.rel
                                          [ trigger_107_interact ]
C:/Users/steve/AppData/Local/Temp/_gbsbuild/obj/trigger_108_interact.rel
                                          [ trigger_108_interact ]
C:/Users/steve/AppData/Local/Temp/_gbsbuild/obj/trigger_109_interact.rel
                                          [ trigger_109_interact ]
C:/Users/steve/AppData/Local/Temp/_gbsbuild/obj/trigger_11_interact.rel
                                          [ trigger_11_interact ]
C:/Users/steve/AppData/Local/Temp/_gbsbuild/obj/trigger_110_interact.rel
                                          [ trigger_110_interact ]
C:/Users/steve/AppData/Local/Temp/_gbsbuild/obj/trigger_111_interact.rel
                                          [ trigger_111_interact ]
C:/Users/steve/AppData/Local/Temp/_gbsbuild/obj/trigger_112_interact.rel
                                          [ trigger_112_interact ]
C:/Users/steve/AppData/Local/Temp/_gbsbuild/obj/trigger_113_interact.rel
                                          [ trigger_113_interact ]
C:/Users/steve/AppData/Local/Temp/_gbsbuild/obj/trigger_114_interact.rel
                                          [ trigger_114_interact ]
C:/Users/steve/AppData/Local/Temp/_gbsbuild/obj/trigger_115_interact.rel
                                          [ trigger_115_interact ]
C:/Users/steve/AppData/Local/Temp/_gbsbuild/obj/trigger_116_interact.rel
                                          [ trigger_116_interact ]
C:/Users/steve/AppData/Local/Temp/_gbsbuild/obj/trigger_117_interact.rel
                                          [ trigger_117_interact ]
C:/Users/steve/AppData/Local/Temp/_gbsbuild/obj/trigger_118_interact.rel
                                          [ trigger_118_interact ]
C:/Users/steve/AppData/Local/Temp/_gbsbuild/obj/trigger_119_interact.rel
                                          [ trigger_119_interact ]
C:/Users/steve/AppData/Local/Temp/_gbsbuild/obj/trigger_12_interact.rel
                                          [ trigger_12_interact ]
C:/Users/steve/AppData/Local/Temp/_gbsbuild/obj/trigger_120_interact.rel
                                          [ trigger_120_interact ]
C:/Users/steve/AppData/Local/Temp/_gbsbuild/obj/trigger_121_interact.rel
                                          [ trigger_121_interact ]
C:/Users/steve/AppData/Local/Temp/_gbsbuild/obj/trigger_122_interact.rel
                                          [ trigger_122_interact ]
C:/Users/steve/AppData/Local/Temp/_gbsbuild/obj/trigger_123_interact.rel
                                          [ trigger_123_interact ]
C:/Users/steve/AppData/Local/Temp/_gbsbuild/obj/trigger_124_interact.rel
                                          [ trigger_124_interact ]
C:/Users/steve/AppData/Local/Temp/_gbsbuild/obj/trigger_125_interact.rel
                                          [ trigger_125_interact ]
C:/Users/steve/AppData/Local/Temp/_gbsbuild/obj/trigger_126_interact.rel
                                          [ trigger_126_interact ]
C:/Users/steve/AppData/Local/Temp/_gbsbuild/obj/trigger_127_interact.rel
                                          [ trigger_127_interact ]
C:/Users/steve/AppData/Local/Temp/_gbsbuild/obj/trigger_128_interact.rel
                                          [ trigger_128_interact ]
C:/Users/steve/AppData/Local/Temp/_gbsbuild/obj/trigger_129_interact.rel
                                          [ trigger_129_interact ]
C:/Users/steve/AppData/Local/Temp/_gbsbuild/obj/trigger_13_interact.rel
                                          [ trigger_13_interact ]
C:/Users/steve/AppData/Local/Temp/_gbsbuild/obj/trigger_130_interact.rel
                                          [ trigger_130_interact ]
C:/Users/steve/AppData/Local/Temp/_gbsbuild/obj/trigger_131_interact.rel
                                          [ trigger_131_interact ]
C:/Users/steve/AppData/Local/Temp/_gbsbuild/obj/trigger_132_interact.rel
                                          [ trigger_132_interact ]
C:/Users/steve/AppData/Local/Temp/_gbsbuild/obj/trigger_133_interact.rel
                                          [ trigger_133_interact ]
C:/Users/steve/AppData/Local/Temp/_gbsbuild/obj/trigger_134_interact.rel
                                          [ trigger_134_interact ]
C:/Users/steve/AppData/Local/Temp/_gbsbuild/obj/trigger_135_interact.rel
                                          [ trigger_135_interact ]
C:/Users/steve/AppData/Local/Temp/_gbsbuild/obj/trigger_136_interact.rel
                                          [ trigger_136_interact ]
C:/Users/steve/AppData/Local/Temp/_gbsbuild/obj/trigger_137_interact.rel
                                          [ trigger_137_interact ]
C:/Users/steve/AppData/Local/Temp/_gbsbuild/obj/trigger_138_interact.rel
                                          [ trigger_138_interact ]
C:/Users/steve/AppData/Local/Temp/_gbsbuild/obj/trigger_139_interact.rel
                                          [ trigger_139_interact ]
C:/Users/steve/AppData/Local/Temp/_gbsbuild/obj/trigger_14_interact.rel
                                          [ trigger_14_interact ]
C:/Users/steve/AppData/Local/Temp/_gbsbuild/obj/trigger_140_interact.rel
                                          [ trigger_140_interact ]
C:/Users/steve/AppData/Local/Temp/_gbsbuild/obj/trigger_141_interact.rel
                                          [ trigger_141_interact ]
C:/Users/steve/AppData/Local/Temp/_gbsbuild/obj/trigger_142_interact.rel
                                          [ trigger_142_interact ]
C:/Users/steve/AppData/Local/Temp/_gbsbuild/obj/trigger_143_interact.rel
                                          [ trigger_143_interact ]
C:/Users/steve/AppData/Local/Temp/_gbsbuild/obj/trigger_144_interact.rel
                                          [ trigger_144_interact ]
C:/Users/steve/AppData/Local/Temp/_gbsbuild/obj/trigger_145_interact.rel
                                          [ trigger_145_interact ]
C:/Users/steve/AppData/Local/Temp/_gbsbuild/obj/trigger_146_interact.rel
                                          [ trigger_146_interact ]
C:/Users/steve/AppData/Local/Temp/_gbsbuild/obj/trigger_147_interact.rel
                                          [ trigger_147_interact ]
C:/Users/steve/AppData/Local/Temp/_gbsbuild/obj/trigger_148_interact.rel
                                          [ trigger_148_interact ]
C:/Users/steve/AppData/Local/Temp/_gbsbuild/obj/trigger_149_interact.rel
                                          [ trigger_149_interact ]
C:/Users/steve/AppData/Local/Temp/_gbsbuild/obj/trigger_15_interact.rel
                                          [ trigger_15_interact ]
C:/Users/steve/AppData/Local/Temp/_gbsbuild/obj/trigger_150_interact.rel
                                          [ trigger_150_interact ]
C:/Users/steve/AppData/Local/Temp/_gbsbuild/obj/trigger_151_interact.rel
                                          [ trigger_151_interact ]
C:/Users/steve/AppData/Local/Temp/_gbsbuild/obj/trigger_152_interact.rel
                                          [ trigger_152_interact ]
C:/Users/steve/AppData/Local/Temp/_gbsbuild/obj/trigger_153_interact.rel
                                          [ trigger_153_interact ]
C:/Users/steve/AppData/Local/Temp/_gbsbuild/obj/trigger_154_interact.rel
                                          [ trigger_154_interact ]
C:/Users/steve/AppData/Local/Temp/_gbsbuild/obj/trigger_155_interact.rel
                                          [ trigger_155_interact ]
C:/Users/steve/AppData/Local/Temp/_gbsbuild/obj/trigger_156_interact.rel
                                          [ trigger_156_interact ]
C:/Users/steve/AppData/Local/Temp/_gbsbuild/obj/trigger_157_interact.rel
                                          [ trigger_157_interact ]
C:/Users/steve/AppData/Local/Temp/_gbsbuild/obj/trigger_158_interact.rel
                                          [ trigger_158_interact ]
C:/Users/steve/AppData/Local/Temp/_gbsbuild/obj/trigger_159_interact.rel
                                          [ trigger_159_interact ]
C:/Users/steve/AppData/Local/Temp/_gbsbuild/obj/trigger_16_interact.rel
                                          [ trigger_16_interact ]
C:/Users/steve/AppData/Local/Temp/_gbsbuild/obj/trigger_160_interact.rel
                                          [ trigger_160_interact ]
C:/Users/steve/AppData/Local/Temp/_gbsbuild/obj/trigger_161_interact.rel
                                          [ trigger_161_interact ]
C:/Users/steve/AppData/Local/Temp/_gbsbuild/obj/trigger_162_interact.rel
                                          [ trigger_162_interact ]
C:/Users/steve/AppData/Local/Temp/_gbsbuild/obj/trigger_163_interact.rel
                                          [ trigger_163_interact ]
C:/Users/steve/AppData/Local/Temp/_gbsbuild/obj/trigger_164_interact.rel
                                          [ trigger_164_interact ]
C:/Users/steve/AppData/Local/Temp/_gbsbuild/obj/trigger_165_interact.rel
                                          [ trigger_165_interact ]
C:/Users/steve/AppData/Local/Temp/_gbsbuild/obj/trigger_166_interact.rel
                                          [ trigger_166_interact ]
C:/Users/steve/AppData/Local/Temp/_gbsbuild/obj/trigger_167_interact.rel
                                          [ trigger_167_interact ]
C:/Users/steve/AppData/Local/Temp/_gbsbuild/obj/trigger_168_interact.rel
                                          [ trigger_168_interact ]
C:/Users/steve/AppData/Local/Temp/_gbsbuild/obj/trigger_169_interact.rel
                                          [ trigger_169_interact ]
C:/Users/steve/AppData/Local/Temp/_gbsbuild/obj/trigger_17_interact.rel
                                          [ trigger_17_interact ]
C:/Users/steve/AppData/Local/Temp/_gbsbuild/obj/trigger_170_interact.rel
                                          [ trigger_170_interact ]
C:/Users/steve/AppData/Local/Temp/_gbsbuild/obj/trigger_171_interact.rel
                                          [ trigger_171_interact ]
C:/Users/steve/AppData/Local/Temp/_gbsbuild/obj/trigger_172_interact.rel
                                          [ trigger_172_interact ]
C:/Users/steve/AppData/Local/Temp/_gbsbuild/obj/trigger_173_interact.rel
                                          [ trigger_173_interact ]
C:/Users/steve/AppData/Local/Temp/_gbsbuild/obj/trigger_174_interact.rel
                                          [ trigger_174_interact ]
C:/Users/steve/AppData/Local/Temp/_gbsbuild/obj/trigger_175_interact.rel
                                          [ trigger_175_interact ]
C:/Users/steve/AppData/Local/Temp/_gbsbuild/obj/trigger_176_interact.rel
                                          [ trigger_176_interact ]
C:/Users/steve/AppData/Local/Temp/_gbsbuild/obj/trigger_177_interact.rel
                                          [ trigger_177_interact ]
C:/Users/steve/AppData/Local/Temp/_gbsbuild/obj/trigger_178_interact.rel
                                          [ trigger_178_interact ]
C:/Users/steve/AppData/Local/Temp/_gbsbuild/obj/trigger_179_interact.rel
                                          [ trigger_179_interact ]
C:/Users/steve/AppData/Local/Temp/_gbsbuild/obj/trigger_18_interact.rel
                                          [ trigger_18_interact ]
C:/Users/steve/AppData/Local/Temp/_gbsbuild/obj/trigger_180_interact.rel
                                          [ trigger_180_interact ]
C:/Users/steve/AppData/Local/Temp/_gbsbuild/obj/trigger_181_interact.rel
                                          [ trigger_181_interact ]
C:/Users/steve/AppData/Local/Temp/_gbsbuild/obj/trigger_182_interact.rel
                                          [ trigger_182_interact ]
C:/Users/steve/AppData/Local/Temp/_gbsbuild/obj/trigger_183_interact.rel
                                          [ trigger_183_interact ]
C:/Users/steve/AppData/Local/Temp/_gbsbuild/obj/trigger_184_interact.rel
                                          [ trigger_184_interact ]
C:/Users/steve/AppData/Local/Temp/_gbsbuild/obj/trigger_185_interact.rel
                                          [ trigger_185_interact ]
C:/Users/steve/AppData/Local/Temp/_gbsbuild/obj/trigger_186_interact.rel
                                          [ trigger_186_interact ]
C:/Users/steve/AppData/Local/Temp/_gbsbuild/obj/trigger_187_interact.rel
                                          [ trigger_187_interact ]
C:/Users/steve/AppData/Local/Temp/_gbsbuild/obj/trigger_188_interact.rel
                                          [ trigger_188_interact ]
C:/Users/steve/AppData/Local/Temp/_gbsbuild/obj/trigger_189_interact.rel
                                          [ trigger_189_interact ]
C:/Users/steve/AppData/Local/Temp/_gbsbuild/obj/trigger_19_interact.rel
                                          [ trigger_19_interact ]
C:/Users/steve/AppData/Local/Temp/_gbsbuild/obj/trigger_190_interact.rel
                                          [ trigger_190_interact ]
C:/Users/steve/AppData/Local/Temp/_gbsbuild/obj/trigger_191_interact.rel
                                          [ trigger_191_interact ]
C:/Users/steve/AppData/Local/Temp/_gbsbuild/obj/trigger_192_interact.rel
                                          [ trigger_192_interact ]
C:/Users/steve/AppData/Local/Temp/_gbsbuild/obj/trigger_193_interact.rel
                                          [ trigger_193_interact ]
C:/Users/steve/AppData/Local/Temp/_gbsbuild/obj/trigger_194_interact.rel
                                          [ trigger_194_interact ]
C:/Users/steve/AppData/Local/Temp/_gbsbuild/obj/trigger_195_interact.rel
                                          [ trigger_195_interact ]
C:/Users/steve/AppData/Local/Temp/_gbsbuild/obj/trigger_196_interact.rel
                                          [ trigger_196_interact ]
C:/Users/steve/AppData/Local/Temp/_gbsbuild/obj/trigger_197_interact.rel
                                          [ trigger_197_interact ]
C:/Users/steve/AppData/Local/Temp/_gbsbuild/obj/trigger_198_interact.rel
                                          [ trigger_198_interact ]
C:/Users/steve/AppData/Local/Temp/_gbsbuild/obj/trigger_199_interact.rel
                                          [ trigger_199_interact ]
C:/Users/steve/AppData/Local/Temp/_gbsbuild/obj/trigger_2_interact.rel
                                          [ trigger_2_interact ]
C:/Users/steve/AppData/Local/Temp/_gbsbuild/obj/trigger_20_interact.rel
                                          [ trigger_20_interact ]
C:/Users/steve/AppData/Local/Temp/_gbsbuild/obj/trigger_200_interact.rel
                                          [ trigger_200_interact ]
C:/Users/steve/AppData/Local/Temp/_gbsbuild/obj/trigger_201_interact.rel
                                          [ trigger_201_interact ]
C:/Users/steve/AppData/Local/Temp/_gbsbuild/obj/trigger_202_interact.rel
                                          [ trigger_202_interact ]
C:/Users/steve/AppData/Local/Temp/_gbsbuild/obj/trigger_203_interact.rel
                                          [ trigger_203_interact ]
C:/Users/steve/AppData/Local/Temp/_gbsbuild/obj/trigger_204_interact.rel
                                          [ trigger_204_interact ]
C:/Users/steve/AppData/Local/Temp/_gbsbuild/obj/trigger_205_interact.rel
                                          [ trigger_205_interact ]
C:/Users/steve/AppData/Local/Temp/_gbsbuild/obj/trigger_206_interact.rel
                                          [ trigger_206_interact ]
C:/Users/steve/AppData/Local/Temp/_gbsbuild/obj/trigger_207_interact.rel
                                          [ trigger_207_interact ]
C:/Users/steve/AppData/Local/Temp/_gbsbuild/obj/trigger_208_interact.rel
                                          [ trigger_208_interact ]
C:/Users/steve/AppData/Local/Temp/_gbsbuild/obj/trigger_209_interact.rel
                                          [ trigger_209_interact ]
C:/Users/steve/AppData/Local/Temp/_gbsbuild/obj/trigger_21_interact.rel
                                          [ trigger_21_interact ]
C:/Users/steve/AppData/Local/Temp/_gbsbuild/obj/trigger_210_interact.rel
                                          [ trigger_210_interact ]
C:/Users/steve/AppData/Local/Temp/_gbsbuild/obj/trigger_211_interact.rel
                                          [ trigger_211_interact ]
C:/Users/steve/AppData/Local/Temp/_gbsbuild/obj/trigger_212_interact.rel
                                          [ trigger_212_interact ]
C:/Users/steve/AppData/Local/Temp/_gbsbuild/obj/trigger_213_interact.rel
                                          [ trigger_213_interact ]
C:/Users/steve/AppData/Local/Temp/_gbsbuild/obj/trigger_214_interact.rel
                                          [ trigger_214_interact ]
C:/Users/steve/AppData/Local/Temp/_gbsbuild/obj/trigger_215_interact.rel
                                          [ trigger_215_interact ]
C:/Users/steve/AppData/Local/Temp/_gbsbuild/obj/trigger_216_interact.rel
                                          [ trigger_216_interact ]
C:/Users/steve/AppData/Local/Temp/_gbsbuild/obj/trigger_217_interact.rel
                                          [ trigger_217_interact ]
C:/Users/steve/AppData/Local/Temp/_gbsbuild/obj/trigger_218_interact.rel
                                          [ trigger_218_interact ]
C:/Users/steve/AppData/Local/Temp/_gbsbuild/obj/trigger_219_interact.rel
                                          [ trigger_219_interact ]
C:/Users/steve/AppData/Local/Temp/_gbsbuild/obj/trigger_22_interact.rel
                                          [ trigger_22_interact ]
C:/Users/steve/AppData/Local/Temp/_gbsbuild/obj/trigger_220_interact.rel
                                          [ trigger_220_interact ]
C:/Users/steve/AppData/Local/Temp/_gbsbuild/obj/trigger_221_interact.rel
                                          [ trigger_221_interact ]
C:/Users/steve/AppData/Local/Temp/_gbsbuild/obj/trigger_222_interact.rel
                                          [ trigger_222_interact ]
C:/Users/steve/AppData/Local/Temp/_gbsbuild/obj/trigger_223_interact.rel
                                          [ trigger_223_interact ]
C:/Users/steve/AppData/Local/Temp/_gbsbuild/obj/trigger_224_interact.rel
                                          [ trigger_224_interact ]
C:/Users/steve/AppData/Local/Temp/_gbsbuild/obj/trigger_225_interact.rel
                                          [ trigger_225_interact ]
C:/Users/steve/AppData/Local/Temp/_gbsbuild/obj/trigger_226_interact.rel
                                          [ trigger_226_interact ]
C:/Users/steve/AppData/Local/Temp/_gbsbuild/obj/trigger_227_interact.rel
                                          [ trigger_227_interact ]
C:/Users/steve/AppData/Local/Temp/_gbsbuild/obj/trigger_228_interact.rel
                                          [ trigger_228_interact ]
C:/Users/steve/AppData/Local/Temp/_gbsbuild/obj/trigger_229_interact.rel
                                          [ trigger_229_interact ]
C:/Users/steve/AppData/Local/Temp/_gbsbuild/obj/trigger_23_interact.rel
                                          [ trigger_23_interact ]
C:/Users/steve/AppData/Local/Temp/_gbsbuild/obj/trigger_230_interact.rel
                                          [ trigger_230_interact ]
C:/Users/steve/AppData/Local/Temp/_gbsbuild/obj/trigger_231_interact.rel
                                          [ trigger_231_interact ]
C:/Users/steve/AppData/Local/Temp/_gbsbuild/obj/trigger_232_interact.rel
                                          [ trigger_232_interact ]
C:/Users/steve/AppData/Local/Temp/_gbsbuild/obj/trigger_233_interact.rel
                                          [ trigger_233_interact ]
C:/Users/steve/AppData/Local/Temp/_gbsbuild/obj/trigger_24_interact.rel
                                          [ trigger_24_interact ]
C:/Users/steve/AppData/Local/Temp/_gbsbuild/obj/trigger_25_interact.rel
                                          [ trigger_25_interact ]
C:/Users/steve/AppData/Local/Temp/_gbsbuild/obj/trigger_26_interact.rel
                                          [ trigger_26_interact ]
C:/Users/steve/AppData/Local/Temp/_gbsbuild/obj/trigger_27_interact.rel
                                          [ trigger_27_interact ]
C:/Users/steve/AppData/Local/Temp/_gbsbuild/obj/trigger_28_interact.rel
                                          [ trigger_28_interact ]
C:/Users/steve/AppData/Local/Temp/_gbsbuild/obj/trigger_29_interact.rel
                                          [ trigger_29_interact ]
C:/Users/steve/AppData/Local/Temp/_gbsbuild/obj/trigger_3_interact.rel
                                          [ trigger_3_interact ]
C:/Users/steve/AppData/Local/Temp/_gbsbuild/obj/trigger_30_interact.rel
                                          [ trigger_30_interact ]
C:/Users/steve/AppData/Local/Temp/_gbsbuild/obj/trigger_31_interact.rel
                                          [ trigger_31_interact ]
C:/Users/steve/AppData/Local/Temp/_gbsbuild/obj/trigger_32_interact.rel
                                          [ trigger_32_interact ]
C:/Users/steve/AppData/Local/Temp/_gbsbuild/obj/trigger_33_interact.rel
                                          [ trigger_33_interact ]
C:/Users/steve/AppData/Local/Temp/_gbsbuild/obj/trigger_34_interact.rel
                                          [ trigger_34_interact ]
C:/Users/steve/AppData/Local/Temp/_gbsbuild/obj/trigger_35_interact.rel
                                          [ trigger_35_interact ]
C:/Users/steve/AppData/Local/Temp/_gbsbuild/obj/trigger_36_interact.rel
                                          [ trigger_36_interact ]
C:/Users/steve/AppData/Local/Temp/_gbsbuild/obj/trigger_37_interact.rel
                                          [ trigger_37_interact ]
C:/Users/steve/AppData/Local/Temp/_gbsbuild/obj/trigger_38_interact.rel
                                          [ trigger_38_interact ]
C:/Users/steve/AppData/Local/Temp/_gbsbuild/obj/trigger_39_interact.rel
                                          [ trigger_39_interact ]
C:/Users/steve/AppData/Local/Temp/_gbsbuild/obj/trigger_4_interact.rel
                                          [ trigger_4_interact ]
C:/Users/steve/AppData/Local/Temp/_gbsbuild/obj/trigger_40_interact.rel
                                          [ trigger_40_interact ]
C:/Users/steve/AppData/Local/Temp/_gbsbuild/obj/trigger_41_interact.rel
                                          [ trigger_41_interact ]
C:/Users/steve/AppData/Local/Temp/_gbsbuild/obj/trigger_42_interact.rel
                                          [ trigger_42_interact ]
C:/Users/steve/AppData/Local/Temp/_gbsbuild/obj/trigger_43_interact.rel
                                          [ trigger_43_interact ]
C:/Users/steve/AppData/Local/Temp/_gbsbuild/obj/trigger_44_interact.rel
                                          [ trigger_44_interact ]
C:/Users/steve/AppData/Local/Temp/_gbsbuild/obj/trigger_45_interact.rel
                                          [ trigger_45_interact ]
C:/Users/steve/AppData/Local/Temp/_gbsbuild/obj/trigger_46_interact.rel
                                          [ trigger_46_interact ]
C:/Users/steve/AppData/Local/Temp/_gbsbuild/obj/trigger_47_interact.rel
                                          [ trigger_47_interact ]
C:/Users/steve/AppData/Local/Temp/_gbsbuild/obj/trigger_48_interact.rel
                                          [ trigger_48_interact ]
C:/Users/steve/AppData/Local/Temp/_gbsbuild/obj/trigger_49_interact.rel
                                          [ trigger_49_interact ]
C:/Users/steve/AppData/Local/Temp/_gbsbuild/obj/trigger_5_interact.rel
                                          [ trigger_5_interact ]
C:/Users/steve/AppData/Local/Temp/_gbsbuild/obj/trigger_50_interact.rel
                                          [ trigger_50_interact ]
C:/Users/steve/AppData/Local/Temp/_gbsbuild/obj/trigger_51_interact.rel
                                          [ trigger_51_interact ]
C:/Users/steve/AppData/Local/Temp/_gbsbuild/obj/trigger_52_interact.rel
                                          [ trigger_52_interact ]
C:/Users/steve/AppData/Local/Temp/_gbsbuild/obj/trigger_53_interact.rel
                                          [ trigger_53_interact ]
C:/Users/steve/AppData/Local/Temp/_gbsbuild/obj/trigger_54_interact.rel
                                          [ trigger_54_interact ]
C:/Users/steve/AppData/Local/Temp/_gbsbuild/obj/trigger_55_interact.rel
                                          [ trigger_55_interact ]
C:/Users/steve/AppData/Local/Temp/_gbsbuild/obj/trigger_56_interact.rel
                                          [ trigger_56_interact ]
C:/Users/steve/AppData/Local/Temp/_gbsbuild/obj/trigger_57_interact.rel
                                          [ trigger_57_interact ]
C:/Users/steve/AppData/Local/Temp/_gbsbuild/obj/trigger_58_interact.rel
                                          [ trigger_58_interact ]
C:/Users/steve/AppData/Local/Temp/_gbsbuild/obj/trigger_59_interact.rel
                                          [ trigger_59_interact ]
C:/Users/steve/AppData/Local/Temp/_gbsbuild/obj/trigger_6_interact.rel
                                          [ trigger_6_interact ]
C:/Users/steve/AppData/Local/Temp/_gbsbuild/obj/trigger_60_interact.rel
                                          [ trigger_60_interact ]
C:/Users/steve/AppData/Local/Temp/_gbsbuild/obj/trigger_61_interact.rel
                                          [ trigger_61_interact ]
C:/Users/steve/AppData/Local/Temp/_gbsbuild/obj/trigger_62_interact.rel
                                          [ trigger_62_interact ]
C:/Users/steve/AppData/Local/Temp/_gbsbuild/obj/trigger_63_interact.rel
                                          [ trigger_63_interact ]
C:/Users/steve/AppData/Local/Temp/_gbsbuild/obj/trigger_64_interact.rel
                                          [ trigger_64_interact ]
C:/Users/steve/AppData/Local/Temp/_gbsbuild/obj/trigger_65_interact.rel
                                          [ trigger_65_interact ]
C:/Users/steve/AppData/Local/Temp/_gbsbuild/obj/trigger_66_interact.rel
                                          [ trigger_66_interact ]
C:/Users/steve/AppData/Local/Temp/_gbsbuild/obj/trigger_67_interact.rel
                                          [ trigger_67_interact ]
C:/Users/steve/AppData/Local/Temp/_gbsbuild/obj/trigger_68_interact.rel
                                          [ trigger_68_interact ]
C:/Users/steve/AppData/Local/Temp/_gbsbuild/obj/trigger_69_interact.rel
                                          [ trigger_69_interact ]
C:/Users/steve/AppData/Local/Temp/_gbsbuild/obj/trigger_7_interact.rel
                                          [ trigger_7_interact ]
C:/Users/steve/AppData/Local/Temp/_gbsbuild/obj/trigger_70_interact.rel
                                          [ trigger_70_interact ]
C:/Users/steve/AppData/Local/Temp/_gbsbuild/obj/trigger_71_interact.rel
                                          [ trigger_71_interact ]
C:/Users/steve/AppData/Local/Temp/_gbsbuild/obj/trigger_72_interact.rel
                                          [ trigger_72_interact ]
C:/Users/steve/AppData/Local/Temp/_gbsbuild/obj/trigger_73_interact.rel
                                          [ trigger_73_interact ]
C:/Users/steve/AppData/Local/Temp/_gbsbuild/obj/trigger_74_interact.rel
                                          [ trigger_74_interact ]
C:/Users/steve/AppData/Local/Temp/_gbsbuild/obj/trigger_75_interact.rel
                                          [ trigger_75_interact ]
C:/Users/steve/AppData/Local/Temp/_gbsbuild/obj/trigger_76_interact.rel
                                          [ trigger_76_interact ]
C:/Users/steve/AppData/Local/Temp/_gbsbuild/obj/trigger_77_interact.rel
                                          [ trigger_77_interact ]
C:/Users/steve/AppData/Local/Temp/_gbsbuild/obj/trigger_78_interact.rel
                                          [ trigger_78_interact ]
C:/Users/steve/AppData/Local/Temp/_gbsbuild/obj/trigger_79_interact.rel
                                          [ trigger_79_interact ]
C:/Users/steve/AppData/Local/Temp/_gbsbuild/obj/trigger_8_interact.rel
                                          [ trigger_8_interact ]
C:/Users/steve/AppData/Local/Temp/_gbsbuild/obj/trigger_80_interact.rel
                                          [ trigger_80_interact ]
C:/Users/steve/AppData/Local/Temp/_gbsbuild/obj/trigger_81_interact.rel
                                          [ trigger_81_interact ]
C:/Users/steve/AppData/Local/Temp/_gbsbuild/obj/trigger_82_interact.rel
                                          [ trigger_82_interact ]
C:/Users/steve/AppData/Local/Temp/_gbsbuild/obj/trigger_83_interact.rel
                                          [ trigger_83_interact ]
C:/Users/steve/AppData/Local/Temp/_gbsbuild/obj/trigger_84_interact.rel
                                          [ trigger_84_interact ]
C:/Users/steve/AppData/Local/Temp/_gbsbuild/obj/trigger_85_interact.rel
                                          [ trigger_85_interact ]
C:/Users/steve/AppData/Local/Temp/_gbsbuild/obj/trigger_86_interact.rel
                                          [ trigger_86_interact ]
C:/Users/steve/AppData/Local/Temp/_gbsbuild/obj/trigger_87_interact.rel
                                          [ trigger_87_interact ]
C:/Users/steve/AppData/Local/Temp/_gbsbuild/obj/trigger_88_interact.rel
                                          [ trigger_88_interact ]
C:/Users/steve/AppData/Local/Temp/_gbsbuild/obj/trigger_89_interact.rel
                                          [ trigger_89_interact ]
C:/Users/steve/AppData/Local/Temp/_gbsbuild/obj/trigger_9_interact.rel
                                          [ trigger_9_interact ]
C:/Users/steve/AppData/Local/Temp/_gbsbuild/obj/trigger_90_interact.rel
                                          [ trigger_90_interact ]
C:/Users/steve/AppData/Local/Temp/_gbsbuild/obj/trigger_91_interact.rel
                                          [ trigger_91_interact ]
C:/Users/steve/AppData/Local/Temp/_gbsbuild/obj/trigger_92_interact.rel
                                          [ trigger_92_interact ]
C:/Users/steve/AppData/Local/Temp/_gbsbuild/obj/trigger_93_interact.rel
                                          [ trigger_93_interact ]
C:/Users/steve/AppData/Local/Temp/_gbsbuild/obj/trigger_94_interact.rel
                                          [ trigger_94_interact ]
C:/Users/steve/AppData/Local/Temp/_gbsbuild/obj/trigger_95_interact.rel
                                          [ trigger_95_interact ]
C:/Users/steve/AppData/Local/Temp/_gbsbuild/obj/trigger_96_interact.rel
                                          [ trigger_96_interact ]
C:/Users/steve/AppData/Local/Temp/_gbsbuild/obj/trigger_97_interact.rel
                                          [ trigger_97_interact ]
C:/Users/steve/AppData/Local/Temp/_gbsbuild/obj/trigger_98_interact.rel
                                          [ trigger_98_interact ]
C:/Users/steve/AppData/Local/Temp/_gbsbuild/obj/trigger_99_interact.rel
                                          [ trigger_99_interact ]
C:/Users/steve/AppData/Local/Temp/_gbsbuild/obj/main.rel
                                          [ main ]
C:/Users/steve/AppData/Local/Temp/_gbsbuild/obj/adventure.rel
                                          [ adventure ]
C:/Users/steve/AppData/Local/Temp/_gbsbuild/obj/logo.rel
                                          [ logo ]
C:/Users/steve/AppData/Local/Temp/_gbsbuild/obj/platform.rel
                                          [ platform ]
C:/Users/steve/AppData/Local/Temp/_gbsbuild/obj/pointnclick.rel
                                          [ pointnclick ]
C:/Users/steve/AppData/Local/Temp/_gbsbuild/obj/shmup.rel
                                          [ shmup ]
C:/Users/steve/AppData/Local/Temp/_gbsbuild/obj/states_ptrs.rel
                                          [  ]
C:/Users/steve/AppData/Local/Temp/_gbsbuild/obj/topdown.rel
                                          [ topdown ]


Libraries Linked                          [ object file ]

C:\Users\steve\AppData\Local\Temp/_gbstools/gbdk/lib/gb/gb.lib
                                          [ fill_rect_wi.o ]
C:\Users\steve\AppData\Local\Temp/_gbstools/gbdk/lib/sm83/sm83.lib
                                          [ rand.o ]
lib/hUGEDriver.lib                        [ hUGEDriver.o ]
C:\Users\steve\AppData\Local\Temp/_gbstools/gbdk/lib/gb/gb.lib
                                          [ sfr.o ]
C:\Users\steve\AppData\Local\Temp/_gbstools/gbdk/lib/gb/gb.lib
                                          [ get_data.o ]
C:\Users\steve\AppData\Local\Temp/_gbstools/gbdk/lib/gb/gb.lib
                                          [ get_tile.o ]
C:\Users\steve\AppData\Local\Temp/_gbstools/gbdk/lib/gb/gb.lib
                                          [ cgb_palettes.o ]
C:\Users\steve\AppData\Local\Temp/_gbstools/gbdk/lib/gb/gb.lib
                                          [ metasprites_hide_spr.o ]
C:\Users\steve\AppData\Local\Temp/_gbstools/gbdk/lib/sm83/sm83.lib
                                          [ mul.o ]
C:\Users\steve\AppData\Local\Temp/_gbstools/gbdk/lib/gb/gb.lib
                                          [ set_tile.o ]
C:\Users\steve\AppData\Local\Temp/_gbstools/gbdk/lib/sm83/sm83.lib
                                          [ abs.o ]
C:\Users\steve\AppData\Local\Temp/_gbstools/gbdk/lib/gb/gb.lib
                                          [ set_wi_t.o ]
C:\Users\steve\AppData\Local\Temp/_gbstools/gbdk/lib/gb/gb.lib
                                          [ set_data.o ]
C:\Users\steve\AppData\Local\Temp/_gbstools/gbdk/lib/sm83/sm83.lib
                                          [ reverse.o ]
C:\Users\steve\AppData\Local\Temp/_gbstools/gbdk/lib/gb/gb.lib
                                          [ far_ptr.o ]
C:\Users\steve\AppData\Local\Temp/_gbstools/gbdk/lib/gb/gb.lib
                                          [ sgb.o ]
C:\Users\steve\AppData\Local\Temp/_gbstools/gbdk/lib/gb/gb.lib
                                          [ lcd.o ]
C:\Users\steve\AppData\Local\Temp/_gbstools/gbdk/lib/gb/gb.lib
                                          [ fill_rect.o ]
C:\Users\steve\AppData\Local\Temp/_gbstools/gbdk/lib/gb/gb.lib
                                          [ cpy_data.o ]
C:\Users\steve\AppData\Local\Temp/_gbstools/gbdk/lib/gb/gb.lib
                                          [ fill_rect_bk.o ]
C:\Users\steve\AppData\Local\Temp/_gbstools/gbdk/lib/gb/gb.lib
                                          [ pad.o ]
C:\Users\steve\AppData\Local\Temp/_gbstools/gbdk/lib/gb/gb.lib
                                          [ metasprites.o ]
C:\Users\steve\AppData\Local\Temp/_gbstools/gbdk/lib/sm83/sm83.lib
                                          [ __sdcc_call_hl.o ]
C:\Users\steve\AppData\Local\Temp/_gbstools/gbdk/lib/sm83/sm83.lib
                                          [ memcpy.o ]
C:\Users\steve\AppData\Local\Temp/_gbstools/gbdk/lib/sm83/sm83.lib
                                          [ _memset.o ]
C:\Users\steve\AppData\Local\Temp/_gbstools/gbdk/lib/gb/gb.lib
                                          [ set_xy_t.o ]
C:\Users\steve\AppData\Local\Temp/_gbstools/gbdk/lib/gb/gb.lib
                                          [ ___sdcc_bcall_ehl.o ]
C:\Users\steve\AppData\Local\Temp/_gbstools/gbdk/lib/gb/gb.lib
                                          [ cgb.o ]
C:\Users\steve\AppData\Local\Temp/_gbstools/gbdk/lib/sm83/sm83.lib
                                          [ div.o ]
C:\Users\steve\AppData\Local\Temp/_gbstools/gbdk/lib/gb/gb.lib
                                          [ set_bk_t.o ]

ASxxxx Linker V03.00/V05.40 + sdld,  page 226.

User Base Address Definitions

_DATA=0xC0A0
_CODE=0x0200
ASxxxx Linker V03.00/V05.40 + sdld,  page 227.

User Global Definitions

.STACK=0xDF00
_shadow_OAM=0xC000
.refresh_OAM=0xFF80
__start_save=60

